;--------------------------------------------------------
; File Created by SDCC : free open source ANSI-C Compiler
; Version 2.8.0 #5117 (Mar 23 2008) (MINGW32)
; This file was generated Thu Jan 27 00:27:49 2011
;--------------------------------------------------------
	.module carwar
	.optsdcc -mz80
	
;--------------------------------------------------------
; Public variables in this module
;--------------------------------------------------------
	.globl _main
	.globl _car4
	.globl _car3
	.globl _car2
	.globl _car1
	.globl _MainLoop
	.globl _SetScreen8
	.globl _SetPage8
	.globl _DrawPoint8
	.globl _DrawLine8
	.globl _waitRetrace
	.globl _WaitForVDP
	.globl _Joystick
	.globl _Joytrig
	.globl _GetKeyMatrixLine
	.globl _SetTo50Hz
	.globl _SetTo60Hz
	.globl _WriteToVRAM8
	.globl _VPDCommandLoop
	.globl _RAMtoVRAM
	.globl _RAMtoVRAMTrans
	.globl _Fill8
	.globl _VPDCommand32
	.globl _VPDCommand36
;--------------------------------------------------------
; special function registers
;--------------------------------------------------------
_g_slotPort	=	0x00a8
;--------------------------------------------------------
;  ram data
;--------------------------------------------------------
	.area _DATA
;--------------------------------------------------------
; overlayable items in  ram 
;--------------------------------------------------------
	.area _OVERLAY
;--------------------------------------------------------
; external initialized ram data
;--------------------------------------------------------
;--------------------------------------------------------
; global & static initialisations
;--------------------------------------------------------
	.area _HOME
	.area _GSINIT
	.area _GSFINAL
	.area _GSINIT
;--------------------------------------------------------
; Home
;--------------------------------------------------------
	.area _HOME
	.area _HOME
;--------------------------------------------------------
; code
;--------------------------------------------------------
	.area _CODE
;carwar.c:169: void main(void)
;	genLabel
;	genFunction
;	---------------------------------
; Function main
; ---------------------------------
_main_start::
_main:
;carwar.c:175: _endasm;
;	genInline
	
		 di
		 ld sp, (#0xFC4A)
		 ei
		
;carwar.c:177: g_slotPort = (g_slotPort & 0xCF) | ((g_slotPort & 0x0C) << 2);
;	genAnd
;Z80 AOP_SFR for _g_slotPort banked:0 bc:1 de:0
	in	a,(_g_slotPort)
	and	a,#0xCF
	ld	c,a
;	genAnd
;Z80 AOP_SFR for _g_slotPort banked:0 bc:1 de:0
	in	a,(_g_slotPort)
	and	a,#0x0C
	ld	b,a
;	genLeftShift
	sla	b
	sla	b
;	genOr
;Z80 AOP_SFR for _g_slotPort banked:0 bc:1 de:0
	ld	a,c
	or	a,b
	out	(_g_slotPort),a
;carwar.c:179: MainLoop();
;	genCall
; _saveRegsForCall: sendSetSize: 0 deInUse: 0 bcInUse: 0 deSending: 0
;	genLabel
;	genEndFunction
	jp	_MainLoop
_main_end::
_car1:
	.db #0x00
	.db #0x00
	.db #0x00
	.db #0x00
	.db #0x00
	.db #0x00
	.db #0x00
	.db #0x00
	.db #0x00
	.db #0x00
	.db #0x00
	.db #0x00
	.db #0x00
	.db #0x00
	.db #0x00
	.db #0x00
	.db #0x00
	.db #0x00
	.db #0x00
	.db #0x00
	.db #0x00
	.db #0x00
	.db #0x00
	.db #0x00
	.db #0x00
	.db #0x00
	.db #0x00
	.db #0x00
	.db #0x04
	.db #0x04
	.db #0x04
	.db #0x10
	.db #0x21
	.db #0x00
	.db #0x00
	.db #0x00
	.db #0x00
	.db #0x00
	.db #0x00
	.db #0x6D
	.db #0x49
	.db #0x04
	.db #0x21
	.db #0x04
	.db #0xFB
	.db #0x21
	.db #0x21
	.db #0x91
	.db #0x92
	.db #0xBC
	.db #0x6D
	.db #0x00
	.db #0x00
	.db #0x04
	.db #0x21
	.db #0x42
	.db #0x04
	.db #0xD6
	.db #0x63
	.db #0x42
	.db #0xDA
	.db #0xB6
	.db #0x49
	.db #0x6D
	.db #0x00
	.db #0x00
	.db #0x04
	.db #0x21
	.db #0x63
	.db #0x04
	.db #0x1C
	.db #0x42
	.db #0x42
	.db #0xDA
	.db #0x92
	.db #0xFC
	.db #0x6D
	.db #0x00
	.db #0x00
	.db #0x04
	.db #0x04
	.db #0x04
	.db #0x04
	.db #0x04
	.db #0x04
	.db #0x92
	.db #0xDA
	.db #0xDA
	.db #0xDA
	.db #0x91
	.db #0x00
	.db #0x00
	.db #0x04
	.db #0x04
	.db #0x04
	.db #0x04
	.db #0x04
	.db #0x49
	.db #0x6D
	.db #0x6D
	.db #0x04
	.db #0x04
	.db #0x6D
	.db #0x00
	.db #0x00
	.db #0x00
	.db #0x04
	.db #0x04
	.db #0x00
	.db #0x00
	.db #0x00
	.db #0x00
	.db #0x00
	.db #0x04
	.db #0x04
	.db #0x00
	.db #0x00
	.db #0x00
	.db #0x00
	.db #0x00
	.db #0x00
	.db #0x00
	.db #0x00
	.db #0x00
	.db #0x00
	.db #0x00
	.db #0x00
	.db #0x00
	.db #0x00
	.db #0x00
	.db #0x00
	.db #0x00
	.db #0x00
	.db #0x00
	.db #0x00
	.db #0x00
	.db #0x00
	.db #0x00
	.db #0x00
	.db #0x00
	.db #0x00
	.db #0x00
	.db #0x00
	.db #0x00
	.db #0x00
	.db #0x00
	.db #0x00
	.db #0x00
	.db #0x00
	.db #0x00
	.db #0x00
	.db #0x00
	.db #0x00
	.db #0x00
	.db #0x00
	.db #0x00
	.db #0x00
	.db #0x00
	.db #0x00
	.db #0x00
	.db #0x00
	.db #0x00
	.db #0x00
	.db #0x00
	.db #0x00
	.db #0x00
	.db #0x00
	.db #0x00
	.db #0x00
	.db #0x00
	.db #0x00
	.db #0x00
	.db #0x00
	.db #0x00
	.db #0x10
	.db #0x21
	.db #0x00
	.db #0x6D
	.db #0xB8
	.db #0x49
	.db #0x00
	.db #0x00
	.db #0x00
	.db #0x00
	.db #0x00
	.db #0x04
	.db #0x04
	.db #0xFB
	.db #0x21
	.db #0x21
	.db #0x21
	.db #0xB6
	.db #0x49
	.db #0x6D
	.db #0x00
	.db #0x00
	.db #0x04
	.db #0x04
	.db #0x04
	.db #0x04
	.db #0xD6
	.db #0x63
	.db #0x42
	.db #0x21
	.db #0x92
	.db #0xDA
	.db #0x6D
	.db #0x00
	.db #0x6D
	.db #0x04
	.db #0x21
	.db #0x21
	.db #0x04
	.db #0x04
	.db #0x1C
	.db #0x42
	.db #0x21
	.db #0xDA
	.db #0xDC
	.db #0x49
	.db #0x00
	.db #0x00
	.db #0x04
	.db #0x04
	.db #0x42
	.db #0x42
	.db #0x04
	.db #0x04
	.db #0x04
	.db #0x92
	.db #0x6D
	.db #0x49
	.db #0x04
	.db #0x00
	.db #0x00
	.db #0x04
	.db #0x04
	.db #0x04
	.db #0x04
	.db #0x04
	.db #0x04
	.db #0x6D
	.db #0x6D
	.db #0x49
	.db #0x04
	.db #0x04
	.db #0x00
	.db #0x00
	.db #0x00
	.db #0x04
	.db #0x04
	.db #0x04
	.db #0x00
	.db #0x00
	.db #0x00
	.db #0x00
	.db #0x00
	.db #0x00
	.db #0x00
	.db #0x00
	.db #0x00
	.db #0x00
	.db #0x00
	.db #0x00
	.db #0x00
	.db #0x00
	.db #0x00
	.db #0x00
	.db #0x00
	.db #0x00
	.db #0x00
	.db #0x00
	.db #0x00
	.db #0x00
	.db #0x00
	.db #0x00
	.db #0x00
	.db #0x00
	.db #0x00
	.db #0x00
	.db #0x00
	.db #0x00
	.db #0x00
	.db #0x00
	.db #0x00
	.db #0x00
	.db #0x00
	.db #0x00
	.db #0x00
	.db #0x00
	.db #0x00
	.db #0x00
	.db #0x00
	.db #0x49
	.db #0x6D
	.db #0x00
	.db #0x00
	.db #0x00
	.db #0x00
	.db #0x00
	.db #0x00
	.db #0x00
	.db #0x00
	.db #0x00
	.db #0x00
	.db #0x6D
	.db #0x6D
	.db #0xBC
	.db #0x49
	.db #0x00
	.db #0x00
	.db #0x00
	.db #0x00
	.db #0x00
	.db #0x00
	.db #0x00
	.db #0x00
	.db #0x21
	.db #0x21
	.db #0xB6
	.db #0xDA
	.db #0x91
	.db #0x49
	.db #0x00
	.db #0x00
	.db #0x00
	.db #0x00
	.db #0x00
	.db #0x10
	.db #0x04
	.db #0x41
	.db #0x62
	.db #0x41
	.db #0xDA
	.db #0xDA
	.db #0xFC
	.db #0x6D
	.db #0x00
	.db #0x00
	.db #0x00
	.db #0x00
	.db #0xB2
	.db #0xFB
	.db #0x04
	.db #0x04
	.db #0x63
	.db #0x04
	.db #0xDA
	.db #0x91
	.db #0x04
	.db #0x00
	.db #0x00
	.db #0x00
	.db #0x04
	.db #0x21
	.db #0x04
	.db #0x1C
	.db #0x04
	.db #0x04
	.db #0x04
	.db #0x91
	.db #0x04
	.db #0x00
	.db #0x00
	.db #0x00
	.db #0x04
	.db #0x21
	.db #0x41
	.db #0x63
	.db #0x42
	.db #0x04
	.db #0x04
	.db #0x6D
	.db #0x00
	.db #0x00
	.db #0x00
	.db #0x00
	.db #0x00
	.db #0x6D
	.db #0x04
	.db #0x04
	.db #0x42
	.db #0x04
	.db #0x04
	.db #0x04
	.db #0x49
	.db #0x00
	.db #0x00
	.db #0x00
	.db #0x00
	.db #0x00
	.db #0x00
	.db #0x04
	.db #0x04
	.db #0x04
	.db #0x04
	.db #0x04
	.db #0x00
	.db #0x00
	.db #0x00
	.db #0x00
	.db #0x00
	.db #0x00
	.db #0x00
	.db #0x00
	.db #0x00
	.db #0x04
	.db #0x04
	.db #0x04
	.db #0x00
	.db #0x00
	.db #0x00
	.db #0x00
	.db #0x00
	.db #0x00
	.db #0x00
	.db #0x00
	.db #0x00
	.db #0x00
	.db #0x00
	.db #0x00
	.db #0x00
	.db #0x00
	.db #0x00
	.db #0x00
	.db #0x00
	.db #0x00
	.db #0x00
	.db #0x00
	.db #0x00
	.db #0x00
	.db #0x00
	.db #0x00
	.db #0x00
	.db #0x00
	.db #0xB6
	.db #0xB8
	.db #0x00
	.db #0x00
	.db #0x00
	.db #0x00
	.db #0x00
	.db #0x00
	.db #0x00
	.db #0x00
	.db #0x00
	.db #0x00
	.db #0x92
	.db #0xDA
	.db #0x6D
	.db #0x6D
	.db #0xB8
	.db #0x00
	.db #0x00
	.db #0x00
	.db #0x00
	.db #0x00
	.db #0x00
	.db #0x00
	.db #0x00
	.db #0xDA
	.db #0xDA
	.db #0xDA
	.db #0xB6
	.db #0x91
	.db #0x49
	.db #0x00
	.db #0x00
	.db #0x00
	.db #0x00
	.db #0x00
	.db #0x00
	.db #0x21
	.db #0x21
	.db #0x42
	.db #0xDA
	.db #0xDA
	.db #0x6D
	.db #0x24
	.db #0x00
	.db #0x00
	.db #0x00
	.db #0x00
	.db #0x00
	.db #0x10
	.db #0x04
	.db #0x21
	.db #0x42
	.db #0x63
	.db #0x91
	.db #0x49
	.db #0x04
	.db #0x00
	.db #0x00
	.db #0x00
	.db #0x00
	.db #0x00
	.db #0xB2
	.db #0xFB
	.db #0x04
	.db #0x04
	.db #0x63
	.db #0x24
	.db #0x24
	.db #0x00
	.db #0x00
	.db #0x00
	.db #0x00
	.db #0x00
	.db #0x00
	.db #0x04
	.db #0x04
	.db #0x1C
	.db #0x04
	.db #0x04
	.db #0x04
	.db #0x04
	.db #0x00
	.db #0x00
	.db #0x00
	.db #0x00
	.db #0x00
	.db #0x04
	.db #0x21
	.db #0x42
	.db #0x63
	.db #0x04
	.db #0x04
	.db #0x04
	.db #0x00
	.db #0x00
	.db #0x00
	.db #0x00
	.db #0x00
	.db #0x00
	.db #0x04
	.db #0x04
	.db #0x21
	.db #0x21
	.db #0x21
	.db #0x04
	.db #0x04
	.db #0x00
	.db #0x00
	.db #0x00
	.db #0x00
	.db #0x00
	.db #0x00
	.db #0x6D
	.db #0x04
	.db #0x04
	.db #0x04
	.db #0x04
	.db #0x04
	.db #0x00
	.db #0x00
	.db #0x00
	.db #0x00
	.db #0x00
	.db #0x00
	.db #0x00
	.db #0x00
	.db #0x00
	.db #0x04
	.db #0x04
	.db #0x04
	.db #0x04
	.db #0x00
	.db #0x00
	.db #0x00
	.db #0x00
	.db #0x00
	.db #0x00
	.db #0x00
	.db #0x00
	.db #0x6D
	.db #0x98
	.db #0x24
	.db #0x49
	.db #0x98
	.db #0x6D
	.db #0x00
	.db #0x00
	.db #0x00
	.db #0x00
	.db #0x00
	.db #0x00
	.db #0x00
	.db #0xB6
	.db #0x92
	.db #0xDA
	.db #0xDA
	.db #0x92
	.db #0xB6
	.db #0x00
	.db #0x00
	.db #0x00
	.db #0x00
	.db #0x00
	.db #0x00
	.db #0x04
	.db #0x91
	.db #0xDA
	.db #0xDA
	.db #0xDA
	.db #0xDA
	.db #0x92
	.db #0x04
	.db #0x00
	.db #0x00
	.db #0x00
	.db #0x00
	.db #0x00
	.db #0x04
	.db #0x6D
	.db #0x21
	.db #0x41
	.db #0x42
	.db #0x63
	.db #0x6D
	.db #0x04
	.db #0x00
	.db #0x00
	.db #0x00
	.db #0x00
	.db #0x00
	.db #0x00
	.db #0x24
	.db #0x41
	.db #0x42
	.db #0x63
	.db #0x42
	.db #0x24
	.db #0x00
	.db #0x00
	.db #0x00
	.db #0x00
	.db #0x00
	.db #0x00
	.db #0x00
	.db #0x04
	.db #0x10
	.db #0xFB
	.db #0xD6
	.db #0x1C
	.db #0x04
	.db #0x00
	.db #0x00
	.db #0x00
	.db #0x00
	.db #0x00
	.db #0x00
	.db #0x00
	.db #0x04
	.db #0x04
	.db #0x04
	.db #0x04
	.db #0x04
	.db #0x04
	.db #0x00
	.db #0x00
	.db #0x00
	.db #0x00
	.db #0x00
	.db #0x00
	.db #0x00
	.db #0x04
	.db #0x21
	.db #0x42
	.db #0x63
	.db #0x21
	.db #0x04
	.db #0x00
	.db #0x00
	.db #0x00
	.db #0x00
	.db #0x00
	.db #0x00
	.db #0x04
	.db #0x04
	.db #0x04
	.db #0x21
	.db #0x21
	.db #0x04
	.db #0x04
	.db #0x04
	.db #0x00
	.db #0x00
	.db #0x00
	.db #0x00
	.db #0x00
	.db #0x04
	.db #0x04
	.db #0x04
	.db #0x04
	.db #0x04
	.db #0x04
	.db #0x04
	.db #0x04
	.db #0x00
	.db #0x00
	.db #0x00
	.db #0x00
	.db #0x00
	.db #0x00
	.db #0x04
	.db #0x6D
	.db #0x04
	.db #0x04
	.db #0x04
	.db #0x04
	.db #0x00
	.db #0x00
	.db #0x00
	.db #0x00
	.db #0x00
	.db #0x00
	.db #0x00
	.db #0x00
	.db #0x49
	.db #0x98
	.db #0x6D
	.db #0x00
	.db #0x00
	.db #0x00
	.db #0x00
	.db #0x00
	.db #0x00
	.db #0x00
	.db #0x00
	.db #0x6D
	.db #0x98
	.db #0x49
	.db #0xDA
	.db #0x92
	.db #0x00
	.db #0x00
	.db #0x00
	.db #0x00
	.db #0x00
	.db #0x00
	.db #0x00
	.db #0x00
	.db #0x92
	.db #0x92
	.db #0xDA
	.db #0xDA
	.db #0xDA
	.db #0x6D
	.db #0x00
	.db #0x00
	.db #0x00
	.db #0x00
	.db #0x00
	.db #0x00
	.db #0x00
	.db #0x04
	.db #0x91
	.db #0x6D
	.db #0x41
	.db #0x42
	.db #0x42
	.db #0x04
	.db #0x00
	.db #0x00
	.db #0x00
	.db #0x00
	.db #0x00
	.db #0x00
	.db #0x04
	.db #0x6D
	.db #0x41
	.db #0x42
	.db #0x63
	.db #0x1C
	.db #0x04
	.db #0x00
	.db #0x00
	.db #0x00
	.db #0x00
	.db #0x00
	.db #0x00
	.db #0x00
	.db #0x24
	.db #0x10
	.db #0xFB
	.db #0xD6
	.db #0x04
	.db #0x04
	.db #0x04
	.db #0x00
	.db #0x00
	.db #0x00
	.db #0x00
	.db #0x00
	.db #0x00
	.db #0x04
	.db #0x04
	.db #0x04
	.db #0x04
	.db #0x63
	.db #0x21
	.db #0x04
	.db #0x00
	.db #0x00
	.db #0x00
	.db #0x00
	.db #0x00
	.db #0x00
	.db #0x00
	.db #0x04
	.db #0x04
	.db #0x63
	.db #0x42
	.db #0x21
	.db #0x04
	.db #0x04
	.db #0x00
	.db #0x00
	.db #0x00
	.db #0x00
	.db #0x00
	.db #0x00
	.db #0x00
	.db #0x04
	.db #0x04
	.db #0x42
	.db #0x04
	.db #0x04
	.db #0x04
	.db #0x00
	.db #0x00
	.db #0x00
	.db #0x00
	.db #0x00
	.db #0x00
	.db #0x00
	.db #0x04
	.db #0x04
	.db #0x04
	.db #0x04
	.db #0x04
	.db #0x00
	.db #0x00
	.db #0x00
	.db #0x00
	.db #0x00
	.db #0x00
	.db #0x00
	.db #0x00
	.db #0x00
	.db #0x04
	.db #0x6D
	.db #0x00
	.db #0x00
	.db #0x00
	.db #0x00
	.db #0x00
	.db #0x00
	.db #0x00
	.db #0x00
	.db #0x00
	.db #0x00
	.db #0x00
	.db #0x00
	.db #0x00
	.db #0x00
	.db #0x00
	.db #0x00
	.db #0x00
	.db #0x00
	.db #0x00
	.db #0x00
	.db #0x49
	.db #0xBC
	.db #0x6D
	.db #0x6D
	.db #0x00
	.db #0x00
	.db #0x00
	.db #0x00
	.db #0x00
	.db #0x00
	.db #0x00
	.db #0x00
	.db #0x49
	.db #0xDA
	.db #0xDA
	.db #0xB6
	.db #0x21
	.db #0x49
	.db #0x00
	.db #0x00
	.db #0x00
	.db #0x00
	.db #0x00
	.db #0x00
	.db #0x00
	.db #0xFC
	.db #0xDA
	.db #0xDA
	.db #0x41
	.db #0x62
	.db #0x41
	.db #0x04
	.db #0x1C
	.db #0x00
	.db #0x00
	.db #0x00
	.db #0x00
	.db #0x00
	.db #0x6D
	.db #0xDA
	.db #0x49
	.db #0x63
	.db #0x04
	.db #0x04
	.db #0xFB
	.db #0x04
	.db #0x04
	.db #0x00
	.db #0x00
	.db #0x00
	.db #0x00
	.db #0x04
	.db #0x6D
	.db #0x04
	.db #0x04
	.db #0x04
	.db #0x10
	.db #0x04
	.db #0x21
	.db #0x04
	.db #0x04
	.db #0x00
	.db #0x00
	.db #0x00
	.db #0x00
	.db #0x04
	.db #0x49
	.db #0x04
	.db #0x04
	.db #0x21
	.db #0x63
	.db #0x41
	.db #0x21
	.db #0x04
	.db #0x04
	.db #0x00
	.db #0x00
	.db #0x00
	.db #0x00
	.db #0x00
	.db #0x04
	.db #0x04
	.db #0x41
	.db #0x42
	.db #0x04
	.db #0x04
	.db #0x04
	.db #0x04
	.db #0x00
	.db #0x00
	.db #0x00
	.db #0x00
	.db #0x00
	.db #0x00
	.db #0x04
	.db #0x04
	.db #0x04
	.db #0x04
	.db #0x04
	.db #0x04
	.db #0x00
	.db #0x00
	.db #0x00
	.db #0x00
	.db #0x00
	.db #0x00
	.db #0x00
	.db #0x00
	.db #0x04
	.db #0x04
	.db #0x04
	.db #0x6D
	.db #0x00
	.db #0x00
	.db #0x00
	.db #0x00
	.db #0x00
	.db #0x00
	.db #0x00
	.db #0x00
	.db #0x00
	.db #0x00
	.db #0x00
	.db #0x00
	.db #0x00
	.db #0x00
	.db #0x00
	.db #0x00
	.db #0x00
	.db #0x00
	.db #0x00
	.db #0x00
	.db #0x00
	.db #0x00
	.db #0x00
	.db #0x00
	.db #0x00
	.db #0x00
	.db #0x00
	.db #0x00
	.db #0x00
	.db #0x00
	.db #0x00
	.db #0x49
	.db #0x49
	.db #0x00
	.db #0x00
	.db #0x00
	.db #0x00
	.db #0x00
	.db #0x00
	.db #0x00
	.db #0x00
	.db #0x00
	.db #0x00
	.db #0x6D
	.db #0xBC
	.db #0x91
	.db #0x49
	.db #0x21
	.db #0x04
	.db #0x1C
	.db #0x00
	.db #0x00
	.db #0x00
	.db #0x00
	.db #0x00
	.db #0x6D
	.db #0x49
	.db #0xDA
	.db #0xDA
	.db #0x21
	.db #0x21
	.db #0xFB
	.db #0x04
	.db #0x04
	.db #0x00
	.db #0x00
	.db #0x00
	.db #0x00
	.db #0xFC
	.db #0xDA
	.db #0xDA
	.db #0x21
	.db #0x42
	.db #0x10
	.db #0x04
	.db #0x04
	.db #0x21
	.db #0x04
	.db #0x04
	.db #0x00
	.db #0x00
	.db #0x04
	.db #0x49
	.db #0x6D
	.db #0x21
	.db #0x42
	.db #0x04
	.db #0x04
	.db #0x04
	.db #0x42
	.db #0x21
	.db #0x04
	.db #0x04
	.db #0x00
	.db #0x04
	.db #0x04
	.db #0x6D
	.db #0x49
	.db #0x04
	.db #0x04
	.db #0x21
	.db #0x42
	.db #0x63
	.db #0x04
	.db #0x04
	.db #0x04
	.db #0x00
	.db #0x00
	.db #0x00
	.db #0x04
	.db #0x04
	.db #0x04
	.db #0x04
	.db #0x04
	.db #0x21
	.db #0x04
	.db #0x04
	.db #0x04
	.db #0x04
	.db #0x00
	.db #0x00
	.db #0x00
	.db #0x00
	.db #0x00
	.db #0x00
	.db #0x04
	.db #0x04
	.db #0x04
	.db #0x04
	.db #0x04
	.db #0x6D
	.db #0x00
	.db #0x00
	.db #0x00
	.db #0x00
	.db #0x00
	.db #0x00
	.db #0x00
	.db #0x00
	.db #0x00
	.db #0x04
	.db #0x04
	.db #0x04
	.db #0x00
	.db #0x00
	.db #0x00
	.db #0x00
	.db #0x00
	.db #0x00
	.db #0x00
	.db #0x00
	.db #0x00
	.db #0x00
	.db #0x00
	.db #0x00
	.db #0x00
	.db #0x00
	.db #0x00
	.db #0x00
	.db #0x00
	.db #0x00
	.db #0x00
	.db #0x00
	.db #0x00
	.db #0x00
	.db #0x00
	.db #0x00
	.db #0x00
	.db #0x00
	.db #0x00
	.db #0x00
	.db #0x00
	.db #0x00
	.db #0x00
	.db #0x00
	.db #0x00
	.db #0x00
	.db #0x00
	.db #0x00
	.db #0x00
	.db #0x00
	.db #0x00
	.db #0x00
	.db #0x00
	.db #0x00
	.db #0x00
	.db #0x00
	.db #0x00
	.db #0x00
	.db #0x00
	.db #0x21
	.db #0x1C
	.db #0x04
	.db #0x04
	.db #0x04
	.db #0x00
	.db #0x00
	.db #0x00
	.db #0x6D
	.db #0xBC
	.db #0x92
	.db #0x91
	.db #0x21
	.db #0x21
	.db #0xFB
	.db #0x04
	.db #0x21
	.db #0x04
	.db #0x04
	.db #0x00
	.db #0x00
	.db #0x49
	.db #0xDA
	.db #0xB6
	.db #0xDA
	.db #0x42
	.db #0x63
	.db #0xD6
	.db #0x04
	.db #0x42
	.db #0x21
	.db #0x04
	.db #0x00
	.db #0x00
	.db #0x6D
	.db #0xFC
	.db #0x92
	.db #0xDA
	.db #0x42
	.db #0x42
	.db #0x10
	.db #0x04
	.db #0x63
	.db #0x21
	.db #0x04
	.db #0x00
	.db #0x00
	.db #0x91
	.db #0xDA
	.db #0xDA
	.db #0xDA
	.db #0x92
	.db #0x04
	.db #0x04
	.db #0x04
	.db #0x04
	.db #0x04
	.db #0x6D
	.db #0x00
	.db #0x00
	.db #0x6D
	.db #0x24
	.db #0x24
	.db #0x6D
	.db #0x6D
	.db #0x49
	.db #0x04
	.db #0x04
	.db #0x24
	.db #0x24
	.db #0x04
	.db #0x00
	.db #0x00
	.db #0x00
	.db #0x04
	.db #0x04
	.db #0x00
	.db #0x00
	.db #0x00
	.db #0x00
	.db #0x00
	.db #0x04
	.db #0x04
	.db #0x00
	.db #0x00
	.db #0x00
	.db #0x00
	.db #0x00
	.db #0x00
	.db #0x00
	.db #0x00
	.db #0x00
	.db #0x00
	.db #0x00
	.db #0x00
	.db #0x00
	.db #0x00
	.db #0x00
	.db #0x00
	.db #0x00
	.db #0x00
	.db #0x00
	.db #0x00
	.db #0x00
	.db #0x00
	.db #0x00
	.db #0x00
	.db #0x00
	.db #0x00
	.db #0x00
	.db #0x00
	.db #0x00
	.db #0x00
	.db #0x00
	.db #0x00
	.db #0x00
	.db #0x00
	.db #0x00
	.db #0x00
	.db #0x00
	.db #0x00
	.db #0x00
	.db #0x00
	.db #0x00
	.db #0x00
	.db #0x00
	.db #0x00
	.db #0x00
	.db #0x00
	.db #0x00
	.db #0x00
	.db #0x04
	.db #0x04
	.db #0x04
	.db #0x00
	.db #0x00
	.db #0x00
	.db #0x00
	.db #0x00
	.db #0x00
	.db #0x00
	.db #0x00
	.db #0x21
	.db #0x1C
	.db #0x21
	.db #0x21
	.db #0x04
	.db #0x04
	.db #0x00
	.db #0x00
	.db #0x00
	.db #0x00
	.db #0x00
	.db #0x04
	.db #0x21
	.db #0x21
	.db #0xFB
	.db #0xAE
	.db #0x63
	.db #0x21
	.db #0x04
	.db #0x04
	.db #0x6D
	.db #0x00
	.db #0x00
	.db #0x92
	.db #0x91
	.db #0x42
	.db #0x63
	.db #0x04
	.db #0x1C
	.db #0x04
	.db #0x42
	.db #0x04
	.db #0x04
	.db #0x00
	.db #0x00
	.db #0xB6
	.db #0xB6
	.db #0xDA
	.db #0xB6
	.db #0x42
	.db #0x42
	.db #0x04
	.db #0x04
	.db #0x04
	.db #0x04
	.db #0x04
	.db #0x00
	.db #0x00
	.db #0xBC
	.db #0xDA
	.db #0xDA
	.db #0xDA
	.db #0xB6
	.db #0x04
	.db #0x04
	.db #0x04
	.db #0x04
	.db #0x04
	.db #0x00
	.db #0x00
	.db #0x00
	.db #0x6D
	.db #0x24
	.db #0xB6
	.db #0x92
	.db #0x92
	.db #0x6D
	.db #0x49
	.db #0x04
	.db #0x00
	.db #0x00
	.db #0x00
	.db #0x00
	.db #0x00
	.db #0x00
	.db #0x6D
	.db #0xFC
	.db #0x6D
	.db #0x04
	.db #0x49
	.db #0x00
	.db #0x00
	.db #0x00
	.db #0x00
	.db #0x00
	.db #0x00
	.db #0x00
	.db #0x00
	.db #0x00
	.db #0x49
	.db #0x04
	.db #0x00
	.db #0x00
	.db #0x00
	.db #0x00
	.db #0x00
	.db #0x00
	.db #0x00
	.db #0x00
	.db #0x00
	.db #0x00
	.db #0x00
	.db #0x00
	.db #0x00
	.db #0x00
	.db #0x00
	.db #0x00
	.db #0x00
	.db #0x00
	.db #0x00
	.db #0x00
	.db #0x00
	.db #0x00
	.db #0x00
	.db #0x00
	.db #0x00
	.db #0x00
	.db #0x00
	.db #0x00
	.db #0x00
	.db #0x00
	.db #0x00
	.db #0x00
	.db #0x00
	.db #0x00
	.db #0x00
	.db #0x00
	.db #0x00
	.db #0x00
	.db #0x00
	.db #0x00
	.db #0x04
	.db #0x04
	.db #0x04
	.db #0x04
	.db #0x00
	.db #0x00
	.db #0x00
	.db #0x00
	.db #0x00
	.db #0x00
	.db #0x00
	.db #0x00
	.db #0x04
	.db #0x1C
	.db #0x21
	.db #0x21
	.db #0x04
	.db #0x04
	.db #0x6D
	.db #0x00
	.db #0x00
	.db #0x00
	.db #0x00
	.db #0x00
	.db #0x04
	.db #0x42
	.db #0xB2
	.db #0xD6
	.db #0x42
	.db #0x21
	.db #0x04
	.db #0x04
	.db #0x00
	.db #0x00
	.db #0x00
	.db #0x00
	.db #0x6D
	.db #0x04
	.db #0x21
	.db #0x42
	.db #0x04
	.db #0x10
	.db #0x21
	.db #0x04
	.db #0x04
	.db #0x00
	.db #0x00
	.db #0x00
	.db #0x6D
	.db #0x92
	.db #0xB6
	.db #0x92
	.db #0x41
	.db #0x63
	.db #0x04
	.db #0x04
	.db #0x04
	.db #0x04
	.db #0x00
	.db #0x00
	.db #0x6D
	.db #0xFC
	.db #0x92
	.db #0xB6
	.db #0xDA
	.db #0x92
	.db #0x04
	.db #0x04
	.db #0x04
	.db #0x04
	.db #0x00
	.db #0x00
	.db #0x00
	.db #0x24
	.db #0x49
	.db #0xB6
	.db #0xDA
	.db #0xDA
	.db #0xDA
	.db #0x49
	.db #0x04
	.db #0x00
	.db #0x00
	.db #0x00
	.db #0x00
	.db #0x00
	.db #0x00
	.db #0x6D
	.db #0x49
	.db #0xFC
	.db #0xDA
	.db #0x49
	.db #0x24
	.db #0x00
	.db #0x00
	.db #0x00
	.db #0x00
	.db #0x00
	.db #0x00
	.db #0x00
	.db #0x00
	.db #0x6D
	.db #0x6D
	.db #0x04
	.db #0x04
	.db #0x00
	.db #0x00
	.db #0x00
	.db #0x00
	.db #0x00
	.db #0x00
	.db #0x00
	.db #0x00
	.db #0x00
	.db #0x00
	.db #0x24
	.db #0x00
	.db #0x00
	.db #0x00
	.db #0x00
	.db #0x00
	.db #0x00
	.db #0x00
	.db #0x00
	.db #0x00
	.db #0x00
	.db #0x00
	.db #0x00
	.db #0x00
	.db #0x00
	.db #0x00
	.db #0x00
	.db #0x00
	.db #0x00
	.db #0x00
	.db #0x00
	.db #0x00
	.db #0x00
	.db #0x00
	.db #0x00
	.db #0x00
	.db #0x00
	.db #0x00
	.db #0x04
	.db #0x04
	.db #0x04
	.db #0x6D
	.db #0x00
	.db #0x00
	.db #0x00
	.db #0x00
	.db #0x00
	.db #0x00
	.db #0x00
	.db #0x00
	.db #0x04
	.db #0x21
	.db #0x21
	.db #0x04
	.db #0x04
	.db #0x04
	.db #0x00
	.db #0x00
	.db #0x00
	.db #0x00
	.db #0x00
	.db #0x00
	.db #0x04
	.db #0x1C
	.db #0xFB
	.db #0x63
	.db #0x42
	.db #0x21
	.db #0x04
	.db #0x00
	.db #0x00
	.db #0x00
	.db #0x00
	.db #0x00
	.db #0x00
	.db #0x04
	.db #0x41
	.db #0xAE
	.db #0xD6
	.db #0x10
	.db #0x04
	.db #0x04
	.db #0x00
	.db #0x00
	.db #0x00
	.db #0x00
	.db #0x00
	.db #0x04
	.db #0x04
	.db #0x21
	.db #0x42
	.db #0x62
	.db #0x63
	.db #0x04
	.db #0x00
	.db #0x00
	.db #0x00
	.db #0x00
	.db #0x00
	.db #0x00
	.db #0x91
	.db #0xDA
	.db #0xDA
	.db #0xDA
	.db #0x42
	.db #0x04
	.db #0x04
	.db #0x00
	.db #0x00
	.db #0x00
	.db #0x00
	.db #0x00
	.db #0x24
	.db #0xB6
	.db #0xDA
	.db #0xDA
	.db #0xDA
	.db #0xDA
	.db #0x6D
	.db #0x00
	.db #0x00
	.db #0x00
	.db #0x00
	.db #0x00
	.db #0x00
	.db #0x04
	.db #0xFC
	.db #0x92
	.db #0xB6
	.db #0xB6
	.db #0xDA
	.db #0x24
	.db #0x00
	.db #0x00
	.db #0x00
	.db #0x00
	.db #0x00
	.db #0x00
	.db #0x00
	.db #0x24
	.db #0x6D
	.db #0x6D
	.db #0xFC
	.db #0xB6
	.db #0x04
	.db #0x00
	.db #0x00
	.db #0x00
	.db #0x00
	.db #0x00
	.db #0x00
	.db #0x00
	.db #0x00
	.db #0x24
	.db #0x49
	.db #0x24
	.db #0x00
	.db #0x00
	.db #0x00
	.db #0x00
	.db #0x00
	.db #0x00
	.db #0x00
	.db #0x00
	.db #0x00
	.db #0x00
	.db #0x00
	.db #0x00
	.db #0x00
	.db #0x00
	.db #0x00
	.db #0x00
	.db #0x00
	.db #0x00
	.db #0x00
	.db #0x00
	.db #0x00
	.db #0x00
	.db #0x00
	.db #0x04
	.db #0x04
	.db #0x04
	.db #0x04
	.db #0x6D
	.db #0x04
	.db #0x00
	.db #0x00
	.db #0x00
	.db #0x00
	.db #0x00
	.db #0x00
	.db #0x04
	.db #0x04
	.db #0x04
	.db #0x21
	.db #0x21
	.db #0x04
	.db #0x04
	.db #0x04
	.db #0x00
	.db #0x00
	.db #0x00
	.db #0x00
	.db #0x00
	.db #0x04
	.db #0x04
	.db #0x21
	.db #0x42
	.db #0x63
	.db #0x21
	.db #0x04
	.db #0x04
	.db #0x00
	.db #0x00
	.db #0x00
	.db #0x00
	.db #0x00
	.db #0x00
	.db #0x04
	.db #0x1C
	.db #0xFB
	.db #0xD6
	.db #0x10
	.db #0x04
	.db #0x00
	.db #0x00
	.db #0x00
	.db #0x00
	.db #0x00
	.db #0x00
	.db #0x00
	.db #0x04
	.db #0x41
	.db #0x42
	.db #0x62
	.db #0x63
	.db #0x04
	.db #0x00
	.db #0x00
	.db #0x00
	.db #0x00
	.db #0x00
	.db #0x00
	.db #0x00
	.db #0x04
	.db #0x21
	.db #0x42
	.db #0x63
	.db #0x42
	.db #0x04
	.db #0x00
	.db #0x00
	.db #0x00
	.db #0x00
	.db #0x00
	.db #0x00
	.db #0x04
	.db #0x6D
	.db #0xDA
	.db #0xDA
	.db #0xDA
	.db #0xDA
	.db #0x6D
	.db #0x04
	.db #0x00
	.db #0x00
	.db #0x00
	.db #0x00
	.db #0x00
	.db #0x04
	.db #0x91
	.db #0xB6
	.db #0xDA
	.db #0xDA
	.db #0xB6
	.db #0x92
	.db #0x04
	.db #0x00
	.db #0x00
	.db #0x00
	.db #0x00
	.db #0x00
	.db #0x00
	.db #0xB6
	.db #0xFC
	.db #0x24
	.db #0x24
	.db #0xFC
	.db #0xB6
	.db #0x00
	.db #0x00
	.db #0x00
	.db #0x00
	.db #0x00
	.db #0x00
	.db #0x00
	.db #0x24
	.db #0x6D
	.db #0x6D
	.db #0x6D
	.db #0x6D
	.db #0x24
	.db #0x00
	.db #0x00
	.db #0x00
	.db #0x00
	.db #0x00
	.db #0x00
	.db #0x00
	.db #0x00
	.db #0x00
	.db #0x00
	.db #0x00
	.db #0x00
	.db #0x00
	.db #0x00
	.db #0x00
	.db #0x00
	.db #0x00
	.db #0x00
	.db #0x00
	.db #0x00
	.db #0x00
	.db #0x04
	.db #0x04
	.db #0x6D
	.db #0x00
	.db #0x00
	.db #0x00
	.db #0x00
	.db #0x00
	.db #0x00
	.db #0x00
	.db #0x00
	.db #0x04
	.db #0x04
	.db #0x04
	.db #0x21
	.db #0x04
	.db #0x04
	.db #0x00
	.db #0x00
	.db #0x00
	.db #0x00
	.db #0x00
	.db #0x00
	.db #0x00
	.db #0x04
	.db #0x21
	.db #0x42
	.db #0x63
	.db #0x21
	.db #0x1C
	.db #0x04
	.db #0x00
	.db #0x00
	.db #0x00
	.db #0x00
	.db #0x00
	.db #0x00
	.db #0x04
	.db #0x21
	.db #0x1C
	.db #0xFB
	.db #0xD6
	.db #0x63
	.db #0x04
	.db #0x00
	.db #0x00
	.db #0x00
	.db #0x00
	.db #0x00
	.db #0x00
	.db #0x04
	.db #0x04
	.db #0x41
	.db #0x42
	.db #0x62
	.db #0x42
	.db #0x6D
	.db #0x24
	.db #0x00
	.db #0x00
	.db #0x00
	.db #0x00
	.db #0x00
	.db #0x00
	.db #0x04
	.db #0x21
	.db #0x42
	.db #0x63
	.db #0xDA
	.db #0xDA
	.db #0x6D
	.db #0x24
	.db #0x00
	.db #0x00
	.db #0x00
	.db #0x00
	.db #0x00
	.db #0x04
	.db #0x6D
	.db #0xDA
	.db #0xDA
	.db #0xDA
	.db #0xDA
	.db #0xDA
	.db #0x49
	.db #0x00
	.db #0x00
	.db #0x00
	.db #0x00
	.db #0x00
	.db #0x00
	.db #0x49
	.db #0x91
	.db #0x92
	.db #0x6D
	.db #0x24
	.db #0xFC
	.db #0x24
	.db #0x00
	.db #0x00
	.db #0x00
	.db #0x00
	.db #0x00
	.db #0x00
	.db #0x24
	.db #0x04
	.db #0xFC
	.db #0x6D
	.db #0x91
	.db #0x24
	.db #0x00
	.db #0x00
	.db #0x00
	.db #0x00
	.db #0x00
	.db #0x00
	.db #0x00
	.db #0x00
	.db #0x04
	.db #0x49
	.db #0x24
	.db #0x00
	.db #0x00
	.db #0x00
	.db #0x00
	.db #0x00
	.db #0x00
	.db #0x00
	.db #0x00
	.db #0x00
	.db #0x00
	.db #0x00
	.db #0x00
	.db #0x00
	.db #0x00
	.db #0x00
	.db #0x00
	.db #0x00
	.db #0x00
	.db #0x00
	.db #0x00
	.db #0x00
	.db #0x6D
	.db #0x00
	.db #0x00
	.db #0x00
	.db #0x00
	.db #0x00
	.db #0x00
	.db #0x00
	.db #0x00
	.db #0x00
	.db #0x00
	.db #0x00
	.db #0x04
	.db #0x04
	.db #0x21
	.db #0x21
	.db #0x10
	.db #0x00
	.db #0x00
	.db #0x00
	.db #0x00
	.db #0x00
	.db #0x00
	.db #0x00
	.db #0x04
	.db #0x04
	.db #0x21
	.db #0x42
	.db #0xD6
	.db #0xB2
	.db #0x63
	.db #0x04
	.db #0x00
	.db #0x00
	.db #0x00
	.db #0x00
	.db #0x00
	.db #0x04
	.db #0x04
	.db #0x21
	.db #0x1C
	.db #0x04
	.db #0x62
	.db #0x42
	.db #0x49
	.db #0x6D
	.db #0x00
	.db #0x00
	.db #0x00
	.db #0x00
	.db #0x04
	.db #0x04
	.db #0x04
	.db #0x21
	.db #0x42
	.db #0x42
	.db #0x92
	.db #0xB6
	.db #0x92
	.db #0x6D
	.db #0x00
	.db #0x00
	.db #0x00
	.db #0x00
	.db #0x04
	.db #0x04
	.db #0x04
	.db #0x21
	.db #0x92
	.db #0xDA
	.db #0xB6
	.db #0x92
	.db #0xBC
	.db #0x6D
	.db #0x00
	.db #0x00
	.db #0x00
	.db #0x00
	.db #0x04
	.db #0x04
	.db #0x49
	.db #0xDA
	.db #0xDA
	.db #0xDA
	.db #0x24
	.db #0x49
	.db #0x24
	.db #0x00
	.db #0x00
	.db #0x00
	.db #0x00
	.db #0x00
	.db #0x00
	.db #0x04
	.db #0x49
	.db #0xDA
	.db #0xFC
	.db #0x6D
	.db #0x24
	.db #0x00
	.db #0x00
	.db #0x00
	.db #0x00
	.db #0x00
	.db #0x00
	.db #0x00
	.db #0x00
	.db #0x04
	.db #0xB6
	.db #0x49
	.db #0x24
	.db #0x00
	.db #0x00
	.db #0x00
	.db #0x00
	.db #0x00
	.db #0x00
	.db #0x00
	.db #0x00
	.db #0x00
	.db #0x00
	.db #0x00
	.db #0x24
	.db #0x00
	.db #0x00
	.db #0x00
	.db #0x00
	.db #0x00
	.db #0x00
	.db #0x00
	.db #0x00
	.db #0x00
	.db #0x00
	.db #0x00
	.db #0x00
	.db #0x00
	.db #0x00
	.db #0x00
	.db #0x00
	.db #0x00
	.db #0x00
	.db #0x00
	.db #0x00
	.db #0x00
	.db #0x00
	.db #0x00
	.db #0x00
	.db #0x00
	.db #0x00
	.db #0x00
	.db #0x00
	.db #0x00
	.db #0x00
	.db #0x00
	.db #0x6D
	.db #0x04
	.db #0x04
	.db #0x04
	.db #0x04
	.db #0x10
	.db #0x00
	.db #0x00
	.db #0x00
	.db #0x00
	.db #0x00
	.db #0x00
	.db #0x24
	.db #0x04
	.db #0x21
	.db #0x21
	.db #0x04
	.db #0xFB
	.db #0x21
	.db #0x21
	.db #0x24
	.db #0x24
	.db #0x00
	.db #0x00
	.db #0x00
	.db #0x00
	.db #0x04
	.db #0x42
	.db #0x63
	.db #0x04
	.db #0xD6
	.db #0x42
	.db #0x42
	.db #0x91
	.db #0x92
	.db #0xBC
	.db #0x49
	.db #0x00
	.db #0x00
	.db #0x04
	.db #0x21
	.db #0x42
	.db #0x04
	.db #0x1C
	.db #0x42
	.db #0x42
	.db #0xDA
	.db #0xB6
	.db #0x24
	.db #0x49
	.db #0x00
	.db #0x00
	.db #0x04
	.db #0x04
	.db #0x04
	.db #0x04
	.db #0x04
	.db #0x04
	.db #0xB6
	.db #0xDA
	.db #0xDA
	.db #0xFC
	.db #0x6D
	.db #0x00
	.db #0x00
	.db #0x04
	.db #0x04
	.db #0x04
	.db #0x04
	.db #0x49
	.db #0x6D
	.db #0xB6
	.db #0xDA
	.db #0xDA
	.db #0x91
	.db #0x6D
	.db #0x00
	.db #0x00
	.db #0x00
	.db #0x04
	.db #0x04
	.db #0x00
	.db #0x00
	.db #0x49
	.db #0x49
	.db #0x24
	.db #0x24
	.db #0x6D
	.db #0x49
	.db #0x00
	.db #0x00
	.db #0x00
	.db #0x00
	.db #0x00
	.db #0x00
	.db #0x00
	.db #0x00
	.db #0x00
	.db #0x04
	.db #0x04
	.db #0x00
	.db #0x00
	.db #0x00
	.db #0x00
	.db #0x00
	.db #0x00
	.db #0x00
	.db #0x00
	.db #0x00
	.db #0x00
	.db #0x00
	.db #0x00
	.db #0x00
	.db #0x00
	.db #0x00
	.db #0x00
_car2:
	.db #0x00
	.db #0x00
	.db #0x00
	.db #0x00
	.db #0x00
	.db #0x00
	.db #0x00
	.db #0x00
	.db #0x00
	.db #0x00
	.db #0x00
	.db #0x00
	.db #0x00
	.db #0x00
	.db #0x00
	.db #0x00
	.db #0x42
	.db #0xDC
	.db #0x63
	.db #0x00
	.db #0x00
	.db #0x00
	.db #0x00
	.db #0x00
	.db #0x00
	.db #0x00
	.db #0x00
	.db #0x14
	.db #0x42
	.db #0x42
	.db #0xB8
	.db #0x63
	.db #0xBC
	.db #0xB8
	.db #0x98
	.db #0x74
	.db #0xBC
	.db #0x50
	.db #0x00
	.db #0xB2
	.db #0x74
	.db #0x42
	.db #0x41
	.db #0xB8
	.db #0x62
	.db #0xB8
	.db #0x04
	.db #0x04
	.db #0x04
	.db #0x04
	.db #0x74
	.db #0x00
	.db #0x00
	.db #0x74
	.db #0x42
	.db #0x21
	.db #0x74
	.db #0x42
	.db #0xB8
	.db #0x49
	.db #0x49
	.db #0x24
	.db #0x24
	.db #0x04
	.db #0x00
	.db #0x00
	.db #0x98
	.db #0x42
	.db #0x21
	.db #0x50
	.db #0x21
	.db #0x74
	.db #0x24
	.db #0x24
	.db #0x24
	.db #0x24
	.db #0xBC
	.db #0x00
	.db #0x00
	.db #0x18
	.db #0xBC
	.db #0xB8
	.db #0x74
	.db #0x74
	.db #0x74
	.db #0x98
	.db #0xBC
	.db #0xB8
	.db #0xFC
	.db #0x74
	.db #0x00
	.db #0x00
	.db #0x98
	.db #0x24
	.db #0x24
	.db #0x50
	.db #0x74
	.db #0x74
	.db #0x50
	.db #0x24
	.db #0x24
	.db #0x74
	.db #0x50
	.db #0x00
	.db #0x00
	.db #0x00
	.db #0x04
	.db #0x04
	.db #0x00
	.db #0x00
	.db #0x00
	.db #0x00
	.db #0x04
	.db #0x04
	.db #0x00
	.db #0x00
	.db #0x00
	.db #0x00
	.db #0x00
	.db #0x00
	.db #0x00
	.db #0x00
	.db #0x00
	.db #0x00
	.db #0x00
	.db #0x00
	.db #0x00
	.db #0x00
	.db #0x00
	.db #0x00
	.db #0x00
	.db #0x00
	.db #0x00
	.db #0x00
	.db #0x00
	.db #0x00
	.db #0x00
	.db #0x00
	.db #0x00
	.db #0x00
	.db #0x00
	.db #0x00
	.db #0x00
	.db #0x00
	.db #0x00
	.db #0x00
	.db #0x00
	.db #0x00
	.db #0x00
	.db #0x00
	.db #0x00
	.db #0x00
	.db #0x00
	.db #0x00
	.db #0x00
	.db #0x00
	.db #0x00
	.db #0x00
	.db #0x00
	.db #0x00
	.db #0x00
	.db #0x00
	.db #0x00
	.db #0x50
	.db #0x74
	.db #0xBC
	.db #0x00
	.db #0x00
	.db #0x00
	.db #0x00
	.db #0x00
	.db #0x42
	.db #0x98
	.db #0x63
	.db #0x50
	.db #0x74
	.db #0x98
	.db #0x04
	.db #0x04
	.db #0x50
	.db #0x00
	.db #0x00
	.db #0x00
	.db #0x74
	.db #0x42
	.db #0xDC
	.db #0x63
	.db #0x62
	.db #0x74
	.db #0x04
	.db #0x24
	.db #0x24
	.db #0x04
	.db #0x00
	.db #0x00
	.db #0x14
	.db #0x42
	.db #0x41
	.db #0x21
	.db #0xB8
	.db #0x62
	.db #0xBC
	.db #0x49
	.db #0x24
	.db #0x74
	.db #0xBC
	.db #0x74
	.db #0x00
	.db #0xB2
	.db #0x74
	.db #0x42
	.db #0x21
	.db #0x98
	.db #0x21
	.db #0xB8
	.db #0xBC
	.db #0xBC
	.db #0x98
	.db #0xFC
	.db #0x50
	.db #0x00
	.db #0x24
	.db #0x74
	.db #0x42
	.db #0x98
	.db #0x74
	.db #0x98
	.db #0x98
	.db #0x74
	.db #0x04
	.db #0x50
	.db #0x74
	.db #0x00
	.db #0x00
	.db #0x00
	.db #0x1C
	.db #0xBC
	.db #0xB8
	.db #0x98
	.db #0x50
	.db #0x74
	.db #0x50
	.db #0x04
	.db #0x04
	.db #0x00
	.db #0x00
	.db #0x00
	.db #0x00
	.db #0x24
	.db #0x98
	.db #0x04
	.db #0x50
	.db #0x00
	.db #0x00
	.db #0x00
	.db #0x00
	.db #0x00
	.db #0x00
	.db #0x00
	.db #0x00
	.db #0x00
	.db #0x00
	.db #0x00
	.db #0x04
	.db #0x04
	.db #0x00
	.db #0x00
	.db #0x00
	.db #0x00
	.db #0x00
	.db #0x00
	.db #0x00
	.db #0x00
	.db #0x00
	.db #0x00
	.db #0x00
	.db #0x00
	.db #0x00
	.db #0x00
	.db #0x00
	.db #0x00
	.db #0x00
	.db #0x00
	.db #0x00
	.db #0x00
	.db #0x00
	.db #0x00
	.db #0x00
	.db #0x00
	.db #0x00
	.db #0x00
	.db #0x00
	.db #0x00
	.db #0xB8
	.db #0xBC
	.db #0x00
	.db #0x00
	.db #0x00
	.db #0x00
	.db #0x00
	.db #0x00
	.db #0x00
	.db #0x00
	.db #0x00
	.db #0x00
	.db #0xB8
	.db #0x04
	.db #0x04
	.db #0x24
	.db #0x00
	.db #0x00
	.db #0x00
	.db #0x00
	.db #0x00
	.db #0x00
	.db #0x00
	.db #0x00
	.db #0x74
	.db #0x04
	.db #0x04
	.db #0x49
	.db #0x24
	.db #0x50
	.db #0x00
	.db #0x00
	.db #0x00
	.db #0x00
	.db #0x00
	.db #0x98
	.db #0x41
	.db #0x63
	.db #0xDC
	.db #0x49
	.db #0x24
	.db #0x04
	.db #0x04
	.db #0xFC
	.db #0x00
	.db #0x00
	.db #0x00
	.db #0xB8
	.db #0x63
	.db #0xDC
	.db #0x62
	.db #0x62
	.db #0xBC
	.db #0x04
	.db #0x04
	.db #0xBC
	.db #0x98
	.db #0x00
	.db #0x00
	.db #0x50
	.db #0x63
	.db #0x42
	.db #0x42
	.db #0xBC
	.db #0x41
	.db #0xB8
	.db #0x74
	.db #0x98
	.db #0xBC
	.db #0x04
	.db #0x00
	.db #0x00
	.db #0x18
	.db #0x74
	.db #0x42
	.db #0x42
	.db #0x21
	.db #0x98
	.db #0x74
	.db #0x74
	.db #0x50
	.db #0x04
	.db #0x00
	.db #0x00
	.db #0x00
	.db #0xB2
	.db #0x74
	.db #0x98
	.db #0x41
	.db #0x74
	.db #0x74
	.db #0x74
	.db #0x00
	.db #0x00
	.db #0x00
	.db #0x00
	.db #0x00
	.db #0x00
	.db #0x00
	.db #0x00
	.db #0x1C
	.db #0x74
	.db #0xBC
	.db #0x98
	.db #0x04
	.db #0x00
	.db #0x00
	.db #0x00
	.db #0x00
	.db #0x00
	.db #0x00
	.db #0x00
	.db #0x00
	.db #0x00
	.db #0x74
	.db #0x74
	.db #0x04
	.db #0x00
	.db #0x00
	.db #0x00
	.db #0x00
	.db #0x00
	.db #0x00
	.db #0x00
	.db #0x00
	.db #0x00
	.db #0x00
	.db #0x00
	.db #0x00
	.db #0x00
	.db #0x00
	.db #0x00
	.db #0x00
	.db #0x00
	.db #0x00
	.db #0x00
	.db #0x00
	.db #0x00
	.db #0x00
	.db #0x00
	.db #0x00
	.db #0x00
	.db #0x74
	.db #0x04
	.db #0x00
	.db #0x00
	.db #0x00
	.db #0x00
	.db #0x00
	.db #0x00
	.db #0x00
	.db #0x00
	.db #0x00
	.db #0x00
	.db #0xB8
	.db #0x04
	.db #0x24
	.db #0x04
	.db #0x24
	.db #0x00
	.db #0x00
	.db #0x00
	.db #0x00
	.db #0x00
	.db #0x00
	.db #0x00
	.db #0xBC
	.db #0x04
	.db #0x24
	.db #0x24
	.db #0x04
	.db #0xBC
	.db #0x00
	.db #0x00
	.db #0x00
	.db #0x00
	.db #0x00
	.db #0x00
	.db #0x00
	.db #0x98
	.db #0x04
	.db #0x49
	.db #0x24
	.db #0x04
	.db #0xFC
	.db #0x98
	.db #0x00
	.db #0x00
	.db #0x00
	.db #0x00
	.db #0x00
	.db #0x74
	.db #0xDC
	.db #0xBC
	.db #0x24
	.db #0x04
	.db #0x98
	.db #0xBC
	.db #0x04
	.db #0x00
	.db #0x00
	.db #0x00
	.db #0x00
	.db #0x50
	.db #0x74
	.db #0x62
	.db #0x63
	.db #0xBC
	.db #0xB8
	.db #0x74
	.db #0x04
	.db #0x00
	.db #0x00
	.db #0x00
	.db #0x00
	.db #0x00
	.db #0x98
	.db #0x74
	.db #0xDC
	.db #0xBC
	.db #0x63
	.db #0x41
	.db #0x74
	.db #0x00
	.db #0x00
	.db #0x00
	.db #0x00
	.db #0x00
	.db #0x74
	.db #0xB8
	.db #0x42
	.db #0x42
	.db #0x42
	.db #0xB8
	.db #0x74
	.db #0x50
	.db #0x00
	.db #0x00
	.db #0x00
	.db #0x00
	.db #0x00
	.db #0x50
	.db #0x18
	.db #0x63
	.db #0x42
	.db #0x42
	.db #0x21
	.db #0x98
	.db #0x00
	.db #0x00
	.db #0x00
	.db #0x00
	.db #0x00
	.db #0x00
	.db #0x00
	.db #0xB2
	.db #0x74
	.db #0x98
	.db #0x42
	.db #0x74
	.db #0x04
	.db #0x00
	.db #0x00
	.db #0x00
	.db #0x00
	.db #0x00
	.db #0x00
	.db #0x00
	.db #0x00
	.db #0x00
	.db #0x74
	.db #0x74
	.db #0x18
	.db #0x00
	.db #0x00
	.db #0x00
	.db #0x00
	.db #0x00
	.db #0x00
	.db #0x00
	.db #0x00
	.db #0x00
	.db #0xBC
	.db #0x74
	.db #0x04
	.db #0x04
	.db #0x74
	.db #0xBC
	.db #0x00
	.db #0x00
	.db #0x00
	.db #0x00
	.db #0x00
	.db #0x00
	.db #0x98
	.db #0xB8
	.db #0x04
	.db #0x24
	.db #0x24
	.db #0x04
	.db #0xFC
	.db #0x98
	.db #0x00
	.db #0x00
	.db #0x00
	.db #0x00
	.db #0x00
	.db #0xBC
	.db #0xBC
	.db #0x04
	.db #0x49
	.db #0x24
	.db #0x04
	.db #0xBC
	.db #0xBC
	.db #0x00
	.db #0x00
	.db #0x00
	.db #0x00
	.db #0x00
	.db #0x04
	.db #0x98
	.db #0x04
	.db #0x49
	.db #0x24
	.db #0x04
	.db #0x98
	.db #0x04
	.db #0x00
	.db #0x00
	.db #0x00
	.db #0x00
	.db #0x00
	.db #0x00
	.db #0x74
	.db #0xDC
	.db #0xBC
	.db #0xBC
	.db #0xB8
	.db #0x74
	.db #0x00
	.db #0x00
	.db #0x00
	.db #0x00
	.db #0x00
	.db #0x00
	.db #0x00
	.db #0x74
	.db #0x62
	.db #0x63
	.db #0x63
	.db #0x41
	.db #0x74
	.db #0x00
	.db #0x00
	.db #0x00
	.db #0x00
	.db #0x00
	.db #0x00
	.db #0x98
	.db #0x74
	.db #0xDC
	.db #0xBC
	.db #0xBC
	.db #0xB8
	.db #0x74
	.db #0x98
	.db #0x00
	.db #0x00
	.db #0x00
	.db #0x00
	.db #0x00
	.db #0xBC
	.db #0x98
	.db #0x42
	.db #0x42
	.db #0x42
	.db #0x21
	.db #0x98
	.db #0xBC
	.db #0x00
	.db #0x00
	.db #0x00
	.db #0x00
	.db #0x00
	.db #0x04
	.db #0xB8
	.db #0x63
	.db #0x42
	.db #0x42
	.db #0x41
	.db #0x74
	.db #0x04
	.db #0x00
	.db #0x00
	.db #0x00
	.db #0x00
	.db #0x00
	.db #0x00
	.db #0x18
	.db #0x74
	.db #0x98
	.db #0x98
	.db #0x74
	.db #0x18
	.db #0x00
	.db #0x00
	.db #0x00
	.db #0x00
	.db #0x00
	.db #0x00
	.db #0x00
	.db #0x00
	.db #0xB2
	.db #0x00
	.db #0x00
	.db #0x00
	.db #0x00
	.db #0x00
	.db #0x00
	.db #0x00
	.db #0x00
	.db #0x00
	.db #0x00
	.db #0x00
	.db #0x00
	.db #0x04
	.db #0x74
	.db #0x00
	.db #0x00
	.db #0x00
	.db #0x00
	.db #0x00
	.db #0x00
	.db #0x00
	.db #0x00
	.db #0x00
	.db #0x00
	.db #0x04
	.db #0x24
	.db #0x04
	.db #0xB8
	.db #0x00
	.db #0x00
	.db #0x00
	.db #0x00
	.db #0x00
	.db #0x00
	.db #0x00
	.db #0x00
	.db #0xBC
	.db #0x04
	.db #0x24
	.db #0x24
	.db #0x04
	.db #0xBC
	.db #0x00
	.db #0x00
	.db #0x00
	.db #0x00
	.db #0x00
	.db #0x00
	.db #0x98
	.db #0xFC
	.db #0x04
	.db #0x24
	.db #0x49
	.db #0x04
	.db #0x98
	.db #0x00
	.db #0x00
	.db #0x00
	.db #0x00
	.db #0x00
	.db #0x00
	.db #0x74
	.db #0xBC
	.db #0x98
	.db #0x04
	.db #0x24
	.db #0xBC
	.db #0xDC
	.db #0x74
	.db #0x00
	.db #0x00
	.db #0x00
	.db #0x00
	.db #0x00
	.db #0x04
	.db #0x50
	.db #0x74
	.db #0xB8
	.db #0xBC
	.db #0x63
	.db #0x62
	.db #0x74
	.db #0x50
	.db #0x00
	.db #0x00
	.db #0x00
	.db #0x00
	.db #0x00
	.db #0x04
	.db #0x74
	.db #0x41
	.db #0x63
	.db #0xBC
	.db #0xDC
	.db #0x74
	.db #0x98
	.db #0x50
	.db #0x00
	.db #0x00
	.db #0x00
	.db #0x00
	.db #0x00
	.db #0x50
	.db #0x74
	.db #0xB8
	.db #0x42
	.db #0x42
	.db #0x42
	.db #0xB8
	.db #0x74
	.db #0x00
	.db #0x00
	.db #0x00
	.db #0x00
	.db #0x00
	.db #0x00
	.db #0x98
	.db #0x21
	.db #0x42
	.db #0x42
	.db #0x63
	.db #0x18
	.db #0x00
	.db #0x00
	.db #0x00
	.db #0x00
	.db #0x00
	.db #0x00
	.db #0x00
	.db #0x04
	.db #0x74
	.db #0x42
	.db #0x98
	.db #0x74
	.db #0x00
	.db #0x00
	.db #0x00
	.db #0x00
	.db #0x00
	.db #0x00
	.db #0x00
	.db #0x00
	.db #0x00
	.db #0x04
	.db #0x18
	.db #0xB2
	.db #0x00
	.db #0x00
	.db #0x00
	.db #0x00
	.db #0x00
	.db #0x00
	.db #0x00
	.db #0x00
	.db #0x00
	.db #0xBC
	.db #0xB8
	.db #0x00
	.db #0x00
	.db #0x00
	.db #0x00
	.db #0x00
	.db #0x00
	.db #0x00
	.db #0x00
	.db #0x00
	.db #0x00
	.db #0x24
	.db #0x04
	.db #0x04
	.db #0xB8
	.db #0x00
	.db #0x00
	.db #0x00
	.db #0x00
	.db #0x00
	.db #0x00
	.db #0x00
	.db #0x04
	.db #0x74
	.db #0x24
	.db #0x49
	.db #0x04
	.db #0x04
	.db #0x74
	.db #0x00
	.db #0x00
	.db #0x00
	.db #0x00
	.db #0x00
	.db #0x00
	.db #0xFC
	.db #0x04
	.db #0x04
	.db #0x24
	.db #0x49
	.db #0xDC
	.db #0x63
	.db #0x41
	.db #0x98
	.db #0x00
	.db #0x00
	.db #0x00
	.db #0x00
	.db #0x98
	.db #0xBC
	.db #0x04
	.db #0x04
	.db #0xBC
	.db #0x62
	.db #0x62
	.db #0xDC
	.db #0x63
	.db #0xB8
	.db #0x00
	.db #0x00
	.db #0x00
	.db #0x04
	.db #0xBC
	.db #0x98
	.db #0x74
	.db #0xB8
	.db #0x41
	.db #0xBC
	.db #0x42
	.db #0x42
	.db #0x63
	.db #0x50
	.db #0x00
	.db #0x00
	.db #0x00
	.db #0x04
	.db #0x50
	.db #0x74
	.db #0x74
	.db #0x98
	.db #0x21
	.db #0x42
	.db #0x42
	.db #0x74
	.db #0x18
	.db #0x00
	.db #0x00
	.db #0x00
	.db #0x00
	.db #0x00
	.db #0x00
	.db #0x74
	.db #0x74
	.db #0x74
	.db #0x41
	.db #0x98
	.db #0x74
	.db #0x00
	.db #0x00
	.db #0x00
	.db #0x00
	.db #0x00
	.db #0x00
	.db #0x00
	.db #0x00
	.db #0x98
	.db #0xBC
	.db #0x1C
	.db #0x98
	.db #0x00
	.db #0x00
	.db #0x00
	.db #0x00
	.db #0x00
	.db #0x00
	.db #0x00
	.db #0x00
	.db #0x00
	.db #0x04
	.db #0x04
	.db #0x74
	.db #0xB2
	.db #0x00
	.db #0x00
	.db #0x00
	.db #0x00
	.db #0x00
	.db #0x00
	.db #0x00
	.db #0x00
	.db #0x00
	.db #0x00
	.db #0x00
	.db #0x00
	.db #0x00
	.db #0x00
	.db #0x00
	.db #0x00
	.db #0x00
	.db #0x00
	.db #0x00
	.db #0x00
	.db #0x00
	.db #0x00
	.db #0x00
	.db #0x00
	.db #0x00
	.db #0x00
	.db #0x00
	.db #0x00
	.db #0x00
	.db #0x00
	.db #0x00
	.db #0xDC
	.db #0x74
	.db #0x50
	.db #0x00
	.db #0x00
	.db #0x00
	.db #0x00
	.db #0x00
	.db #0x00
	.db #0x00
	.db #0x00
	.db #0x00
	.db #0x74
	.db #0x04
	.db #0x04
	.db #0x98
	.db #0x74
	.db #0x50
	.db #0x63
	.db #0x98
	.db #0x42
	.db #0x00
	.db #0x00
	.db #0x00
	.db #0x00
	.db #0x04
	.db #0x24
	.db #0x24
	.db #0x04
	.db #0x74
	.db #0x62
	.db #0x63
	.db #0xDC
	.db #0x42
	.db #0x50
	.db #0x00
	.db #0x00
	.db #0x74
	.db #0xBC
	.db #0x74
	.db #0x24
	.db #0x49
	.db #0xBC
	.db #0x62
	.db #0xB8
	.db #0x21
	.db #0x41
	.db #0x42
	.db #0x14
	.db #0x00
	.db #0x50
	.db #0xFC
	.db #0x98
	.db #0xBC
	.db #0xBC
	.db #0xB8
	.db #0x21
	.db #0x98
	.db #0x21
	.db #0x42
	.db #0x74
	.db #0x00
	.db #0x00
	.db #0x00
	.db #0x74
	.db #0x04
	.db #0x50
	.db #0x74
	.db #0x98
	.db #0x98
	.db #0x74
	.db #0x98
	.db #0x42
	.db #0x74
	.db #0x00
	.db #0x00
	.db #0x00
	.db #0x00
	.db #0x04
	.db #0x04
	.db #0x50
	.db #0x74
	.db #0x50
	.db #0x98
	.db #0xB8
	.db #0xBC
	.db #0x1C
	.db #0xB2
	.db #0x00
	.db #0x00
	.db #0x00
	.db #0x00
	.db #0x00
	.db #0x00
	.db #0x00
	.db #0x00
	.db #0x04
	.db #0x50
	.db #0x98
	.db #0x50
	.db #0x00
	.db #0x00
	.db #0x00
	.db #0x00
	.db #0x00
	.db #0x00
	.db #0x00
	.db #0x00
	.db #0x00
	.db #0x04
	.db #0x04
	.db #0x00
	.db #0x00
	.db #0x00
	.db #0x00
	.db #0x00
	.db #0x00
	.db #0x00
	.db #0x00
	.db #0x00
	.db #0x00
	.db #0x00
	.db #0x00
	.db #0x00
	.db #0x00
	.db #0x00
	.db #0x00
	.db #0x00
	.db #0x00
	.db #0x00
	.db #0x00
	.db #0x00
	.db #0x00
	.db #0x00
	.db #0x00
	.db #0x00
	.db #0x00
	.db #0x00
	.db #0x00
	.db #0x00
	.db #0x00
	.db #0x00
	.db #0x00
	.db #0x00
	.db #0x00
	.db #0x00
	.db #0x00
	.db #0x00
	.db #0x63
	.db #0xDC
	.db #0x42
	.db #0x00
	.db #0x00
	.db #0x00
	.db #0x00
	.db #0x50
	.db #0xBC
	.db #0x74
	.db #0x98
	.db #0xB8
	.db #0xBC
	.db #0x63
	.db #0xB8
	.db #0x42
	.db #0x42
	.db #0x14
	.db #0x00
	.db #0x00
	.db #0x74
	.db #0x04
	.db #0x04
	.db #0x04
	.db #0x04
	.db #0xB8
	.db #0x62
	.db #0xB8
	.db #0x41
	.db #0x42
	.db #0x74
	.db #0x00
	.db #0x00
	.db #0x04
	.db #0x24
	.db #0x24
	.db #0x49
	.db #0x49
	.db #0xB8
	.db #0x42
	.db #0x74
	.db #0x21
	.db #0x42
	.db #0x74
	.db #0x00
	.db #0x00
	.db #0xBC
	.db #0x24
	.db #0x24
	.db #0x24
	.db #0x24
	.db #0x74
	.db #0x21
	.db #0x50
	.db #0x21
	.db #0x42
	.db #0x98
	.db #0x00
	.db #0x00
	.db #0x74
	.db #0xFC
	.db #0xB8
	.db #0xBC
	.db #0x98
	.db #0x74
	.db #0x74
	.db #0x74
	.db #0xB8
	.db #0xBC
	.db #0x18
	.db #0xB2
	.db #0x00
	.db #0x50
	.db #0x74
	.db #0x04
	.db #0x04
	.db #0x50
	.db #0x74
	.db #0x74
	.db #0x50
	.db #0x04
	.db #0x04
	.db #0x98
	.db #0x00
	.db #0x00
	.db #0x00
	.db #0x00
	.db #0x04
	.db #0x04
	.db #0x00
	.db #0x00
	.db #0x00
	.db #0x00
	.db #0x04
	.db #0x04
	.db #0x00
	.db #0x00
	.db #0x00
	.db #0x00
	.db #0x00
	.db #0x00
	.db #0x00
	.db #0x00
	.db #0x00
	.db #0x00
	.db #0x00
	.db #0x00
	.db #0x00
	.db #0x00
	.db #0x00
	.db #0x00
	.db #0x00
	.db #0x00
	.db #0x00
	.db #0x00
	.db #0x00
	.db #0x00
	.db #0x00
	.db #0x00
	.db #0x00
	.db #0x00
	.db #0x00
	.db #0x00
	.db #0x00
	.db #0x00
	.db #0x00
	.db #0x00
	.db #0x00
	.db #0x00
	.db #0x00
	.db #0x00
	.db #0x00
	.db #0x00
	.db #0x00
	.db #0x00
	.db #0x00
	.db #0x00
	.db #0x00
	.db #0x00
	.db #0x00
	.db #0x00
	.db #0x00
	.db #0x63
	.db #0x98
	.db #0x42
	.db #0x42
	.db #0x14
	.db #0x00
	.db #0x00
	.db #0x00
	.db #0x00
	.db #0x00
	.db #0x50
	.db #0xB8
	.db #0xBC
	.db #0x63
	.db #0xDC
	.db #0x42
	.db #0x42
	.db #0x74
	.db #0x00
	.db #0x00
	.db #0x00
	.db #0xBC
	.db #0x74
	.db #0x98
	.db #0x04
	.db #0xDC
	.db #0x62
	.db #0x62
	.db #0xB8
	.db #0x42
	.db #0x74
	.db #0x50
	.db #0x00
	.db #0x74
	.db #0x74
	.db #0x04
	.db #0x04
	.db #0x49
	.db #0x49
	.db #0xB8
	.db #0x42
	.db #0x98
	.db #0x21
	.db #0x42
	.db #0x98
	.db #0xB2
	.db #0x50
	.db #0x04
	.db #0x24
	.db #0x24
	.db #0x24
	.db #0x24
	.db #0xB8
	.db #0x21
	.db #0x74
	.db #0xB8
	.db #0xBC
	.db #0x18
	.db #0x00
	.db #0x00
	.db #0xBC
	.db #0x24
	.db #0x24
	.db #0xBC
	.db #0xBC
	.db #0xBC
	.db #0x98
	.db #0x98
	.db #0x74
	.db #0x04
	.db #0x50
	.db #0x00
	.db #0x00
	.db #0x74
	.db #0xFC
	.db #0xB8
	.db #0x04
	.db #0x50
	.db #0x74
	.db #0x74
	.db #0x50
	.db #0x04
	.db #0x04
	.db #0x00
	.db #0x00
	.db #0x00
	.db #0x00
	.db #0x50
	.db #0x74
	.db #0x04
	.db #0x04
	.db #0x00
	.db #0x00
	.db #0x00
	.db #0x00
	.db #0x00
	.db #0x00
	.db #0x00
	.db #0x00
	.db #0x00
	.db #0x00
	.db #0x00
	.db #0x00
	.db #0x00
	.db #0x00
	.db #0x00
	.db #0x00
	.db #0x00
	.db #0x00
	.db #0x00
	.db #0x00
	.db #0x00
	.db #0x00
	.db #0x00
	.db #0x00
	.db #0x00
	.db #0x00
	.db #0x00
	.db #0x00
	.db #0x00
	.db #0x00
	.db #0x00
	.db #0x00
	.db #0x00
	.db #0x00
	.db #0x00
	.db #0x00
	.db #0x00
	.db #0x00
	.db #0x00
	.db #0x50
	.db #0x14
	.db #0x74
	.db #0x00
	.db #0x00
	.db #0x00
	.db #0x00
	.db #0x00
	.db #0x00
	.db #0x00
	.db #0x00
	.db #0x00
	.db #0x74
	.db #0x42
	.db #0x42
	.db #0x42
	.db #0x74
	.db #0x00
	.db #0x00
	.db #0x00
	.db #0x00
	.db #0x00
	.db #0x00
	.db #0x00
	.db #0x63
	.db #0xB8
	.db #0xBC
	.db #0x74
	.db #0x42
	.db #0x21
	.db #0x98
	.db #0xB2
	.db #0x00
	.db #0x00
	.db #0x00
	.db #0x00
	.db #0x50
	.db #0x62
	.db #0x62
	.db #0x98
	.db #0xBC
	.db #0x74
	.db #0x21
	.db #0xBC
	.db #0x1C
	.db #0x00
	.db #0x00
	.db #0x00
	.db #0x74
	.db #0xB8
	.db #0xBC
	.db #0x62
	.db #0x42
	.db #0x74
	.db #0xB8
	.db #0xBC
	.db #0x04
	.db #0x00
	.db #0x00
	.db #0x00
	.db #0xB8
	.db #0xB8
	.db #0x04
	.db #0x49
	.db #0xBC
	.db #0x42
	.db #0x21
	.db #0x74
	.db #0x04
	.db #0x00
	.db #0x00
	.db #0x00
	.db #0x74
	.db #0xFC
	.db #0x04
	.db #0x24
	.db #0x49
	.db #0x24
	.db #0xBC
	.db #0xB8
	.db #0x74
	.db #0x00
	.db #0x00
	.db #0x00
	.db #0x00
	.db #0x50
	.db #0x04
	.db #0x24
	.db #0x24
	.db #0x24
	.db #0x98
	.db #0xBC
	.db #0x74
	.db #0x00
	.db #0x00
	.db #0x00
	.db #0x00
	.db #0x00
	.db #0x00
	.db #0x04
	.db #0x04
	.db #0x24
	.db #0xFC
	.db #0xBC
	.db #0x04
	.db #0x00
	.db #0x00
	.db #0x00
	.db #0x00
	.db #0x00
	.db #0x00
	.db #0x00
	.db #0x00
	.db #0x04
	.db #0x74
	.db #0x74
	.db #0x04
	.db #0x00
	.db #0x00
	.db #0x00
	.db #0x00
	.db #0x00
	.db #0x00
	.db #0x00
	.db #0x00
	.db #0x00
	.db #0x00
	.db #0x00
	.db #0x00
	.db #0x00
	.db #0x00
	.db #0x00
	.db #0x00
	.db #0x00
	.db #0x00
	.db #0x00
	.db #0x00
	.db #0x00
	.db #0x00
	.db #0x00
	.db #0x00
	.db #0x00
	.db #0x00
	.db #0x18
	.db #0x74
	.db #0x00
	.db #0x00
	.db #0x00
	.db #0x00
	.db #0x00
	.db #0x00
	.db #0x00
	.db #0x00
	.db #0x00
	.db #0x50
	.db #0x74
	.db #0x41
	.db #0x42
	.db #0x98
	.db #0x74
	.db #0x00
	.db #0x00
	.db #0x00
	.db #0x00
	.db #0x00
	.db #0x00
	.db #0x00
	.db #0xBC
	.db #0x98
	.db #0xB8
	.db #0x42
	.db #0x42
	.db #0x63
	.db #0x18
	.db #0x00
	.db #0x00
	.db #0x00
	.db #0x00
	.db #0x00
	.db #0x24
	.db #0x74
	.db #0xB8
	.db #0xBC
	.db #0xBC
	.db #0xBC
	.db #0xDC
	.db #0xB8
	.db #0x00
	.db #0x00
	.db #0x00
	.db #0x00
	.db #0x00
	.db #0x50
	.db #0x74
	.db #0x41
	.db #0x63
	.db #0xBC
	.db #0xDC
	.db #0x98
	.db #0xBC
	.db #0x00
	.db #0x00
	.db #0x00
	.db #0x00
	.db #0x00
	.db #0x98
	.db #0x74
	.db #0xB8
	.db #0x42
	.db #0x63
	.db #0x62
	.db #0x74
	.db #0x04
	.db #0x00
	.db #0x00
	.db #0x00
	.db #0x00
	.db #0xBC
	.db #0xBC
	.db #0x04
	.db #0x24
	.db #0xBC
	.db #0xDC
	.db #0x74
	.db #0x74
	.db #0x00
	.db #0x00
	.db #0x00
	.db #0x00
	.db #0x00
	.db #0x98
	.db #0xBC
	.db #0x04
	.db #0x24
	.db #0x49
	.db #0x04
	.db #0x50
	.db #0x00
	.db #0x00
	.db #0x00
	.db #0x00
	.db #0x00
	.db #0x50
	.db #0x98
	.db #0x04
	.db #0x24
	.db #0x24
	.db #0x49
	.db #0x04
	.db #0xBC
	.db #0x00
	.db #0x00
	.db #0x00
	.db #0x00
	.db #0x00
	.db #0x04
	.db #0x50
	.db #0x74
	.db #0x24
	.db #0x24
	.db #0x04
	.db #0xFC
	.db #0xBC
	.db #0x00
	.db #0x00
	.db #0x00
	.db #0x00
	.db #0x00
	.db #0x00
	.db #0x00
	.db #0x50
	.db #0x74
	.db #0x74
	.db #0x74
	.db #0xFC
	.db #0x04
	.db #0x00
	.db #0x00
	.db #0x00
	.db #0x00
	.db #0x00
	.db #0x00
	.db #0x00
	.db #0x14
	.db #0x74
	.db #0x98
	.db #0x74
	.db #0x74
	.db #0x14
	.db #0x00
	.db #0x00
	.db #0x00
	.db #0x00
	.db #0x00
	.db #0x00
	.db #0x00
	.db #0xB8
	.db #0x63
	.db #0x42
	.db #0x42
	.db #0x41
	.db #0x74
	.db #0x00
	.db #0x00
	.db #0x00
	.db #0x00
	.db #0x00
	.db #0x00
	.db #0xBC
	.db #0x98
	.db #0xDC
	.db #0xBC
	.db #0xBC
	.db #0xB8
	.db #0x74
	.db #0xBC
	.db #0x00
	.db #0x00
	.db #0x00
	.db #0x00
	.db #0x00
	.db #0x98
	.db #0x74
	.db #0xDC
	.db #0xBC
	.db #0xBC
	.db #0xB8
	.db #0x74
	.db #0x98
	.db #0x00
	.db #0x00
	.db #0x00
	.db #0x00
	.db #0x00
	.db #0x24
	.db #0x74
	.db #0x62
	.db #0x63
	.db #0x63
	.db #0x41
	.db #0x50
	.db #0x04
	.db #0x00
	.db #0x00
	.db #0x00
	.db #0x00
	.db #0x00
	.db #0x00
	.db #0x74
	.db #0xDC
	.db #0xBC
	.db #0xBC
	.db #0xB8
	.db #0x74
	.db #0x00
	.db #0x00
	.db #0x00
	.db #0x00
	.db #0x00
	.db #0x00
	.db #0x00
	.db #0x98
	.db #0x04
	.db #0x49
	.db #0x24
	.db #0x04
	.db #0x98
	.db #0x00
	.db #0x00
	.db #0x00
	.db #0x00
	.db #0x00
	.db #0x00
	.db #0xBC
	.db #0xBC
	.db #0x04
	.db #0x49
	.db #0x24
	.db #0x04
	.db #0xBC
	.db #0xBC
	.db #0x00
	.db #0x00
	.db #0x00
	.db #0x00
	.db #0x00
	.db #0x98
	.db #0xB8
	.db #0x04
	.db #0x24
	.db #0x24
	.db #0x04
	.db #0xBC
	.db #0x98
	.db #0x00
	.db #0x00
	.db #0x00
	.db #0x00
	.db #0x00
	.db #0x24
	.db #0xFC
	.db #0x74
	.db #0x24
	.db #0x24
	.db #0x74
	.db #0xFC
	.db #0x04
	.db #0x00
	.db #0x00
	.db #0x00
	.db #0x00
	.db #0x00
	.db #0x00
	.db #0x00
	.db #0x50
	.db #0x74
	.db #0x74
	.db #0x50
	.db #0x00
	.db #0x00
	.db #0x00
	.db #0x00
	.db #0x00
	.db #0x00
	.db #0x00
	.db #0x00
	.db #0x00
	.db #0x00
	.db #0x74
	.db #0x18
	.db #0x00
	.db #0x00
	.db #0x00
	.db #0x00
	.db #0x00
	.db #0x00
	.db #0x00
	.db #0x00
	.db #0x00
	.db #0x74
	.db #0x98
	.db #0x42
	.db #0x41
	.db #0x74
	.db #0x50
	.db #0x00
	.db #0x00
	.db #0x00
	.db #0x00
	.db #0x00
	.db #0x00
	.db #0x18
	.db #0x63
	.db #0x42
	.db #0x42
	.db #0xB8
	.db #0x98
	.db #0xBC
	.db #0x00
	.db #0x00
	.db #0x00
	.db #0x00
	.db #0x00
	.db #0x00
	.db #0xB8
	.db #0xDC
	.db #0xBC
	.db #0xBC
	.db #0xBC
	.db #0xB8
	.db #0x74
	.db #0x00
	.db #0x00
	.db #0x00
	.db #0x00
	.db #0x00
	.db #0x00
	.db #0x50
	.db #0x98
	.db #0xDC
	.db #0xBC
	.db #0x63
	.db #0x41
	.db #0x74
	.db #0x50
	.db #0x00
	.db #0x00
	.db #0x00
	.db #0x00
	.db #0x00
	.db #0x24
	.db #0xB8
	.db #0x62
	.db #0x63
	.db #0x42
	.db #0xB8
	.db #0x74
	.db #0x98
	.db #0x00
	.db #0x00
	.db #0x00
	.db #0x00
	.db #0x00
	.db #0x00
	.db #0x74
	.db #0x74
	.db #0xDC
	.db #0xBC
	.db #0x24
	.db #0x04
	.db #0xBC
	.db #0xBC
	.db #0x00
	.db #0x00
	.db #0x00
	.db #0x00
	.db #0x00
	.db #0x00
	.db #0x98
	.db #0x04
	.db #0x49
	.db #0x24
	.db #0x04
	.db #0x50
	.db #0x98
	.db #0x50
	.db #0x00
	.db #0x00
	.db #0x00
	.db #0x00
	.db #0x00
	.db #0xBC
	.db #0x04
	.db #0x49
	.db #0x24
	.db #0x24
	.db #0x04
	.db #0xFC
	.db #0x04
	.db #0x00
	.db #0x00
	.db #0x00
	.db #0x00
	.db #0x00
	.db #0x50
	.db #0xFC
	.db #0x04
	.db #0x24
	.db #0x24
	.db #0x74
	.db #0x50
	.db #0x00
	.db #0x00
	.db #0x00
	.db #0x00
	.db #0x00
	.db #0x00
	.db #0x24
	.db #0xB8
	.db #0x74
	.db #0x74
	.db #0x74
	.db #0x50
	.db #0x00
	.db #0x00
	.db #0x00
	.db #0x00
	.db #0x00
	.db #0x00
	.db #0x00
	.db #0xB2
	.db #0x14
	.db #0x00
	.db #0x00
	.db #0x00
	.db #0x00
	.db #0x00
	.db #0x00
	.db #0x00
	.db #0x00
	.db #0x00
	.db #0x00
	.db #0x74
	.db #0x42
	.db #0x42
	.db #0x42
	.db #0x74
	.db #0x00
	.db #0x00
	.db #0x00
	.db #0x00
	.db #0x00
	.db #0x00
	.db #0x00
	.db #0x98
	.db #0x21
	.db #0x42
	.db #0x74
	.db #0xBC
	.db #0xB8
	.db #0x63
	.db #0x00
	.db #0x00
	.db #0x00
	.db #0x00
	.db #0x00
	.db #0x1C
	.db #0xBC
	.db #0x21
	.db #0x74
	.db #0xBC
	.db #0x98
	.db #0x62
	.db #0x62
	.db #0x50
	.db #0x00
	.db #0x00
	.db #0x00
	.db #0x00
	.db #0x00
	.db #0x04
	.db #0xBC
	.db #0xB8
	.db #0x74
	.db #0x42
	.db #0x62
	.db #0xBC
	.db #0xB8
	.db #0x74
	.db #0x00
	.db #0x00
	.db #0x00
	.db #0x00
	.db #0x00
	.db #0x04
	.db #0x74
	.db #0x21
	.db #0x42
	.db #0xBC
	.db #0x49
	.db #0x04
	.db #0xB8
	.db #0x74
	.db #0x00
	.db #0x00
	.db #0x00
	.db #0x00
	.db #0x00
	.db #0x74
	.db #0xB8
	.db #0xBC
	.db #0x24
	.db #0x49
	.db #0x24
	.db #0x04
	.db #0xFC
	.db #0x50
	.db #0x00
	.db #0x00
	.db #0x00
	.db #0x00
	.db #0x00
	.db #0x74
	.db #0xBC
	.db #0x98
	.db #0x24
	.db #0x24
	.db #0x24
	.db #0x74
	.db #0x74
	.db #0x00
	.db #0x00
	.db #0x00
	.db #0x00
	.db #0x00
	.db #0x00
	.db #0x04
	.db #0xBC
	.db #0xFC
	.db #0x24
	.db #0x04
	.db #0x04
	.db #0x00
	.db #0x00
	.db #0x00
	.db #0x00
	.db #0x00
	.db #0x00
	.db #0x00
	.db #0x00
	.db #0x04
	.db #0x74
	.db #0x74
	.db #0x04
	.db #0x00
	.db #0x00
	.db #0x00
	.db #0x00
	.db #0x00
	.db #0x00
	.db #0x00
	.db #0x00
	.db #0x00
	.db #0x00
	.db #0x00
	.db #0x00
	.db #0x00
	.db #0x00
	.db #0x00
	.db #0x00
	.db #0x00
	.db #0x00
	.db #0x00
	.db #0x00
	.db #0x00
	.db #0x00
	.db #0x00
	.db #0x00
	.db #0x00
	.db #0x00
	.db #0x00
	.db #0x00
	.db #0x00
	.db #0x00
	.db #0x14
	.db #0x42
	.db #0x42
	.db #0x98
	.db #0x63
	.db #0x00
	.db #0x00
	.db #0x00
	.db #0x00
	.db #0x00
	.db #0x00
	.db #0x00
	.db #0xB2
	.db #0x74
	.db #0x42
	.db #0x42
	.db #0xDC
	.db #0x63
	.db #0xBC
	.db #0xB8
	.db #0x50
	.db #0x00
	.db #0x00
	.db #0x00
	.db #0x00
	.db #0x50
	.db #0x74
	.db #0x42
	.db #0xB8
	.db #0x62
	.db #0x62
	.db #0xDC
	.db #0x04
	.db #0x98
	.db #0x74
	.db #0xBC
	.db #0x00
	.db #0x00
	.db #0x98
	.db #0x42
	.db #0x21
	.db #0x98
	.db #0x42
	.db #0xB8
	.db #0x49
	.db #0x49
	.db #0x04
	.db #0x04
	.db #0x74
	.db #0x74
	.db #0x00
	.db #0x18
	.db #0xBC
	.db #0xB8
	.db #0x74
	.db #0x21
	.db #0xB8
	.db #0x24
	.db #0x24
	.db #0x24
	.db #0x24
	.db #0x04
	.db #0x50
	.db #0x00
	.db #0x50
	.db #0x04
	.db #0x74
	.db #0x98
	.db #0x98
	.db #0xBC
	.db #0xBC
	.db #0xBC
	.db #0x24
	.db #0x24
	.db #0xBC
	.db #0x00
	.db #0x00
	.db #0x00
	.db #0x04
	.db #0x04
	.db #0x50
	.db #0x74
	.db #0x74
	.db #0x04
	.db #0x74
	.db #0x98
	.db #0xFC
	.db #0x74
	.db #0x00
	.db #0x00
	.db #0x00
	.db #0x00
	.db #0x00
	.db #0x00
	.db #0x00
	.db #0x00
	.db #0x04
	.db #0x04
	.db #0xB8
	.db #0x50
	.db #0x00
	.db #0x00
	.db #0x00
	.db #0x00
	.db #0x00
	.db #0x00
	.db #0x00
	.db #0x00
	.db #0x00
	.db #0x00
	.db #0x00
	.db #0x00
	.db #0x00
	.db #0x00
	.db #0x00
	.db #0x00
	.db #0x00
	.db #0x00
	.db #0x00
	.db #0x00
	.db #0x00
	.db #0x00
	.db #0x00
	.db #0x00
	.db #0x00
	.db #0x00
	.db #0x00
	.db #0x00
_car3:
	.db #0x00
	.db #0x00
	.db #0x00
	.db #0x00
	.db #0x00
	.db #0x00
	.db #0x00
	.db #0x00
	.db #0x00
	.db #0x00
	.db #0x00
	.db #0x00
	.db #0x00
	.db #0x00
	.db #0x00
	.db #0x00
	.db #0x00
	.db #0x00
	.db #0x00
	.db #0x00
	.db #0x00
	.db #0x00
	.db #0x00
	.db #0x00
	.db #0x00
	.db #0x00
	.db #0x00
	.db #0x14
	.db #0x08
	.db #0x0C
	.db #0x65
	.db #0x14
	.db #0x14
	.db #0x65
	.db #0x10
	.db #0x10
	.db #0xB8
	.db #0x00
	.db #0x00
	.db #0x00
	.db #0x14
	.db #0x20
	.db #0x14
	.db #0xAE
	.db #0x1C
	.db #0x1C
	.db #0xAE
	.db #0x14
	.db #0x14
	.db #0x14
	.db #0x04
	.db #0x00
	.db #0x00
	.db #0x1C
	.db #0x20
	.db #0x1C
	.db #0x14
	.db #0x1C
	.db #0x1C
	.db #0xD2
	.db #0x14
	.db #0x18
	.db #0x1C
	.db #0x10
	.db #0x00
	.db #0x00
	.db #0x0C
	.db #0x14
	.db #0x14
	.db #0x14
	.db #0x14
	.db #0x1C
	.db #0x14
	.db #0x10
	.db #0x14
	.db #0x14
	.db #0x14
	.db #0x00
	.db #0x00
	.db #0x9C
	.db #0x18
	.db #0x1C
	.db #0x14
	.db #0x14
	.db #0x14
	.db #0x14
	.db #0x1C
	.db #0x18
	.db #0xFC
	.db #0x18
	.db #0x00
	.db #0x00
	.db #0x18
	.db #0x14
	.db #0x24
	.db #0x24
	.db #0x0C
	.db #0x10
	.db #0x0C
	.db #0x24
	.db #0x24
	.db #0x18
	.db #0x04
	.db #0x00
	.db #0x00
	.db #0x00
	.db #0x00
	.db #0x04
	.db #0x04
	.db #0x00
	.db #0x00
	.db #0x00
	.db #0x04
	.db #0x04
	.db #0x00
	.db #0x00
	.db #0x00
	.db #0x00
	.db #0x00
	.db #0x00
	.db #0x00
	.db #0x00
	.db #0x00
	.db #0x00
	.db #0x00
	.db #0x00
	.db #0x00
	.db #0x00
	.db #0x00
	.db #0x00
	.db #0x00
	.db #0x00
	.db #0x00
	.db #0x00
	.db #0x00
	.db #0x00
	.db #0x00
	.db #0x00
	.db #0x00
	.db #0x00
	.db #0x00
	.db #0x00
	.db #0x00
	.db #0x00
	.db #0x00
	.db #0x00
	.db #0x00
	.db #0x00
	.db #0x00
	.db #0x00
	.db #0x00
	.db #0x00
	.db #0x00
	.db #0x00
	.db #0x00
	.db #0x00
	.db #0x00
	.db #0x00
	.db #0x00
	.db #0x00
	.db #0x00
	.db #0x00
	.db #0x65
	.db #0x10
	.db #0x10
	.db #0xB8
	.db #0x04
	.db #0x00
	.db #0x00
	.db #0x00
	.db #0x00
	.db #0x00
	.db #0x65
	.db #0x14
	.db #0x14
	.db #0xAE
	.db #0x14
	.db #0x14
	.db #0x14
	.db #0x10
	.db #0x0C
	.db #0x00
	.db #0x00
	.db #0x08
	.db #0x14
	.db #0xAE
	.db #0x1C
	.db #0x1C
	.db #0xD2
	.db #0x14
	.db #0x18
	.db #0x1C
	.db #0x14
	.db #0x0C
	.db #0x00
	.db #0x00
	.db #0x14
	.db #0x20
	.db #0x1C
	.db #0x14
	.db #0x1C
	.db #0x1C
	.db #0x14
	.db #0x10
	.db #0x14
	.db #0xFC
	.db #0x18
	.db #0x00
	.db #0x00
	.db #0x1C
	.db #0x14
	.db #0x14
	.db #0x14
	.db #0x14
	.db #0x14
	.db #0x14
	.db #0x1C
	.db #0x18
	.db #0x18
	.db #0x04
	.db #0x00
	.db #0x00
	.db #0x0C
	.db #0x18
	.db #0x1C
	.db #0x14
	.db #0x14
	.db #0x10
	.db #0x0C
	.db #0x24
	.db #0x24
	.db #0x04
	.db #0x00
	.db #0x00
	.db #0x00
	.db #0x9C
	.db #0x14
	.db #0x24
	.db #0x24
	.db #0x0C
	.db #0x00
	.db #0x00
	.db #0x00
	.db #0x04
	.db #0x04
	.db #0x00
	.db #0x00
	.db #0x00
	.db #0x00
	.db #0x00
	.db #0x00
	.db #0x04
	.db #0x04
	.db #0x00
	.db #0x00
	.db #0x00
	.db #0x00
	.db #0x00
	.db #0x00
	.db #0x00
	.db #0x00
	.db #0x00
	.db #0x00
	.db #0x00
	.db #0x00
	.db #0x00
	.db #0x00
	.db #0x00
	.db #0x00
	.db #0x00
	.db #0x00
	.db #0x00
	.db #0x00
	.db #0x00
	.db #0x00
	.db #0x00
	.db #0x00
	.db #0x00
	.db #0x00
	.db #0x00
	.db #0x00
	.db #0x00
	.db #0x00
	.db #0x00
	.db #0x00
	.db #0x00
	.db #0x00
	.db #0x00
	.db #0x00
	.db #0x00
	.db #0x00
	.db #0x00
	.db #0x00
	.db #0x00
	.db #0x00
	.db #0x00
	.db #0x00
	.db #0x00
	.db #0x00
	.db #0x00
	.db #0x00
	.db #0x00
	.db #0x00
	.db #0x00
	.db #0x00
	.db #0x0C
	.db #0x10
	.db #0xB8
	.db #0x24
	.db #0x00
	.db #0x00
	.db #0x00
	.db #0x00
	.db #0x00
	.db #0x00
	.db #0x00
	.db #0x0C
	.db #0x8A
	.db #0x18
	.db #0x10
	.db #0x14
	.db #0x0C
	.db #0x0C
	.db #0x00
	.db #0x00
	.db #0x00
	.db #0x00
	.db #0x00
	.db #0x0C
	.db #0x10
	.db #0x14
	.db #0xB2
	.db #0x10
	.db #0x14
	.db #0x14
	.db #0x0C
	.db #0x00
	.db #0x00
	.db #0x00
	.db #0x00
	.db #0x08
	.db #0xB2
	.db #0x14
	.db #0x14
	.db #0x8A
	.db #0x14
	.db #0x18
	.db #0x14
	.db #0xBC
	.db #0x24
	.db #0x00
	.db #0x00
	.db #0x18
	.db #0x20
	.db #0x14
	.db #0xB2
	.db #0x10
	.db #0x10
	.db #0x14
	.db #0x1C
	.db #0x24
	.db #0x04
	.db #0x00
	.db #0x00
	.db #0x00
	.db #0x18
	.db #0x0C
	.db #0x20
	.db #0x1C
	.db #0x10
	.db #0x14
	.db #0x14
	.db #0x0C
	.db #0x04
	.db #0x04
	.db #0x00
	.db #0x00
	.db #0x00
	.db #0x00
	.db #0x18
	.db #0x0C
	.db #0x10
	.db #0x14
	.db #0x10
	.db #0x0C
	.db #0x00
	.db #0x00
	.db #0x00
	.db #0x00
	.db #0x00
	.db #0x00
	.db #0x00
	.db #0x9C
	.db #0x18
	.db #0x0C
	.db #0x24
	.db #0x04
	.db #0x00
	.db #0x00
	.db #0x00
	.db #0x00
	.db #0x00
	.db #0x00
	.db #0x00
	.db #0x00
	.db #0x00
	.db #0x00
	.db #0x04
	.db #0x04
	.db #0x00
	.db #0x00
	.db #0x00
	.db #0x00
	.db #0x00
	.db #0x00
	.db #0x00
	.db #0x00
	.db #0x00
	.db #0x00
	.db #0x00
	.db #0x00
	.db #0x00
	.db #0x00
	.db #0x00
	.db #0x00
	.db #0x00
	.db #0x00
	.db #0x00
	.db #0x00
	.db #0x00
	.db #0x00
	.db #0x00
	.db #0x00
	.db #0x98
	.db #0x10
	.db #0x0C
	.db #0x0C
	.db #0x00
	.db #0x00
	.db #0x00
	.db #0x00
	.db #0x00
	.db #0x00
	.db #0x00
	.db #0x00
	.db #0x10
	.db #0x18
	.db #0x14
	.db #0x14
	.db #0x14
	.db #0x0C
	.db #0x00
	.db #0x00
	.db #0x00
	.db #0x00
	.db #0x00
	.db #0x00
	.db #0x00
	.db #0x08
	.db #0x8A
	.db #0x14
	.db #0x14
	.db #0x18
	.db #0x10
	.db #0x98
	.db #0x00
	.db #0x00
	.db #0x00
	.db #0x00
	.db #0x00
	.db #0x08
	.db #0x0C
	.db #0x14
	.db #0xD6
	.db #0xB2
	.db #0x8A
	.db #0x1C
	.db #0x10
	.db #0x00
	.db #0x00
	.db #0x00
	.db #0x00
	.db #0x00
	.db #0x0C
	.db #0x10
	.db #0x14
	.db #0x18
	.db #0x1C
	.db #0x14
	.db #0x08
	.db #0x04
	.db #0x00
	.db #0x00
	.db #0x00
	.db #0x00
	.db #0x14
	.db #0x0C
	.db #0x14
	.db #0xB2
	.db #0x1C
	.db #0x14
	.db #0x14
	.db #0x08
	.db #0x04
	.db #0x00
	.db #0x00
	.db #0x00
	.db #0x00
	.db #0x04
	.db #0x10
	.db #0x14
	.db #0x10
	.db #0xB2
	.db #0x14
	.db #0x0C
	.db #0x00
	.db #0x00
	.db #0x00
	.db #0x00
	.db #0x00
	.db #0x00
	.db #0x04
	.db #0x10
	.db #0x20
	.db #0x10
	.db #0x0C
	.db #0x14
	.db #0x0C
	.db #0x14
	.db #0x00
	.db #0x00
	.db #0x00
	.db #0x00
	.db #0x00
	.db #0x00
	.db #0x18
	.db #0x1C
	.db #0x20
	.db #0x10
	.db #0x9C
	.db #0x14
	.db #0x04
	.db #0x00
	.db #0x00
	.db #0x00
	.db #0x00
	.db #0x00
	.db #0x00
	.db #0x00
	.db #0x00
	.db #0x1C
	.db #0x18
	.db #0x00
	.db #0x04
	.db #0x00
	.db #0x00
	.db #0x00
	.db #0x00
	.db #0x00
	.db #0x00
	.db #0x00
	.db #0x00
	.db #0x00
	.db #0x00
	.db #0x00
	.db #0x00
	.db #0x00
	.db #0x00
	.db #0x00
	.db #0x00
	.db #0x00
	.db #0x00
	.db #0x00
	.db #0x00
	.db #0x00
	.db #0x00
	.db #0x0C
	.db #0x0C
	.db #0x0C
	.db #0x0C
	.db #0x00
	.db #0x00
	.db #0x00
	.db #0x00
	.db #0x00
	.db #0x00
	.db #0x00
	.db #0x00
	.db #0x98
	.db #0x10
	.db #0x14
	.db #0x14
	.db #0x10
	.db #0x98
	.db #0x00
	.db #0x00
	.db #0x00
	.db #0x00
	.db #0x00
	.db #0x00
	.db #0x10
	.db #0x18
	.db #0x14
	.db #0x14
	.db #0x18
	.db #0x14
	.db #0x1C
	.db #0x10
	.db #0x00
	.db #0x00
	.db #0x00
	.db #0x00
	.db #0x00
	.db #0x0C
	.db #0x08
	.db #0x8A
	.db #0xD6
	.db #0xB2
	.db #0x8A
	.db #0x08
	.db #0x0C
	.db #0x00
	.db #0x00
	.db #0x00
	.db #0x00
	.db #0x00
	.db #0x04
	.db #0x08
	.db #0x14
	.db #0x18
	.db #0x1C
	.db #0x14
	.db #0x08
	.db #0x04
	.db #0x00
	.db #0x00
	.db #0x00
	.db #0x00
	.db #0x00
	.db #0x00
	.db #0x0C
	.db #0x14
	.db #0x18
	.db #0x1C
	.db #0x14
	.db #0x0C
	.db #0x00
	.db #0x00
	.db #0x00
	.db #0x00
	.db #0x00
	.db #0x00
	.db #0x14
	.db #0x0C
	.db #0x14
	.db #0xB2
	.db #0xB2
	.db #0x14
	.db #0x0C
	.db #0x14
	.db #0x00
	.db #0x00
	.db #0x00
	.db #0x00
	.db #0x00
	.db #0x14
	.db #0x10
	.db #0x14
	.db #0x10
	.db #0x0C
	.db #0x14
	.db #0x10
	.db #0x14
	.db #0x00
	.db #0x00
	.db #0x00
	.db #0x00
	.db #0x00
	.db #0x04
	.db #0x9C
	.db #0x10
	.db #0x20
	.db #0x20
	.db #0x10
	.db #0x9C
	.db #0x04
	.db #0x00
	.db #0x00
	.db #0x00
	.db #0x00
	.db #0x00
	.db #0x00
	.db #0x00
	.db #0x18
	.db #0x1C
	.db #0x1C
	.db #0x18
	.db #0x00
	.db #0x00
	.db #0x00
	.db #0x00
	.db #0x00
	.db #0x00
	.db #0x00
	.db #0x00
	.db #0x00
	.db #0x00
	.db #0x00
	.db #0x00
	.db #0x00
	.db #0x00
	.db #0x00
	.db #0x00
	.db #0x00
	.db #0x00
	.db #0x00
	.db #0x00
	.db #0x00
	.db #0x00
	.db #0x00
	.db #0x0C
	.db #0x0C
	.db #0x0C
	.db #0x24
	.db #0x00
	.db #0x00
	.db #0x00
	.db #0x00
	.db #0x00
	.db #0x00
	.db #0x00
	.db #0x24
	.db #0x0C
	.db #0x0C
	.db #0x14
	.db #0x10
	.db #0x98
	.db #0x00
	.db #0x00
	.db #0x00
	.db #0x00
	.db #0x00
	.db #0x00
	.db #0x00
	.db #0x98
	.db #0x10
	.db #0x14
	.db #0x18
	.db #0x14
	.db #0x1C
	.db #0x10
	.db #0x00
	.db #0x00
	.db #0x00
	.db #0x00
	.db #0x00
	.db #0x10
	.db #0x18
	.db #0x14
	.db #0x14
	.db #0xB2
	.db #0x8A
	.db #0x08
	.db #0x0C
	.db #0x00
	.db #0x00
	.db #0x00
	.db #0x00
	.db #0x00
	.db #0x00
	.db #0x0C
	.db #0x08
	.db #0x8A
	.db #0x18
	.db #0x1C
	.db #0x14
	.db #0x08
	.db #0x00
	.db #0x00
	.db #0x00
	.db #0x00
	.db #0x00
	.db #0x00
	.db #0x04
	.db #0x08
	.db #0x14
	.db #0x18
	.db #0x1C
	.db #0x14
	.db #0x0C
	.db #0x14
	.db #0x00
	.db #0x00
	.db #0x00
	.db #0x00
	.db #0x00
	.db #0x00
	.db #0x0C
	.db #0x14
	.db #0xB2
	.db #0xB2
	.db #0x14
	.db #0x0C
	.db #0x14
	.db #0x00
	.db #0x00
	.db #0x00
	.db #0x00
	.db #0x00
	.db #0x14
	.db #0x0C
	.db #0x14
	.db #0x10
	.db #0x0C
	.db #0x14
	.db #0x10
	.db #0x04
	.db #0x00
	.db #0x00
	.db #0x00
	.db #0x00
	.db #0x00
	.db #0x00
	.db #0x14
	.db #0x10
	.db #0x10
	.db #0x20
	.db #0x20
	.db #0x10
	.db #0x9C
	.db #0x00
	.db #0x00
	.db #0x00
	.db #0x00
	.db #0x00
	.db #0x00
	.db #0x04
	.db #0x9C
	.db #0x18
	.db #0x1C
	.db #0x1C
	.db #0x18
	.db #0x00
	.db #0x00
	.db #0x00
	.db #0x00
	.db #0x00
	.db #0x00
	.db #0x00
	.db #0x00
	.db #0x00
	.db #0x00
	.db #0x00
	.db #0x00
	.db #0x00
	.db #0x00
	.db #0x00
	.db #0x00
	.db #0x00
	.db #0x00
	.db #0x00
	.db #0x00
	.db #0x00
	.db #0x00
	.db #0x00
	.db #0x00
	.db #0x00
	.db #0x00
	.db #0x00
	.db #0x00
	.db #0x00
	.db #0x00
	.db #0x00
	.db #0x00
	.db #0x24
	.db #0xB8
	.db #0x10
	.db #0x0C
	.db #0x00
	.db #0x00
	.db #0x00
	.db #0x00
	.db #0x00
	.db #0x00
	.db #0x00
	.db #0x00
	.db #0x00
	.db #0x0C
	.db #0x14
	.db #0x10
	.db #0x18
	.db #0x8A
	.db #0x0C
	.db #0x00
	.db #0x00
	.db #0x00
	.db #0x00
	.db #0x00
	.db #0x00
	.db #0x0C
	.db #0x14
	.db #0x14
	.db #0x10
	.db #0xB2
	.db #0x14
	.db #0x10
	.db #0x0C
	.db #0x00
	.db #0x00
	.db #0x00
	.db #0x00
	.db #0x24
	.db #0xBC
	.db #0x14
	.db #0x18
	.db #0x14
	.db #0x8A
	.db #0x14
	.db #0x14
	.db #0xB2
	.db #0x08
	.db #0x00
	.db #0x00
	.db #0x00
	.db #0x00
	.db #0x24
	.db #0x24
	.db #0x1C
	.db #0x14
	.db #0x10
	.db #0x10
	.db #0xB2
	.db #0x14
	.db #0x20
	.db #0x18
	.db #0x00
	.db #0x00
	.db #0x00
	.db #0x04
	.db #0x04
	.db #0x0C
	.db #0x14
	.db #0x14
	.db #0x10
	.db #0x1C
	.db #0x20
	.db #0x0C
	.db #0x18
	.db #0x00
	.db #0x00
	.db #0x00
	.db #0x00
	.db #0x00
	.db #0x00
	.db #0x0C
	.db #0x10
	.db #0x14
	.db #0x10
	.db #0x0C
	.db #0x18
	.db #0x00
	.db #0x00
	.db #0x00
	.db #0x00
	.db #0x00
	.db #0x00
	.db #0x00
	.db #0x00
	.db #0x04
	.db #0x04
	.db #0x0C
	.db #0x18
	.db #0x9C
	.db #0x00
	.db #0x00
	.db #0x00
	.db #0x00
	.db #0x00
	.db #0x00
	.db #0x00
	.db #0x00
	.db #0x00
	.db #0x04
	.db #0x04
	.db #0x00
	.db #0x00
	.db #0x00
	.db #0x00
	.db #0x00
	.db #0x00
	.db #0x00
	.db #0x00
	.db #0x00
	.db #0x00
	.db #0x00
	.db #0x00
	.db #0x00
	.db #0x00
	.db #0x00
	.db #0x00
	.db #0x00
	.db #0x00
	.db #0x00
	.db #0x00
	.db #0x00
	.db #0x00
	.db #0x00
	.db #0x00
	.db #0x00
	.db #0x00
	.db #0x00
	.db #0x00
	.db #0x00
	.db #0x00
	.db #0x00
	.db #0x00
	.db #0x00
	.db #0x98
	.db #0x0C
	.db #0x00
	.db #0x00
	.db #0x00
	.db #0x00
	.db #0x00
	.db #0x00
	.db #0x00
	.db #0x00
	.db #0x00
	.db #0x00
	.db #0x04
	.db #0x14
	.db #0x10
	.db #0x10
	.db #0x65
	.db #0x10
	.db #0x0C
	.db #0x00
	.db #0x00
	.db #0x00
	.db #0x00
	.db #0x00
	.db #0x10
	.db #0x1C
	.db #0x18
	.db #0x14
	.db #0xAE
	.db #0x1C
	.db #0x1C
	.db #0x65
	.db #0x0C
	.db #0x08
	.db #0x14
	.db #0x00
	.db #0x00
	.db #0x14
	.db #0x14
	.db #0x14
	.db #0x14
	.db #0xD2
	.db #0x1C
	.db #0x1C
	.db #0xAE
	.db #0x14
	.db #0x20
	.db #0x14
	.db #0x00
	.db #0x00
	.db #0x18
	.db #0xFC
	.db #0x18
	.db #0x10
	.db #0x14
	.db #0x1C
	.db #0x14
	.db #0x14
	.db #0x1C
	.db #0x20
	.db #0x1C
	.db #0x00
	.db #0x00
	.db #0x04
	.db #0x18
	.db #0x24
	.db #0x1C
	.db #0x14
	.db #0x14
	.db #0x14
	.db #0x14
	.db #0x14
	.db #0x14
	.db #0x0C
	.db #0x00
	.db #0x00
	.db #0x00
	.db #0x04
	.db #0x04
	.db #0x0C
	.db #0x10
	.db #0x0C
	.db #0x24
	.db #0x1C
	.db #0x18
	.db #0x9C
	.db #0x00
	.db #0x00
	.db #0x00
	.db #0x00
	.db #0x00
	.db #0x00
	.db #0x00
	.db #0x00
	.db #0x00
	.db #0x04
	.db #0x24
	.db #0x14
	.db #0x18
	.db #0x00
	.db #0x00
	.db #0x00
	.db #0x00
	.db #0x00
	.db #0x00
	.db #0x00
	.db #0x00
	.db #0x00
	.db #0x00
	.db #0x04
	.db #0x00
	.db #0x00
	.db #0x00
	.db #0x00
	.db #0x00
	.db #0x00
	.db #0x00
	.db #0x00
	.db #0x00
	.db #0x00
	.db #0x00
	.db #0x00
	.db #0x00
	.db #0x00
	.db #0x00
	.db #0x00
	.db #0x00
	.db #0x00
	.db #0x00
	.db #0x00
	.db #0x00
	.db #0x00
	.db #0x00
	.db #0x00
	.db #0x00
	.db #0x00
	.db #0x00
	.db #0x00
	.db #0x00
	.db #0x00
	.db #0x00
	.db #0x00
	.db #0x00
	.db #0x00
	.db #0x00
	.db #0x00
	.db #0x00
	.db #0x00
	.db #0x00
	.db #0x00
	.db #0x00
	.db #0x00
	.db #0x00
	.db #0x00
	.db #0x00
	.db #0xB8
	.db #0x10
	.db #0x10
	.db #0x65
	.db #0x14
	.db #0x14
	.db #0x65
	.db #0x0C
	.db #0x08
	.db #0x14
	.db #0x00
	.db #0x00
	.db #0x04
	.db #0x14
	.db #0x14
	.db #0x14
	.db #0xAE
	.db #0x1C
	.db #0x1C
	.db #0xAE
	.db #0x14
	.db #0x20
	.db #0x14
	.db #0x00
	.db #0x00
	.db #0x10
	.db #0x1C
	.db #0x18
	.db #0x14
	.db #0xD2
	.db #0x1C
	.db #0x1C
	.db #0x14
	.db #0x1C
	.db #0x20
	.db #0x1C
	.db #0x00
	.db #0x00
	.db #0x14
	.db #0x14
	.db #0x14
	.db #0x10
	.db #0x14
	.db #0x1C
	.db #0x14
	.db #0x14
	.db #0x14
	.db #0x14
	.db #0x0C
	.db #0x00
	.db #0x00
	.db #0x18
	.db #0xFC
	.db #0x18
	.db #0x1C
	.db #0x14
	.db #0x14
	.db #0x14
	.db #0x14
	.db #0x1C
	.db #0x18
	.db #0x9C
	.db #0x00
	.db #0x00
	.db #0x04
	.db #0x18
	.db #0x24
	.db #0x24
	.db #0x0C
	.db #0x10
	.db #0x0C
	.db #0x24
	.db #0x24
	.db #0x14
	.db #0x18
	.db #0x00
	.db #0x00
	.db #0x00
	.db #0x00
	.db #0x04
	.db #0x04
	.db #0x00
	.db #0x00
	.db #0x00
	.db #0x04
	.db #0x04
	.db #0x00
	.db #0x00
	.db #0x00
	.db #0x00
	.db #0x00
	.db #0x00
	.db #0x00
	.db #0x00
	.db #0x00
	.db #0x00
	.db #0x00
	.db #0x00
	.db #0x00
	.db #0x00
	.db #0x00
	.db #0x00
	.db #0x00
	.db #0x00
	.db #0x00
	.db #0x00
	.db #0x00
	.db #0x00
	.db #0x00
	.db #0x00
	.db #0x00
	.db #0x00
	.db #0x00
	.db #0x00
	.db #0x00
	.db #0x00
	.db #0x00
	.db #0x00
	.db #0x00
	.db #0x00
	.db #0x00
	.db #0x00
	.db #0x00
	.db #0x00
	.db #0x00
	.db #0x00
	.db #0x00
	.db #0x00
	.db #0x00
	.db #0x00
	.db #0x00
	.db #0x00
	.db #0x00
	.db #0x00
	.db #0x00
	.db #0x08
	.db #0x08
	.db #0x14
	.db #0x5C
	.db #0x00
	.db #0x00
	.db #0x00
	.db #0x00
	.db #0x00
	.db #0x00
	.db #0x65
	.db #0x14
	.db #0x14
	.db #0x65
	.db #0x0C
	.db #0x20
	.db #0x14
	.db #0x00
	.db #0x00
	.db #0x00
	.db #0xB8
	.db #0x10
	.db #0x10
	.db #0xAE
	.db #0x1C
	.db #0x1C
	.db #0xAE
	.db #0x14
	.db #0x20
	.db #0x1C
	.db #0x0C
	.db #0x00
	.db #0x04
	.db #0x14
	.db #0x14
	.db #0x14
	.db #0xD2
	.db #0x1C
	.db #0x1C
	.db #0x14
	.db #0x1C
	.db #0x14
	.db #0x0C
	.db #0x0C
	.db #0x00
	.db #0x00
	.db #0x10
	.db #0x1C
	.db #0x18
	.db #0x10
	.db #0x14
	.db #0x1C
	.db #0x14
	.db #0x14
	.db #0x1C
	.db #0x18
	.db #0x9C
	.db #0x00
	.db #0x00
	.db #0x14
	.db #0x14
	.db #0x14
	.db #0x1C
	.db #0x14
	.db #0x14
	.db #0x14
	.db #0x04
	.db #0x24
	.db #0x14
	.db #0x18
	.db #0x00
	.db #0x00
	.db #0x18
	.db #0xFC
	.db #0x18
	.db #0x0C
	.db #0x0C
	.db #0x10
	.db #0x0C
	.db #0x04
	.db #0x04
	.db #0x00
	.db #0x00
	.db #0x00
	.db #0x00
	.db #0x04
	.db #0x18
	.db #0x24
	.db #0x04
	.db #0x0C
	.db #0x00
	.db #0x00
	.db #0x00
	.db #0x00
	.db #0x00
	.db #0x00
	.db #0x00
	.db #0x00
	.db #0x00
	.db #0x00
	.db #0x04
	.db #0x04
	.db #0x00
	.db #0x00
	.db #0x00
	.db #0x00
	.db #0x00
	.db #0x00
	.db #0x00
	.db #0x00
	.db #0x00
	.db #0x00
	.db #0x00
	.db #0x00
	.db #0x00
	.db #0x00
	.db #0x00
	.db #0x00
	.db #0x00
	.db #0x00
	.db #0x00
	.db #0x00
	.db #0x00
	.db #0x00
	.db #0x00
	.db #0x00
	.db #0x00
	.db #0x00
	.db #0x00
	.db #0x00
	.db #0x10
	.db #0x18
	.db #0x00
	.db #0x00
	.db #0x00
	.db #0x00
	.db #0x00
	.db #0x00
	.db #0x00
	.db #0x00
	.db #0x00
	.db #0x00
	.db #0x0C
	.db #0x14
	.db #0x0C
	.db #0x1C
	.db #0x00
	.db #0x00
	.db #0x00
	.db #0x00
	.db #0x00
	.db #0x00
	.db #0x00
	.db #0x0C
	.db #0x0C
	.db #0x14
	.db #0x20
	.db #0x0C
	.db #0x0C
	.db #0x18
	.db #0x00
	.db #0x00
	.db #0x00
	.db #0x00
	.db #0x00
	.db #0x0C
	.db #0x0C
	.db #0x14
	.db #0x18
	.db #0xB2
	.db #0x20
	.db #0x10
	.db #0x10
	.db #0x10
	.db #0x00
	.db #0x00
	.db #0x00
	.db #0x14
	.db #0x14
	.db #0x8A
	.db #0x18
	.db #0x18
	.db #0x1C
	.db #0x14
	.db #0x0C
	.db #0x14
	.db #0x10
	.db #0x00
	.db #0x00
	.db #0x00
	.db #0x18
	.db #0x14
	.db #0x18
	.db #0xD6
	.db #0x1C
	.db #0x14
	.db #0x0C
	.db #0x10
	.db #0x24
	.db #0x00
	.db #0x00
	.db #0x00
	.db #0xFC
	.db #0x10
	.db #0x14
	.db #0x18
	.db #0x1C
	.db #0x8A
	.db #0x0C
	.db #0x0C
	.db #0x24
	.db #0x04
	.db #0x00
	.db #0x00
	.db #0x00
	.db #0x04
	.db #0x10
	.db #0x14
	.db #0x18
	.db #0x14
	.db #0x1C
	.db #0x14
	.db #0x00
	.db #0x00
	.db #0x00
	.db #0x00
	.db #0x00
	.db #0x00
	.db #0x00
	.db #0x10
	.db #0x10
	.db #0x10
	.db #0x14
	.db #0x1C
	.db #0x14
	.db #0x00
	.db #0x00
	.db #0x00
	.db #0x00
	.db #0x00
	.db #0x00
	.db #0x00
	.db #0x00
	.db #0x0C
	.db #0x04
	.db #0xFC
	.db #0x24
	.db #0x00
	.db #0x00
	.db #0x00
	.db #0x00
	.db #0x00
	.db #0x00
	.db #0x00
	.db #0x00
	.db #0x00
	.db #0x00
	.db #0x00
	.db #0x04
	.db #0x04
	.db #0x00
	.db #0x00
	.db #0x00
	.db #0x00
	.db #0x00
	.db #0x00
	.db #0x00
	.db #0x00
	.db #0x00
	.db #0x00
	.db #0x10
	.db #0x18
	.db #0x1C
	.db #0x1C
	.db #0x18
	.db #0x00
	.db #0x00
	.db #0x00
	.db #0x00
	.db #0x00
	.db #0x00
	.db #0x00
	.db #0x14
	.db #0x0C
	.db #0x14
	.db #0x0C
	.db #0x0C
	.db #0x14
	.db #0x00
	.db #0x00
	.db #0x00
	.db #0x00
	.db #0x00
	.db #0x00
	.db #0x00
	.db #0x14
	.db #0x10
	.db #0x10
	.db #0x20
	.db #0x20
	.db #0x10
	.db #0x10
	.db #0x00
	.db #0x00
	.db #0x00
	.db #0x00
	.db #0x00
	.db #0x00
	.db #0x04
	.db #0x0C
	.db #0x14
	.db #0xB2
	.db #0xB2
	.db #0x14
	.db #0x0C
	.db #0x14
	.db #0x00
	.db #0x00
	.db #0x00
	.db #0x00
	.db #0x00
	.db #0x0C
	.db #0x14
	.db #0x18
	.db #0x1C
	.db #0x14
	.db #0x0C
	.db #0x14
	.db #0x04
	.db #0x00
	.db #0x00
	.db #0x00
	.db #0x00
	.db #0x0C
	.db #0x14
	.db #0x8A
	.db #0x18
	.db #0x1C
	.db #0x14
	.db #0x0C
	.db #0x04
	.db #0x00
	.db #0x00
	.db #0x00
	.db #0x00
	.db #0x00
	.db #0x14
	.db #0x18
	.db #0x14
	.db #0xD6
	.db #0xB2
	.db #0x8A
	.db #0x14
	.db #0x00
	.db #0x00
	.db #0x00
	.db #0x00
	.db #0x00
	.db #0x00
	.db #0x04
	.db #0x18
	.db #0x14
	.db #0x18
	.db #0x1C
	.db #0x14
	.db #0x1C
	.db #0x0C
	.db #0x00
	.db #0x00
	.db #0x00
	.db #0x00
	.db #0x00
	.db #0xFC
	.db #0x10
	.db #0x14
	.db #0x18
	.db #0x14
	.db #0x1C
	.db #0x04
	.db #0x00
	.db #0x00
	.db #0x00
	.db #0x00
	.db #0x00
	.db #0x00
	.db #0x04
	.db #0x0C
	.db #0x10
	.db #0x14
	.db #0x10
	.db #0xFC
	.db #0x04
	.db #0x00
	.db #0x00
	.db #0x00
	.db #0x00
	.db #0x00
	.db #0x00
	.db #0x00
	.db #0x00
	.db #0x00
	.db #0x10
	.db #0x0C
	.db #0x04
	.db #0x00
	.db #0x00
	.db #0x00
	.db #0x00
	.db #0x00
	.db #0x00
	.db #0x00
	.db #0x00
	.db #0x00
	.db #0x18
	.db #0x1C
	.db #0x1C
	.db #0x18
	.db #0x00
	.db #0x00
	.db #0x00
	.db #0x00
	.db #0x00
	.db #0x00
	.db #0x00
	.db #0x00
	.db #0x10
	.db #0x14
	.db #0x0C
	.db #0x0C
	.db #0x14
	.db #0x10
	.db #0x00
	.db #0x00
	.db #0x00
	.db #0x00
	.db #0x00
	.db #0x00
	.db #0x14
	.db #0x0C
	.db #0x10
	.db #0x20
	.db #0x20
	.db #0x10
	.db #0x0C
	.db #0x14
	.db #0x00
	.db #0x00
	.db #0x00
	.db #0x00
	.db #0x00
	.db #0x14
	.db #0x10
	.db #0x14
	.db #0xB2
	.db #0xB2
	.db #0x14
	.db #0x10
	.db #0x14
	.db #0x00
	.db #0x00
	.db #0x00
	.db #0x00
	.db #0x00
	.db #0x04
	.db #0x0C
	.db #0x14
	.db #0x18
	.db #0x1C
	.db #0x14
	.db #0x0C
	.db #0x04
	.db #0x00
	.db #0x00
	.db #0x00
	.db #0x00
	.db #0x00
	.db #0x00
	.db #0x0C
	.db #0x14
	.db #0x18
	.db #0x1C
	.db #0x14
	.db #0x0C
	.db #0x00
	.db #0x00
	.db #0x00
	.db #0x00
	.db #0x00
	.db #0x00
	.db #0x0C
	.db #0x14
	.db #0x8A
	.db #0xD6
	.db #0xB2
	.db #0x8A
	.db #0x14
	.db #0x0C
	.db #0x00
	.db #0x00
	.db #0x00
	.db #0x00
	.db #0x00
	.db #0x14
	.db #0x18
	.db #0x14
	.db #0x18
	.db #0x1C
	.db #0x14
	.db #0x1C
	.db #0x14
	.db #0x00
	.db #0x00
	.db #0x00
	.db #0x00
	.db #0x00
	.db #0x04
	.db #0x18
	.db #0x14
	.db #0x14
	.db #0x18
	.db #0x14
	.db #0x1C
	.db #0x04
	.db #0x00
	.db #0x00
	.db #0x00
	.db #0x00
	.db #0x00
	.db #0x00
	.db #0xFC
	.db #0x10
	.db #0x14
	.db #0x14
	.db #0x10
	.db #0xFC
	.db #0x00
	.db #0x00
	.db #0x00
	.db #0x00
	.db #0x00
	.db #0x00
	.db #0x00
	.db #0x04
	.db #0x0C
	.db #0x10
	.db #0x10
	.db #0x0C
	.db #0x04
	.db #0x00
	.db #0x00
	.db #0x00
	.db #0x00
	.db #0x00
	.db #0x00
	.db #0x00
	.db #0x00
	.db #0x18
	.db #0x1C
	.db #0x1C
	.db #0x18
	.db #0x10
	.db #0x00
	.db #0x00
	.db #0x00
	.db #0x00
	.db #0x00
	.db #0x00
	.db #0x00
	.db #0x00
	.db #0x14
	.db #0x0C
	.db #0x0C
	.db #0x14
	.db #0x0C
	.db #0x14
	.db #0x00
	.db #0x00
	.db #0x00
	.db #0x00
	.db #0x00
	.db #0x00
	.db #0x10
	.db #0x10
	.db #0x20
	.db #0x20
	.db #0x10
	.db #0x10
	.db #0x14
	.db #0x00
	.db #0x00
	.db #0x00
	.db #0x00
	.db #0x00
	.db #0x14
	.db #0x0C
	.db #0x14
	.db #0xB2
	.db #0xB2
	.db #0x14
	.db #0x0C
	.db #0x04
	.db #0x00
	.db #0x00
	.db #0x00
	.db #0x00
	.db #0x00
	.db #0x04
	.db #0x14
	.db #0x0C
	.db #0x14
	.db #0x1C
	.db #0x18
	.db #0x14
	.db #0x0C
	.db #0x00
	.db #0x00
	.db #0x00
	.db #0x00
	.db #0x00
	.db #0x00
	.db #0x04
	.db #0x0C
	.db #0x14
	.db #0x1C
	.db #0x18
	.db #0x8A
	.db #0x14
	.db #0x0C
	.db #0x00
	.db #0x00
	.db #0x00
	.db #0x00
	.db #0x00
	.db #0x00
	.db #0x14
	.db #0x8A
	.db #0xB2
	.db #0xD6
	.db #0x14
	.db #0x18
	.db #0x14
	.db #0x00
	.db #0x00
	.db #0x00
	.db #0x00
	.db #0x00
	.db #0x0C
	.db #0x1C
	.db #0x14
	.db #0x1C
	.db #0x18
	.db #0x14
	.db #0x18
	.db #0x04
	.db #0x00
	.db #0x00
	.db #0x00
	.db #0x00
	.db #0x00
	.db #0x00
	.db #0x24
	.db #0x1C
	.db #0x14
	.db #0x18
	.db #0x14
	.db #0x10
	.db #0xFC
	.db #0x00
	.db #0x00
	.db #0x00
	.db #0x00
	.db #0x00
	.db #0x00
	.db #0x04
	.db #0xFC
	.db #0x10
	.db #0x14
	.db #0x10
	.db #0x0C
	.db #0x04
	.db #0x00
	.db #0x00
	.db #0x00
	.db #0x00
	.db #0x00
	.db #0x00
	.db #0x00
	.db #0x04
	.db #0x0C
	.db #0x10
	.db #0x00
	.db #0x00
	.db #0x00
	.db #0x00
	.db #0x00
	.db #0x00
	.db #0x00
	.db #0x00
	.db #0x00
	.db #0x18
	.db #0x10
	.db #0x00
	.db #0x00
	.db #0x00
	.db #0x00
	.db #0x00
	.db #0x00
	.db #0x00
	.db #0x00
	.db #0x00
	.db #0x00
	.db #0x1C
	.db #0x0C
	.db #0x14
	.db #0x0C
	.db #0x00
	.db #0x00
	.db #0x00
	.db #0x00
	.db #0x00
	.db #0x00
	.db #0x00
	.db #0x00
	.db #0x18
	.db #0x0C
	.db #0x0C
	.db #0x20
	.db #0x14
	.db #0x0C
	.db #0x0C
	.db #0x00
	.db #0x00
	.db #0x00
	.db #0x00
	.db #0x00
	.db #0x10
	.db #0x10
	.db #0x10
	.db #0x20
	.db #0xB2
	.db #0x18
	.db #0x14
	.db #0x0C
	.db #0x0C
	.db #0x00
	.db #0x00
	.db #0x00
	.db #0x00
	.db #0x10
	.db #0x14
	.db #0x0C
	.db #0x14
	.db #0x1C
	.db #0x18
	.db #0x18
	.db #0x8A
	.db #0x14
	.db #0x14
	.db #0x00
	.db #0x00
	.db #0x00
	.db #0x00
	.db #0x24
	.db #0x10
	.db #0x0C
	.db #0x14
	.db #0x1C
	.db #0xD6
	.db #0x18
	.db #0x14
	.db #0x18
	.db #0x00
	.db #0x00
	.db #0x00
	.db #0x00
	.db #0x04
	.db #0x04
	.db #0x0C
	.db #0x0C
	.db #0x8A
	.db #0x1C
	.db #0x18
	.db #0x14
	.db #0x10
	.db #0xFC
	.db #0x00
	.db #0x00
	.db #0x00
	.db #0x00
	.db #0x00
	.db #0x00
	.db #0x14
	.db #0x1C
	.db #0x14
	.db #0x18
	.db #0x14
	.db #0x10
	.db #0x04
	.db #0x00
	.db #0x00
	.db #0x00
	.db #0x00
	.db #0x00
	.db #0x00
	.db #0x14
	.db #0x1C
	.db #0x14
	.db #0x10
	.db #0x10
	.db #0x10
	.db #0x00
	.db #0x00
	.db #0x00
	.db #0x00
	.db #0x00
	.db #0x00
	.db #0x00
	.db #0x00
	.db #0x24
	.db #0xFC
	.db #0x04
	.db #0x0C
	.db #0x00
	.db #0x00
	.db #0x00
	.db #0x00
	.db #0x00
	.db #0x00
	.db #0x00
	.db #0x00
	.db #0x00
	.db #0x04
	.db #0x04
	.db #0x00
	.db #0x00
	.db #0x00
	.db #0x00
	.db #0x00
	.db #0x00
	.db #0x00
	.db #0x00
	.db #0x00
	.db #0x00
	.db #0x00
	.db #0x00
	.db #0x00
	.db #0x00
	.db #0x00
	.db #0x00
	.db #0x00
	.db #0x00
	.db #0x00
	.db #0x00
	.db #0x14
	.db #0x08
	.db #0x0C
	.db #0x00
	.db #0x00
	.db #0x00
	.db #0x00
	.db #0x00
	.db #0x00
	.db #0x00
	.db #0x00
	.db #0x00
	.db #0x08
	.db #0x14
	.db #0x20
	.db #0x14
	.db #0x65
	.db #0x14
	.db #0x14
	.db #0x00
	.db #0x00
	.db #0x00
	.db #0x00
	.db #0x00
	.db #0x00
	.db #0x0C
	.db #0x1C
	.db #0x20
	.db #0x1C
	.db #0xAE
	.db #0x1C
	.db #0x1C
	.db #0x65
	.db #0x10
	.db #0x10
	.db #0xB8
	.db #0x00
	.db #0x00
	.db #0x0C
	.db #0x14
	.db #0x14
	.db #0x14
	.db #0x1C
	.db #0x1C
	.db #0xD2
	.db #0x14
	.db #0x14
	.db #0x14
	.db #0x04
	.db #0x00
	.db #0x00
	.db #0x9C
	.db #0x18
	.db #0x1C
	.db #0x14
	.db #0x14
	.db #0x1C
	.db #0x14
	.db #0x14
	.db #0x18
	.db #0x1C
	.db #0x10
	.db #0x00
	.db #0x00
	.db #0x18
	.db #0x14
	.db #0x24
	.db #0x24
	.db #0x14
	.db #0x14
	.db #0x14
	.db #0x10
	.db #0x14
	.db #0x14
	.db #0x14
	.db #0x00
	.db #0x00
	.db #0x00
	.db #0x00
	.db #0x04
	.db #0x04
	.db #0x0C
	.db #0x10
	.db #0x0C
	.db #0x1C
	.db #0x18
	.db #0xFC
	.db #0x18
	.db #0x00
	.db #0x00
	.db #0x00
	.db #0x00
	.db #0x00
	.db #0x00
	.db #0x00
	.db #0x00
	.db #0x04
	.db #0x24
	.db #0x18
	.db #0x04
	.db #0x00
	.db #0x00
	.db #0x00
	.db #0x00
	.db #0x00
	.db #0x00
	.db #0x00
	.db #0x00
	.db #0x00
	.db #0x04
	.db #0x04
	.db #0x00
	.db #0x00
	.db #0x00
	.db #0x00
	.db #0x00
	.db #0x00
	.db #0x00
	.db #0x00
	.db #0x00
	.db #0x00
	.db #0x00
	.db #0x00
	.db #0x00
	.db #0x00
	.db #0x00
	.db #0x00
	.db #0x00
_car4:
	.db #0x00
	.db #0x00
	.db #0x00
	.db #0x00
	.db #0x00
	.db #0x00
	.db #0x00
	.db #0x00
	.db #0x00
	.db #0x00
	.db #0x00
	.db #0x00
	.db #0x00
	.db #0x00
	.db #0x04
	.db #0x04
	.db #0x04
	.db #0x64
	.db #0x64
	.db #0x89
	.db #0x89
	.db #0x64
	.db #0x04
	.db #0x04
	.db #0x00
	.db #0x00
	.db #0x00
	.db #0x04
	.db #0x04
	.db #0x8D
	.db #0xD6
	.db #0xB1
	.db #0x21
	.db #0x21
	.db #0x8D
	.db #0x64
	.db #0x04
	.db #0x00
	.db #0x00
	.db #0x00
	.db #0x20
	.db #0x1C
	.db #0x8D
	.db #0xD6
	.db #0xB1
	.db #0x42
	.db #0x42
	.db #0x62
	.db #0xB1
	.db #0x44
	.db #0x00
	.db #0x00
	.db #0x00
	.db #0x40
	.db #0x64
	.db #0x44
	.db #0x64
	.db #0x44
	.db #0x21
	.db #0x21
	.db #0x42
	.db #0x8D
	.db #0xDC
	.db #0x00
	.db #0x00
	.db #0x00
	.db #0x40
	.db #0x44
	.db #0x44
	.db #0x64
	.db #0x21
	.db #0x21
	.db #0x21
	.db #0x89
	.db #0x89
	.db #0xBC
	.db #0x00
	.db #0x00
	.db #0x00
	.db #0x20
	.db #0x14
	.db #0x89
	.db #0x8D
	.db #0x8D
	.db #0x8D
	.db #0x89
	.db #0x89
	.db #0x64
	.db #0x44
	.db #0x00
	.db #0x00
	.db #0x00
	.db #0x04
	.db #0x04
	.db #0x64
	.db #0x89
	.db #0xB1
	.db #0x8D
	.db #0x89
	.db #0x64
	.db #0x44
	.db #0x04
	.db #0x00
	.db #0x00
	.db #0x00
	.db #0x24
	.db #0x04
	.db #0x04
	.db #0x44
	.db #0x64
	.db #0x64
	.db #0x44
	.db #0x04
	.db #0x04
	.db #0x24
	.db #0x00
	.db #0x00
	.db #0x00
	.db #0x04
	.db #0x04
	.db #0x04
	.db #0x00
	.db #0x00
	.db #0x00
	.db #0x00
	.db #0x04
	.db #0x04
	.db #0x04
	.db #0x00
	.db #0x00
	.db #0x00
	.db #0x00
	.db #0x00
	.db #0x00
	.db #0x00
	.db #0x00
	.db #0x00
	.db #0x00
	.db #0x00
	.db #0x00
	.db #0x00
	.db #0x00
	.db #0x00
	.db #0x00
	.db #0x00
	.db #0x00
	.db #0x00
	.db #0x00
	.db #0x00
	.db #0x00
	.db #0x04
	.db #0x04
	.db #0x04
	.db #0x00
	.db #0x00
	.db #0x00
	.db #0x00
	.db #0x00
	.db #0x00
	.db #0x00
	.db #0x00
	.db #0x40
	.db #0x44
	.db #0x89
	.db #0x64
	.db #0x44
	.db #0x00
	.db #0x00
	.db #0x00
	.db #0x00
	.db #0x00
	.db #0x00
	.db #0x40
	.db #0x64
	.db #0x64
	.db #0x89
	.db #0x21
	.db #0x8D
	.db #0x9C
	.db #0x44
	.db #0x00
	.db #0x00
	.db #0x00
	.db #0x04
	.db #0x04
	.db #0x64
	.db #0xB1
	.db #0x21
	.db #0x21
	.db #0x42
	.db #0x62
	.db #0xB1
	.db #0xDC
	.db #0x44
	.db #0x00
	.db #0x00
	.db #0x04
	.db #0x04
	.db #0x8D
	.db #0xD6
	.db #0xB1
	.db #0x42
	.db #0x21
	.db #0x42
	.db #0x8D
	.db #0x8D
	.db #0x64
	.db #0x00
	.db #0x00
	.db #0x00
	.db #0x1C
	.db #0x8D
	.db #0xB1
	.db #0x64
	.db #0x44
	.db #0x21
	.db #0x21
	.db #0x89
	.db #0x89
	.db #0x44
	.db #0x00
	.db #0x00
	.db #0x00
	.db #0x40
	.db #0x64
	.db #0x44
	.db #0x64
	.db #0x21
	.db #0x8D
	.db #0x89
	.db #0x89
	.db #0x64
	.db #0x04
	.db #0x00
	.db #0x00
	.db #0x00
	.db #0x40
	.db #0x44
	.db #0x89
	.db #0x8D
	.db #0x8D
	.db #0x8D
	.db #0x89
	.db #0x04
	.db #0x04
	.db #0x24
	.db #0x00
	.db #0x00
	.db #0x00
	.db #0x20
	.db #0x14
	.db #0x64
	.db #0x89
	.db #0xB1
	.db #0x64
	.db #0x44
	.db #0x04
	.db #0x04
	.db #0x04
	.db #0x00
	.db #0x00
	.db #0x00
	.db #0x00
	.db #0x04
	.db #0x04
	.db #0x04
	.db #0x44
	.db #0x00
	.db #0x00
	.db #0x00
	.db #0x00
	.db #0x00
	.db #0x00
	.db #0x00
	.db #0x00
	.db #0x00
	.db #0x24
	.db #0x04
	.db #0x04
	.db #0x00
	.db #0x00
	.db #0x00
	.db #0x00
	.db #0x00
	.db #0x00
	.db #0x00
	.db #0x00
	.db #0x00
	.db #0x00
	.db #0x00
	.db #0x00
	.db #0x00
	.db #0x04
	.db #0x04
	.db #0x04
	.db #0x00
	.db #0x00
	.db #0x00
	.db #0x00
	.db #0x00
	.db #0x00
	.db #0x00
	.db #0x00
	.db #0x00
	.db #0x04
	.db #0x44
	.db #0x64
	.db #0x44
	.db #0xDC
	.db #0x00
	.db #0x00
	.db #0x00
	.db #0x00
	.db #0x00
	.db #0x00
	.db #0x00
	.db #0x64
	.db #0x89
	.db #0xB1
	.db #0x8D
	.db #0x8D
	.db #0x89
	.db #0xBC
	.db #0x00
	.db #0x00
	.db #0x00
	.db #0x00
	.db #0x24
	.db #0x44
	.db #0x64
	.db #0x89
	.db #0x21
	.db #0x62
	.db #0x89
	.db #0x89
	.db #0x44
	.db #0x44
	.db #0x00
	.db #0x00
	.db #0x24
	.db #0x04
	.db #0x64
	.db #0x89
	.db #0x8D
	.db #0xD6
	.db #0x42
	.db #0x62
	.db #0x89
	.db #0x64
	.db #0x24
	.db #0x24
	.db #0x00
	.db #0x04
	.db #0x04
	.db #0x64
	.db #0x8D
	.db #0xD6
	.db #0xD6
	.db #0x21
	.db #0x21
	.db #0x89
	.db #0x04
	.db #0x04
	.db #0x04
	.db #0x00
	.db #0x00
	.db #0x04
	.db #0x1C
	.db #0x44
	.db #0x8D
	.db #0x44
	.db #0x44
	.db #0x21
	.db #0x89
	.db #0x04
	.db #0x04
	.db #0x04
	.db #0x00
	.db #0x00
	.db #0x00
	.db #0x40
	.db #0x64
	.db #0x44
	.db #0x44
	.db #0x64
	.db #0x89
	.db #0x64
	.db #0x00
	.db #0x04
	.db #0x00
	.db #0x00
	.db #0x00
	.db #0x00
	.db #0x00
	.db #0x40
	.db #0x44
	.db #0x14
	.db #0x04
	.db #0x04
	.db #0x00
	.db #0x00
	.db #0x00
	.db #0x00
	.db #0x00
	.db #0x00
	.db #0x00
	.db #0x00
	.db #0x00
	.db #0x20
	.db #0x24
	.db #0x04
	.db #0x04
	.db #0x00
	.db #0x00
	.db #0x00
	.db #0x00
	.db #0x00
	.db #0x00
	.db #0x00
	.db #0x00
	.db #0x00
	.db #0x00
	.db #0x04
	.db #0x04
	.db #0x04
	.db #0x00
	.db #0x00
	.db #0x00
	.db #0x00
	.db #0x00
	.db #0x00
	.db #0x00
	.db #0x24
	.db #0x04
	.db #0x04
	.db #0x44
	.db #0x00
	.db #0x00
	.db #0x00
	.db #0x00
	.db #0x00
	.db #0x00
	.db #0x00
	.db #0x00
	.db #0x00
	.db #0x04
	.db #0x44
	.db #0x64
	.db #0x89
	.db #0xDC
	.db #0xBC
	.db #0x44
	.db #0x24
	.db #0x00
	.db #0x00
	.db #0x00
	.db #0x00
	.db #0x00
	.db #0x44
	.db #0x89
	.db #0xB1
	.db #0x8D
	.db #0x89
	.db #0x64
	.db #0x44
	.db #0x04
	.db #0x04
	.db #0x00
	.db #0x00
	.db #0x00
	.db #0x00
	.db #0x89
	.db #0x8D
	.db #0x21
	.db #0x62
	.db #0x42
	.db #0x89
	.db #0x89
	.db #0x04
	.db #0x04
	.db #0x04
	.db #0x00
	.db #0x00
	.db #0x44
	.db #0x64
	.db #0x64
	.db #0x89
	.db #0xB1
	.db #0x21
	.db #0x21
	.db #0x89
	.db #0x64
	.db #0x04
	.db #0x00
	.db #0x00
	.db #0x00
	.db #0x40
	.db #0x44
	.db #0x89
	.db #0x89
	.db #0xB1
	.db #0x8D
	.db #0x21
	.db #0xB1
	.db #0x64
	.db #0x00
	.db #0x00
	.db #0x00
	.db #0x00
	.db #0x24
	.db #0x44
	.db #0x64
	.db #0x64
	.db #0xD6
	.db #0xB2
	.db #0x64
	.db #0x89
	.db #0x44
	.db #0x00
	.db #0x00
	.db #0x00
	.db #0x00
	.db #0x04
	.db #0x20
	.db #0x1C
	.db #0x64
	.db #0x89
	.db #0x44
	.db #0x44
	.db #0x04
	.db #0x04
	.db #0x00
	.db #0x00
	.db #0x00
	.db #0x00
	.db #0x04
	.db #0x04
	.db #0x20
	.db #0x40
	.db #0x44
	.db #0x14
	.db #0x24
	.db #0x04
	.db #0x04
	.db #0x00
	.db #0x00
	.db #0x00
	.db #0x00
	.db #0x00
	.db #0x00
	.db #0x00
	.db #0x00
	.db #0x40
	.db #0x20
	.db #0x04
	.db #0x04
	.db #0x04
	.db #0x00
	.db #0x00
	.db #0x00
	.db #0x00
	.db #0x00
	.db #0x00
	.db #0x00
	.db #0x00
	.db #0x00
	.db #0x00
	.db #0x24
	.db #0x24
	.db #0x00
	.db #0x00
	.db #0x00
	.db #0x00
	.db #0x00
	.db #0x00
	.db #0x00
	.db #0x00
	.db #0x00
	.db #0x00
	.db #0x00
	.db #0x00
	.db #0x00
	.db #0x00
	.db #0x00
	.db #0x00
	.db #0x00
	.db #0x24
	.db #0x04
	.db #0x04
	.db #0x44
	.db #0xDC
	.db #0xBC
	.db #0x44
	.db #0x24
	.db #0x24
	.db #0x04
	.db #0x00
	.db #0x00
	.db #0x00
	.db #0x04
	.db #0x04
	.db #0x64
	.db #0xB1
	.db #0x8D
	.db #0x89
	.db #0x64
	.db #0x44
	.db #0x04
	.db #0x04
	.db #0x00
	.db #0x00
	.db #0x00
	.db #0x04
	.db #0x64
	.db #0xB1
	.db #0x8D
	.db #0x62
	.db #0x42
	.db #0x89
	.db #0x89
	.db #0x44
	.db #0x04
	.db #0x00
	.db #0x00
	.db #0x00
	.db #0x00
	.db #0x89
	.db #0x8D
	.db #0x21
	.db #0x42
	.db #0x21
	.db #0x21
	.db #0x89
	.db #0x64
	.db #0x00
	.db #0x00
	.db #0x00
	.db #0x00
	.db #0x00
	.db #0x64
	.db #0x89
	.db #0x21
	.db #0xB1
	.db #0x8D
	.db #0x21
	.db #0xB1
	.db #0x64
	.db #0x00
	.db #0x00
	.db #0x00
	.db #0x00
	.db #0x00
	.db #0x64
	.db #0x89
	.db #0x64
	.db #0xD6
	.db #0xB2
	.db #0x64
	.db #0x89
	.db #0x64
	.db #0x00
	.db #0x00
	.db #0x00
	.db #0x00
	.db #0x24
	.db #0x04
	.db #0x64
	.db #0x44
	.db #0x8D
	.db #0x89
	.db #0x44
	.db #0x64
	.db #0x04
	.db #0x04
	.db #0x00
	.db #0x00
	.db #0x00
	.db #0x24
	.db #0x04
	.db #0x04
	.db #0x1C
	.db #0x64
	.db #0x44
	.db #0x14
	.db #0x24
	.db #0x04
	.db #0x04
	.db #0x00
	.db #0x00
	.db #0x00
	.db #0x04
	.db #0x04
	.db #0x04
	.db #0x20
	.db #0x40
	.db #0x40
	.db #0x20
	.db #0x04
	.db #0x04
	.db #0x04
	.db #0x00
	.db #0x00
	.db #0x00
	.db #0x00
	.db #0x00
	.db #0x00
	.db #0x00
	.db #0x00
	.db #0x00
	.db #0x00
	.db #0x00
	.db #0x00
	.db #0x00
	.db #0x00
	.db #0x00
	.db #0x00
	.db #0x00
	.db #0x00
	.db #0x00
	.db #0x00
	.db #0x00
	.db #0x44
	.db #0x04
	.db #0x04
	.db #0x24
	.db #0x00
	.db #0x00
	.db #0x00
	.db #0x00
	.db #0x00
	.db #0x24
	.db #0x44
	.db #0xBC
	.db #0xDC
	.db #0x89
	.db #0x64
	.db #0x44
	.db #0x04
	.db #0x00
	.db #0x00
	.db #0x00
	.db #0x00
	.db #0x04
	.db #0x04
	.db #0x44
	.db #0x64
	.db #0x89
	.db #0x8D
	.db #0xB1
	.db #0x89
	.db #0x44
	.db #0x00
	.db #0x00
	.db #0x00
	.db #0x04
	.db #0x04
	.db #0x04
	.db #0x89
	.db #0x89
	.db #0x42
	.db #0x62
	.db #0x21
	.db #0x8D
	.db #0x89
	.db #0x00
	.db #0x00
	.db #0x00
	.db #0x00
	.db #0x04
	.db #0x64
	.db #0x89
	.db #0x21
	.db #0x21
	.db #0xB1
	.db #0x89
	.db #0x64
	.db #0x64
	.db #0x44
	.db #0x00
	.db #0x00
	.db #0x00
	.db #0x00
	.db #0x64
	.db #0xB1
	.db #0x21
	.db #0x8D
	.db #0xB1
	.db #0x89
	.db #0x89
	.db #0x44
	.db #0x40
	.db #0x00
	.db #0x00
	.db #0x00
	.db #0x00
	.db #0x44
	.db #0x89
	.db #0x64
	.db #0xB2
	.db #0xD6
	.db #0x64
	.db #0x64
	.db #0x44
	.db #0x24
	.db #0x00
	.db #0x00
	.db #0x00
	.db #0x00
	.db #0x04
	.db #0x04
	.db #0x44
	.db #0x44
	.db #0x89
	.db #0x64
	.db #0x1C
	.db #0x20
	.db #0x04
	.db #0x00
	.db #0x00
	.db #0x00
	.db #0x00
	.db #0x04
	.db #0x04
	.db #0x24
	.db #0x14
	.db #0x44
	.db #0x40
	.db #0x20
	.db #0x04
	.db #0x04
	.db #0x00
	.db #0x00
	.db #0x00
	.db #0x00
	.db #0x04
	.db #0x04
	.db #0x04
	.db #0x20
	.db #0x40
	.db #0x00
	.db #0x00
	.db #0x00
	.db #0x00
	.db #0x00
	.db #0x00
	.db #0x00
	.db #0x00
	.db #0x00
	.db #0x24
	.db #0x24
	.db #0x00
	.db #0x00
	.db #0x00
	.db #0x00
	.db #0x00
	.db #0x00
	.db #0x00
	.db #0x00
	.db #0x00
	.db #0x00
	.db #0x00
	.db #0x00
	.db #0x04
	.db #0x04
	.db #0x04
	.db #0x00
	.db #0x00
	.db #0x00
	.db #0x00
	.db #0x00
	.db #0x00
	.db #0x00
	.db #0x00
	.db #0x00
	.db #0xDC
	.db #0x44
	.db #0x64
	.db #0x44
	.db #0x04
	.db #0x00
	.db #0x00
	.db #0x00
	.db #0x00
	.db #0x00
	.db #0x00
	.db #0x00
	.db #0xBC
	.db #0x89
	.db #0x8D
	.db #0x8D
	.db #0xB1
	.db #0x89
	.db #0x64
	.db #0x00
	.db #0x00
	.db #0x00
	.db #0x00
	.db #0x00
	.db #0x44
	.db #0x44
	.db #0x89
	.db #0x89
	.db #0x62
	.db #0x21
	.db #0x89
	.db #0x64
	.db #0x44
	.db #0x24
	.db #0x00
	.db #0x00
	.db #0x24
	.db #0x24
	.db #0x64
	.db #0x89
	.db #0x62
	.db #0x42
	.db #0xD6
	.db #0x8D
	.db #0x89
	.db #0x64
	.db #0x04
	.db #0x24
	.db #0x00
	.db #0x04
	.db #0x04
	.db #0x04
	.db #0x89
	.db #0x21
	.db #0x21
	.db #0xD6
	.db #0xD6
	.db #0x8D
	.db #0x64
	.db #0x04
	.db #0x04
	.db #0x00
	.db #0x04
	.db #0x04
	.db #0x04
	.db #0x89
	.db #0x21
	.db #0x44
	.db #0x44
	.db #0x8D
	.db #0x44
	.db #0x1C
	.db #0x04
	.db #0x00
	.db #0x00
	.db #0x00
	.db #0x04
	.db #0x00
	.db #0x64
	.db #0x89
	.db #0x64
	.db #0x44
	.db #0x44
	.db #0x64
	.db #0x40
	.db #0x00
	.db #0x00
	.db #0x00
	.db #0x00
	.db #0x00
	.db #0x00
	.db #0x00
	.db #0x04
	.db #0x04
	.db #0x14
	.db #0x44
	.db #0x40
	.db #0x00
	.db #0x00
	.db #0x00
	.db #0x00
	.db #0x00
	.db #0x00
	.db #0x00
	.db #0x00
	.db #0x04
	.db #0x04
	.db #0x24
	.db #0x20
	.db #0x00
	.db #0x00
	.db #0x00
	.db #0x00
	.db #0x00
	.db #0x00
	.db #0x00
	.db #0x00
	.db #0x00
	.db #0x04
	.db #0x04
	.db #0x04
	.db #0x00
	.db #0x00
	.db #0x00
	.db #0x00
	.db #0x00
	.db #0x00
	.db #0x00
	.db #0x00
	.db #0x00
	.db #0x00
	.db #0x04
	.db #0x04
	.db #0x00
	.db #0x00
	.db #0x00
	.db #0x00
	.db #0x00
	.db #0x00
	.db #0x00
	.db #0x00
	.db #0x00
	.db #0x00
	.db #0x44
	.db #0x64
	.db #0x89
	.db #0x44
	.db #0x40
	.db #0x00
	.db #0x00
	.db #0x00
	.db #0x00
	.db #0x00
	.db #0x00
	.db #0x00
	.db #0x44
	.db #0x9C
	.db #0x8D
	.db #0x21
	.db #0x89
	.db #0x64
	.db #0x64
	.db #0x40
	.db #0x00
	.db #0x00
	.db #0x00
	.db #0x00
	.db #0x44
	.db #0xDC
	.db #0xB1
	.db #0x62
	.db #0x42
	.db #0x21
	.db #0x21
	.db #0xB1
	.db #0x64
	.db #0x04
	.db #0x04
	.db #0x00
	.db #0x00
	.db #0x64
	.db #0x8D
	.db #0x8D
	.db #0x42
	.db #0x21
	.db #0x42
	.db #0xB1
	.db #0xD6
	.db #0x8D
	.db #0x04
	.db #0x04
	.db #0x00
	.db #0x00
	.db #0x44
	.db #0x89
	.db #0x89
	.db #0x89
	.db #0x21
	.db #0x44
	.db #0x64
	.db #0xB1
	.db #0x8D
	.db #0x1C
	.db #0x00
	.db #0x00
	.db #0x00
	.db #0x04
	.db #0x64
	.db #0x89
	.db #0x89
	.db #0x8D
	.db #0x21
	.db #0x64
	.db #0x44
	.db #0x64
	.db #0x40
	.db #0x00
	.db #0x00
	.db #0x00
	.db #0x24
	.db #0x04
	.db #0x04
	.db #0x89
	.db #0x8D
	.db #0x8D
	.db #0x8D
	.db #0x89
	.db #0x44
	.db #0x40
	.db #0x00
	.db #0x00
	.db #0x00
	.db #0x04
	.db #0x04
	.db #0x04
	.db #0x44
	.db #0x64
	.db #0xB1
	.db #0x89
	.db #0x64
	.db #0x14
	.db #0x20
	.db #0x00
	.db #0x00
	.db #0x00
	.db #0x00
	.db #0x00
	.db #0x00
	.db #0x00
	.db #0x00
	.db #0x44
	.db #0x04
	.db #0x04
	.db #0x04
	.db #0x00
	.db #0x00
	.db #0x00
	.db #0x00
	.db #0x00
	.db #0x00
	.db #0x00
	.db #0x00
	.db #0x00
	.db #0x00
	.db #0x04
	.db #0x04
	.db #0x24
	.db #0x00
	.db #0x00
	.db #0x00
	.db #0x00
	.db #0x00
	.db #0x00
	.db #0x00
	.db #0x00
	.db #0x00
	.db #0x00
	.db #0x00
	.db #0x00
	.db #0x00
	.db #0x00
	.db #0x00
	.db #0x00
	.db #0x00
	.db #0x00
	.db #0x04
	.db #0x04
	.db #0x64
	.db #0x89
	.db #0x89
	.db #0x64
	.db #0x64
	.db #0x04
	.db #0x04
	.db #0x04
	.db #0x00
	.db #0x00
	.db #0x00
	.db #0x04
	.db #0x64
	.db #0x8D
	.db #0x21
	.db #0x21
	.db #0xB1
	.db #0xD6
	.db #0x8D
	.db #0x04
	.db #0x04
	.db #0x00
	.db #0x00
	.db #0x00
	.db #0x44
	.db #0xB1
	.db #0x62
	.db #0x42
	.db #0x42
	.db #0xB1
	.db #0xD6
	.db #0x8D
	.db #0x1C
	.db #0x20
	.db #0x00
	.db #0x00
	.db #0x00
	.db #0xDC
	.db #0x8D
	.db #0x42
	.db #0x21
	.db #0x21
	.db #0x44
	.db #0x64
	.db #0x44
	.db #0x64
	.db #0x40
	.db #0x00
	.db #0x00
	.db #0x00
	.db #0xBC
	.db #0x89
	.db #0x89
	.db #0x21
	.db #0x21
	.db #0x21
	.db #0x64
	.db #0x44
	.db #0x44
	.db #0x40
	.db #0x00
	.db #0x00
	.db #0x00
	.db #0x44
	.db #0x64
	.db #0x89
	.db #0x89
	.db #0x8D
	.db #0x8D
	.db #0x8D
	.db #0x89
	.db #0x14
	.db #0x20
	.db #0x00
	.db #0x00
	.db #0x00
	.db #0x04
	.db #0x44
	.db #0x64
	.db #0x89
	.db #0x8D
	.db #0xB1
	.db #0x89
	.db #0x64
	.db #0x04
	.db #0x04
	.db #0x00
	.db #0x00
	.db #0x00
	.db #0x24
	.db #0x04
	.db #0x04
	.db #0x44
	.db #0x64
	.db #0x64
	.db #0x44
	.db #0x04
	.db #0x04
	.db #0x24
	.db #0x00
	.db #0x00
	.db #0x00
	.db #0x04
	.db #0x04
	.db #0x04
	.db #0x00
	.db #0x00
	.db #0x00
	.db #0x00
	.db #0x04
	.db #0x04
	.db #0x04
	.db #0x00
	.db #0x00
	.db #0x00
	.db #0x00
	.db #0x00
	.db #0x00
	.db #0x00
	.db #0x00
	.db #0x00
	.db #0x00
	.db #0x00
	.db #0x00
	.db #0x00
	.db #0x00
	.db #0x00
	.db #0x00
	.db #0x00
	.db #0x00
	.db #0x00
	.db #0x00
	.db #0x00
	.db #0x00
	.db #0x00
	.db #0x04
	.db #0x04
	.db #0x00
	.db #0x00
	.db #0x00
	.db #0x00
	.db #0x00
	.db #0x00
	.db #0x00
	.db #0x00
	.db #0x00
	.db #0x64
	.db #0x04
	.db #0x04
	.db #0x04
	.db #0x00
	.db #0x00
	.db #0x00
	.db #0x00
	.db #0x00
	.db #0x00
	.db #0x89
	.db #0x89
	.db #0x64
	.db #0xD6
	.db #0x8D
	.db #0x1C
	.db #0x20
	.db #0x00
	.db #0x00
	.db #0x00
	.db #0x00
	.db #0x04
	.db #0x04
	.db #0x8D
	.db #0x21
	.db #0x21
	.db #0xB1
	.db #0xD6
	.db #0x44
	.db #0x64
	.db #0x40
	.db #0x00
	.db #0x00
	.db #0x00
	.db #0x04
	.db #0x64
	.db #0x62
	.db #0x42
	.db #0x42
	.db #0x44
	.db #0x64
	.db #0x44
	.db #0x44
	.db #0x40
	.db #0x00
	.db #0x00
	.db #0x00
	.db #0x44
	.db #0xB1
	.db #0x42
	.db #0x21
	.db #0x21
	.db #0x21
	.db #0x64
	.db #0x89
	.db #0x14
	.db #0x20
	.db #0x00
	.db #0x00
	.db #0x00
	.db #0x00
	.db #0xDC
	.db #0x89
	.db #0x89
	.db #0x21
	.db #0x8D
	.db #0x8D
	.db #0x89
	.db #0x64
	.db #0x04
	.db #0x24
	.db #0x00
	.db #0x00
	.db #0x00
	.db #0xBC
	.db #0x64
	.db #0x89
	.db #0x89
	.db #0x8D
	.db #0xB1
	.db #0x44
	.db #0x04
	.db #0x04
	.db #0x04
	.db #0x00
	.db #0x00
	.db #0x00
	.db #0x00
	.db #0x04
	.db #0x44
	.db #0x64
	.db #0x44
	.db #0x64
	.db #0x00
	.db #0x00
	.db #0x04
	.db #0x00
	.db #0x00
	.db #0x00
	.db #0x00
	.db #0x00
	.db #0x24
	.db #0x04
	.db #0x04
	.db #0x00
	.db #0x00
	.db #0x00
	.db #0x00
	.db #0x00
	.db #0x00
	.db #0x00
	.db #0x00
	.db #0x00
	.db #0x00
	.db #0x04
	.db #0x04
	.db #0x04
	.db #0x00
	.db #0x00
	.db #0x00
	.db #0x00
	.db #0x00
	.db #0x00
	.db #0x00
	.db #0x00
	.db #0x00
	.db #0x00
	.db #0x04
	.db #0x04
	.db #0x10
	.db #0x04
	.db #0x00
	.db #0x00
	.db #0x00
	.db #0x00
	.db #0x00
	.db #0x00
	.db #0x00
	.db #0x00
	.db #0x00
	.db #0x04
	.db #0x44
	.db #0x40
	.db #0x40
	.db #0x64
	.db #0x00
	.db #0x00
	.db #0x00
	.db #0x00
	.db #0x00
	.db #0x00
	.db #0x00
	.db #0x00
	.db #0x44
	.db #0x64
	.db #0x40
	.db #0x44
	.db #0x64
	.db #0x64
	.db #0x14
	.db #0x00
	.db #0x00
	.db #0x00
	.db #0x00
	.db #0x00
	.db #0x64
	.db #0x89
	.db #0x21
	.db #0x89
	.db #0x8D
	.db #0x44
	.db #0x40
	.db #0x44
	.db #0x04
	.db #0x04
	.db #0x00
	.db #0x04
	.db #0x04
	.db #0x89
	.db #0xB1
	.db #0x21
	.db #0x42
	.db #0xD6
	.db #0x21
	.db #0x21
	.db #0x44
	.db #0x24
	.db #0x04
	.db #0x00
	.db #0x04
	.db #0x40
	.db #0x89
	.db #0x8D
	.db #0x42
	.db #0x62
	.db #0x21
	.db #0x21
	.db #0x89
	.db #0x64
	.db #0x04
	.db #0x04
	.db #0x00
	.db #0x04
	.db #0x04
	.db #0x89
	.db #0x89
	.db #0x8D
	.db #0x42
	.db #0x21
	.db #0x89
	.db #0x89
	.db #0x44
	.db #0x00
	.db #0x00
	.db #0x00
	.db #0x00
	.db #0x24
	.db #0x40
	.db #0xDC
	.db #0x8D
	.db #0xB1
	.db #0xB1
	.db #0x8D
	.db #0x89
	.db #0x00
	.db #0x00
	.db #0x00
	.db #0x00
	.db #0x00
	.db #0x00
	.db #0x40
	.db #0x40
	.db #0xDC
	.db #0x89
	.db #0x89
	.db #0x04
	.db #0x00
	.db #0x00
	.db #0x00
	.db #0x00
	.db #0x00
	.db #0x00
	.db #0x00
	.db #0x00
	.db #0x40
	.db #0x40
	.db #0x04
	.db #0x24
	.db #0x24
	.db #0x00
	.db #0x00
	.db #0x00
	.db #0x00
	.db #0x00
	.db #0x00
	.db #0x00
	.db #0x00
	.db #0x00
	.db #0x00
	.db #0x04
	.db #0x04
	.db #0x04
	.db #0x00
	.db #0x00
	.db #0x00
	.db #0x00
	.db #0x00
	.db #0x00
	.db #0x00
	.db #0x00
	.db #0x00
	.db #0x00
	.db #0x00
	.db #0x00
	.db #0x00
	.db #0x00
	.db #0x00
	.db #0x00
	.db #0x00
	.db #0x00
	.db #0x00
	.db #0x00
	.db #0x04
	.db #0x04
	.db #0x10
	.db #0x40
	.db #0x40
	.db #0x64
	.db #0x14
	.db #0x00
	.db #0x00
	.db #0x00
	.db #0x00
	.db #0x00
	.db #0x00
	.db #0x04
	.db #0x44
	.db #0x40
	.db #0x44
	.db #0x64
	.db #0x64
	.db #0x40
	.db #0x04
	.db #0x04
	.db #0x00
	.db #0x00
	.db #0x00
	.db #0x00
	.db #0x44
	.db #0x44
	.db #0x64
	.db #0x89
	.db #0x8D
	.db #0x44
	.db #0x64
	.db #0x44
	.db #0x24
	.db #0x00
	.db #0x00
	.db #0x00
	.db #0x00
	.db #0x64
	.db #0x21
	.db #0x8D
	.db #0xB2
	.db #0x21
	.db #0x21
	.db #0x89
	.db #0x44
	.db #0x24
	.db #0x00
	.db #0x00
	.db #0x00
	.db #0x89
	.db #0xB1
	.db #0x21
	.db #0x21
	.db #0x21
	.db #0x21
	.db #0x40
	.db #0x89
	.db #0x00
	.db #0x00
	.db #0x00
	.db #0x00
	.db #0x04
	.db #0x64
	.db #0x89
	.db #0x21
	.db #0x21
	.db #0x8D
	.db #0x8D
	.db #0x8D
	.db #0x89
	.db #0x00
	.db #0x00
	.db #0x00
	.db #0x00
	.db #0x04
	.db #0x40
	.db #0x89
	.db #0x8D
	.db #0x8D
	.db #0xB1
	.db #0xB1
	.db #0x89
	.db #0x40
	.db #0x00
	.db #0x00
	.db #0x00
	.db #0x00
	.db #0x04
	.db #0x04
	.db #0x40
	.db #0x9C
	.db #0xDC
	.db #0xB1
	.db #0x89
	.db #0x40
	.db #0x04
	.db #0x00
	.db #0x00
	.db #0x00
	.db #0x00
	.db #0x00
	.db #0x00
	.db #0x40
	.db #0x40
	.db #0x40
	.db #0x40
	.db #0x04
	.db #0x04
	.db #0x04
	.db #0x04
	.db #0x00
	.db #0x00
	.db #0x00
	.db #0x00
	.db #0x00
	.db #0x00
	.db #0x00
	.db #0x00
	.db #0x00
	.db #0x00
	.db #0x04
	.db #0x04
	.db #0x00
	.db #0x00
	.db #0x00
	.db #0x00
	.db #0x00
	.db #0x00
	.db #0x00
	.db #0x00
	.db #0x00
	.db #0x00
	.db #0x00
	.db #0x00
	.db #0x00
	.db #0x00
	.db #0x00
	.db #0x00
	.db #0x00
	.db #0x04
	.db #0x04
	.db #0x04
	.db #0x14
	.db #0x64
	.db #0x40
	.db #0x10
	.db #0x04
	.db #0x04
	.db #0x04
	.db #0x00
	.db #0x00
	.db #0x00
	.db #0x24
	.db #0x04
	.db #0x44
	.db #0x40
	.db #0x64
	.db #0x44
	.db #0x40
	.db #0x44
	.db #0x04
	.db #0x04
	.db #0x00
	.db #0x00
	.db #0x00
	.db #0x24
	.db #0x44
	.db #0x64
	.db #0x44
	.db #0x8D
	.db #0x89
	.db #0x44
	.db #0x64
	.db #0x44
	.db #0x04
	.db #0x00
	.db #0x00
	.db #0x00
	.db #0x00
	.db #0x64
	.db #0x89
	.db #0x21
	.db #0xD6
	.db #0xB2
	.db #0x21
	.db #0x89
	.db #0x64
	.db #0x00
	.db #0x00
	.db #0x00
	.db #0x00
	.db #0x00
	.db #0x89
	.db #0x89
	.db #0x21
	.db #0x21
	.db #0x21
	.db #0x21
	.db #0xB1
	.db #0x89
	.db #0x00
	.db #0x00
	.db #0x00
	.db #0x00
	.db #0x00
	.db #0x89
	.db #0x8D
	.db #0x8D
	.db #0x42
	.db #0x21
	.db #0x8D
	.db #0x89
	.db #0x64
	.db #0x00
	.db #0x00
	.db #0x00
	.db #0x00
	.db #0x04
	.db #0x40
	.db #0x89
	.db #0xB1
	.db #0xB1
	.db #0x8D
	.db #0x89
	.db #0x89
	.db #0x40
	.db #0x04
	.db #0x00
	.db #0x00
	.db #0x00
	.db #0x04
	.db #0x04
	.db #0x40
	.db #0x89
	.db #0xDC
	.db #0x9C
	.db #0x64
	.db #0x40
	.db #0x04
	.db #0x04
	.db #0x00
	.db #0x00
	.db #0x00
	.db #0x24
	.db #0x04
	.db #0x04
	.db #0x00
	.db #0x00
	.db #0x00
	.db #0x40
	.db #0x24
	.db #0x24
	.db #0x04
	.db #0x00
	.db #0x00
	.db #0x00
	.db #0x00
	.db #0x00
	.db #0x00
	.db #0x00
	.db #0x00
	.db #0x00
	.db #0x00
	.db #0x00
	.db #0x00
	.db #0x00
	.db #0x00
	.db #0x00
	.db #0x00
	.db #0x00
	.db #0x00
	.db #0x00
	.db #0x00
	.db #0x00
	.db #0x00
	.db #0x00
	.db #0x00
	.db #0x00
	.db #0x00
	.db #0x00
	.db #0x00
	.db #0x00
	.db #0x00
	.db #0x00
	.db #0x14
	.db #0x64
	.db #0x64
	.db #0x10
	.db #0x04
	.db #0x04
	.db #0x00
	.db #0x00
	.db #0x00
	.db #0x00
	.db #0x00
	.db #0x04
	.db #0x04
	.db #0x40
	.db #0x64
	.db #0x64
	.db #0x44
	.db #0x40
	.db #0x44
	.db #0x04
	.db #0x00
	.db #0x00
	.db #0x00
	.db #0x00
	.db #0x24
	.db #0x44
	.db #0x64
	.db #0x44
	.db #0x8D
	.db #0x89
	.db #0x64
	.db #0x40
	.db #0x44
	.db #0x00
	.db #0x00
	.db #0x00
	.db #0x00
	.db #0x24
	.db #0x44
	.db #0x89
	.db #0x21
	.db #0x21
	.db #0xB2
	.db #0x40
	.db #0x21
	.db #0x64
	.db #0x00
	.db #0x00
	.db #0x00
	.db #0x00
	.db #0x00
	.db #0x40
	.db #0x89
	.db #0x89
	.db #0x21
	.db #0x21
	.db #0x21
	.db #0x21
	.db #0xB1
	.db #0x89
	.db #0x00
	.db #0x00
	.db #0x00
	.db #0x00
	.db #0x00
	.db #0x89
	.db #0x8D
	.db #0x8D
	.db #0x42
	.db #0x21
	.db #0x8D
	.db #0x89
	.db #0x64
	.db #0x04
	.db #0x00
	.db #0x00
	.db #0x00
	.db #0x00
	.db #0x40
	.db #0x89
	.db #0xB1
	.db #0xB1
	.db #0x8D
	.db #0x89
	.db #0x89
	.db #0x40
	.db #0x04
	.db #0x00
	.db #0x00
	.db #0x00
	.db #0x04
	.db #0x04
	.db #0x40
	.db #0x89
	.db #0xDC
	.db #0x9C
	.db #0x64
	.db #0x40
	.db #0x04
	.db #0x04
	.db #0x00
	.db #0x00
	.db #0x00
	.db #0x04
	.db #0x04
	.db #0x04
	.db #0x00
	.db #0x00
	.db #0x00
	.db #0x40
	.db #0x24
	.db #0x24
	.db #0x00
	.db #0x00
	.db #0x00
	.db #0x00
	.db #0x24
	.db #0x04
	.db #0x00
	.db #0x00
	.db #0x00
	.db #0x00
	.db #0x00
	.db #0x00
	.db #0x00
	.db #0x00
	.db #0x00
	.db #0x00
	.db #0x00
	.db #0x00
	.db #0x00
	.db #0x00
	.db #0x04
	.db #0x10
	.db #0x04
	.db #0x04
	.db #0x00
	.db #0x00
	.db #0x00
	.db #0x00
	.db #0x00
	.db #0x00
	.db #0x00
	.db #0x00
	.db #0x64
	.db #0x40
	.db #0x40
	.db #0x44
	.db #0x04
	.db #0x00
	.db #0x00
	.db #0x00
	.db #0x00
	.db #0x00
	.db #0x00
	.db #0x14
	.db #0x64
	.db #0x64
	.db #0x44
	.db #0x40
	.db #0x64
	.db #0x44
	.db #0x00
	.db #0x00
	.db #0x00
	.db #0x00
	.db #0x04
	.db #0x04
	.db #0x44
	.db #0x40
	.db #0x44
	.db #0x8D
	.db #0x89
	.db #0x21
	.db #0x89
	.db #0x64
	.db #0x00
	.db #0x00
	.db #0x00
	.db #0x04
	.db #0x24
	.db #0x44
	.db #0x21
	.db #0x21
	.db #0xD6
	.db #0x42
	.db #0x21
	.db #0xB1
	.db #0x89
	.db #0x04
	.db #0x04
	.db #0x00
	.db #0x04
	.db #0x04
	.db #0x64
	.db #0x89
	.db #0x21
	.db #0x21
	.db #0x62
	.db #0x42
	.db #0x8D
	.db #0x89
	.db #0x40
	.db #0x04
	.db #0x00
	.db #0x00
	.db #0x00
	.db #0x44
	.db #0x89
	.db #0x89
	.db #0x21
	.db #0x42
	.db #0x8D
	.db #0x89
	.db #0x89
	.db #0x04
	.db #0x04
	.db #0x00
	.db #0x00
	.db #0x00
	.db #0x00
	.db #0x89
	.db #0x8D
	.db #0xB1
	.db #0xB1
	.db #0x8D
	.db #0xDC
	.db #0x40
	.db #0x24
	.db #0x00
	.db #0x00
	.db #0x00
	.db #0x00
	.db #0x00
	.db #0x00
	.db #0x04
	.db #0x89
	.db #0x89
	.db #0xDC
	.db #0x40
	.db #0x40
	.db #0x00
	.db #0x00
	.db #0x00
	.db #0x00
	.db #0x00
	.db #0x00
	.db #0x00
	.db #0x24
	.db #0x24
	.db #0x04
	.db #0x40
	.db #0x40
	.db #0x00
	.db #0x00
	.db #0x00
	.db #0x00
	.db #0x00
	.db #0x00
	.db #0x00
	.db #0x00
	.db #0x04
	.db #0x04
	.db #0x04
	.db #0x00
	.db #0x00
	.db #0x00
	.db #0x00
	.db #0x00
	.db #0x00
	.db #0x00
	.db #0x00
	.db #0x04
	.db #0x04
	.db #0x00
	.db #0x00
	.db #0x00
	.db #0x00
	.db #0x00
	.db #0x00
	.db #0x00
	.db #0x00
	.db #0x00
	.db #0x00
	.db #0x00
	.db #0x04
	.db #0x04
	.db #0x04
	.db #0x64
	.db #0x00
	.db #0x00
	.db #0x00
	.db #0x00
	.db #0x00
	.db #0x00
	.db #0x00
	.db #0x00
	.db #0x00
	.db #0x20
	.db #0x1C
	.db #0x8D
	.db #0xD6
	.db #0x64
	.db #0x89
	.db #0x89
	.db #0x00
	.db #0x00
	.db #0x00
	.db #0x00
	.db #0x00
	.db #0x40
	.db #0x64
	.db #0x44
	.db #0xD6
	.db #0xB1
	.db #0x21
	.db #0x21
	.db #0x8D
	.db #0x04
	.db #0x04
	.db #0x00
	.db #0x00
	.db #0x00
	.db #0x40
	.db #0x44
	.db #0x44
	.db #0x64
	.db #0x44
	.db #0x42
	.db #0x42
	.db #0x62
	.db #0x64
	.db #0x04
	.db #0x00
	.db #0x00
	.db #0x00
	.db #0x20
	.db #0x14
	.db #0x89
	.db #0x64
	.db #0x21
	.db #0x21
	.db #0x21
	.db #0x42
	.db #0xB1
	.db #0x44
	.db #0x00
	.db #0x00
	.db #0x24
	.db #0x04
	.db #0x64
	.db #0x89
	.db #0x8D
	.db #0x8D
	.db #0x21
	.db #0x89
	.db #0x89
	.db #0xDC
	.db #0x00
	.db #0x00
	.db #0x00
	.db #0x04
	.db #0x04
	.db #0x04
	.db #0x44
	.db #0xB1
	.db #0x8D
	.db #0x89
	.db #0x89
	.db #0x64
	.db #0xBC
	.db #0x00
	.db #0x00
	.db #0x00
	.db #0x00
	.db #0x04
	.db #0x00
	.db #0x00
	.db #0x64
	.db #0x44
	.db #0x64
	.db #0x44
	.db #0x04
	.db #0x00
	.db #0x00
	.db #0x00
	.db #0x00
	.db #0x00
	.db #0x00
	.db #0x00
	.db #0x00
	.db #0x00
	.db #0x00
	.db #0x04
	.db #0x04
	.db #0x24
	.db #0x00
	.db #0x00
	.db #0x00
	.db #0x00
	.db #0x00
	.db #0x00
	.db #0x00
	.db #0x00
	.db #0x00
	.db #0x00
	.db #0x04
	.db #0x04
	.db #0x04
	.db #0x00
	.db #0x00
	.db #0x00
	.db #0x00
_g_Sinus:
	.dw #0x0000
	.dw #0x0061
	.dw #0x00B5
	.dw #0x00EC
	.dw #0x0100
	.dw #0x00EC
	.dw #0x00B5
	.dw #0x0061
	.dw #0x0000
	.dw #0xFF9F
	.dw #0xFF4B
	.dw #0xFF14
	.dw #0xFF00
	.dw #0xFF14
	.dw #0xFF4B
	.dw #0xFF9F
_g_Cosinus:
	.dw #0x0100
	.dw #0x00EC
	.dw #0x00B5
	.dw #0x0061
	.dw #0x0000
	.dw #0xFF9F
	.dw #0xFF4B
	.dw #0xFF14
	.dw #0xFF00
	.dw #0xFF14
	.dw #0xFF4B
	.dw #0xFF9F
	.dw #0x0000
	.dw #0x0061
	.dw #0x00B5
	.dw #0x00EC
;carwar.c:185: void MainLoop()
;	genLabel
;	genFunction
;	---------------------------------
; Function MainLoop
; ---------------------------------
_MainLoop_start::
_MainLoop:
	push	ix
	ld	ix,#0
	add	ix,sp
	ld	hl,#-14
	add	hl,sp
	ld	sp,hl
;carwar.c:189: u8 page = 0;
;	genAssign
;	AOP_STK for _MainLoop_page_1_1
	ld	-1(ix),#0x00
;carwar.c:191: u8 rot = 0;
;	genAssign
;	AOP_STK for _MainLoop_rot_1_1
	ld	-2(ix),#0x00
;carwar.c:192: u16 posX = 128 << 8, posY = 128 << 8, dx = 0,dy = 0;
;	genAssign
;	AOP_STK for _MainLoop_posX_1_1
	ld	-4(ix),#0x00
	ld	-3(ix),#0x80
;	genAssign
;	AOP_STK for _MainLoop_posY_1_1
	ld	-6(ix),#0x00
	ld	-5(ix),#0x80
;	genAssign
;	AOP_STK for _MainLoop_sloc2_1_0
	ld	-12(ix),#0x00
	ld	-11(ix),#0x00
;	genAssign
;	AOP_STK for _MainLoop_sloc0_1_0
	ld	-9(ix),#0x00
	ld	-8(ix),#0x00
;carwar.c:193: i8 speed = 0;
;	genAssign
;	AOP_STK for _MainLoop_speed_1_1
	ld	-7(ix),#0x00
;carwar.c:195: SetTo60Hz();
;	genCall
; _saveRegsForCall: sendSetSize: 0 deInUse: 0 bcInUse: 0 deSending: 0
	call	_SetTo60Hz
;carwar.c:196: SetScreen8();
;	genCall
; _saveRegsForCall: sendSetSize: 0 deInUse: 0 bcInUse: 0 deSending: 0
	call	_SetScreen8
;carwar.c:198: Fill8(0, 0, 0, 256, 212, 0x92);
;	genIpush
; _saveRegsForCall: sendSetSize: 0 deInUse: 0 bcInUse: 0 deSending: 0
	ld	hl,#0x92D4
	push	hl
;	genIpush
	ld	hl,#0x0000
	push	hl
;	genIpush
	ld	hl,#0x0000
	push	hl
;	genCall
	call	_Fill8
	pop	af
	pop	af
	pop	af
;carwar.c:199: Fill8(1, 0, 0, 256, 212, 0x92);
;	genIpush
; _saveRegsForCall: sendSetSize: 0 deInUse: 0 bcInUse: 0 deSending: 0
	ld	hl,#0x92D4
	push	hl
;	genIpush
	ld	hl,#0x0000
	push	hl
;	genIpush
	ld	hl,#0x0001
	push	hl
;	genCall
	call	_Fill8
	pop	af
	pop	af
	pop	af
;carwar.c:201: while(bEnd == 0)
;	genLabel
00117$:
;carwar.c:203: SetPage8(page << 5);
;	genLeftShift
;	AOP_STK for _MainLoop_page_1_1
	ld	a,-1(ix)
	rrca
	rrca
	rrca
	and	a,#0xE0
;	genIpush
; _saveRegsForCall: sendSetSize: 0 deInUse: 0 bcInUse: 0 deSending: 0
	ld	c,a
	push	af
	inc	sp
;	genCall
	call	_SetPage8
	inc	sp
;carwar.c:204: page = 1 - page;
;	genMinus
;	AOP_STK for _MainLoop_page_1_1
	ld	a,#0x01
	sub	a,-1(ix)
	ld	-1(ix),a
;carwar.c:206: Fill8(page, posX >> 8, posY >> 8, 13, 11, 0x92);
;	genRightShift
;	AOP_STK for _MainLoop_posY_1_1
	ld	c,-5(ix)
	ld	b,#0x00
;	genCast
	ld	e,c
;	genRightShift
;	AOP_STK for _MainLoop_posX_1_1
	ld	b,-3(ix)
	ld	c,#0x00
;	genCast
;	genIpush
; _saveRegsForCall: sendSetSize: 0 deInUse: 0 bcInUse: 0 deSending: 0
	ld	hl,#0x920B
	push	hl
;	genIpush
	ld	a,#0x0D
	push	af
	inc	sp
;	genIpush
	ld	a,e
	push	af
	inc	sp
;	genIpush
	push	bc
	inc	sp
;	genIpush
;	AOP_STK for _MainLoop_page_1_1
	ld	a,-1(ix)
	push	af
	inc	sp
;	genCall
	call	_Fill8
	pop	af
	pop	af
	pop	af
;carwar.c:207: Fill8(page, 20, 50, 13, 11, 0x92);
;	genIpush
; _saveRegsForCall: sendSetSize: 0 deInUse: 0 bcInUse: 0 deSending: 0
	ld	hl,#0x920B
	push	hl
;	genIpush
	ld	hl,#0x0D32
	push	hl
;	genIpush
	ld	a,#0x14
	push	af
	inc	sp
;	genIpush
;	AOP_STK for _MainLoop_page_1_1
	ld	a,-1(ix)
	push	af
	inc	sp
;	genCall
	call	_Fill8
	pop	af
	pop	af
	pop	af
;carwar.c:208: Fill8(page, 40, 50, 13, 11, 0x92);
;	genIpush
; _saveRegsForCall: sendSetSize: 0 deInUse: 0 bcInUse: 0 deSending: 0
	ld	hl,#0x920B
	push	hl
;	genIpush
	ld	hl,#0x0D32
	push	hl
;	genIpush
	ld	a,#0x28
	push	af
	inc	sp
;	genIpush
;	AOP_STK for _MainLoop_page_1_1
	ld	a,-1(ix)
	push	af
	inc	sp
;	genCall
	call	_Fill8
	pop	af
	pop	af
	pop	af
;carwar.c:209: Fill8(page, 60, 50, 13, 11, 0x92);
;	genIpush
; _saveRegsForCall: sendSetSize: 0 deInUse: 0 bcInUse: 0 deSending: 0
	ld	hl,#0x920B
	push	hl
;	genIpush
	ld	hl,#0x0D32
	push	hl
;	genIpush
	ld	a,#0x3C
	push	af
	inc	sp
;	genIpush
;	AOP_STK for _MainLoop_page_1_1
	ld	a,-1(ix)
	push	af
	inc	sp
;	genCall
	call	_Fill8
	pop	af
	pop	af
	pop	af
;carwar.c:211: speed--;
;	genMinus
;	AOP_STK for _MainLoop_speed_1_1
	dec	-7(ix)
;carwar.c:212: if((i = Joystick(0) | Joystick(1) | Joystick(2)) != 0)
;	genIpush
; _saveRegsForCall: sendSetSize: 0 deInUse: 0 bcInUse: 0 deSending: 0
	ld	a,#0x00
	push	af
	inc	sp
;	genCall
	call	_Joystick
	ld	c,l
	inc	sp
;	genIpush
; _saveRegsForCall: sendSetSize: 0 deInUse: 0 bcInUse: 1 deSending: 0
	push	bc
	ld	a,#0x01
	push	af
	inc	sp
;	genCall
	call	_Joystick
	ld	b,l
	inc	sp
	ld	a,b
	pop	bc
;	genOr
	ld	b,a
	or	a,c
	ld	c,a
;	genIpush
; _saveRegsForCall: sendSetSize: 0 deInUse: 0 bcInUse: 1 deSending: 0
	push	bc
	ld	a,#0x02
	push	af
	inc	sp
;	genCall
	call	_Joystick
	ld	b,l
	inc	sp
	ld	a,b
	pop	bc
;	genOr
	ld	b,a
	or	a,c
;	genCast
	ld	c,a
	rla	
	sbc	a,a
	ld	b,a
;	genAssign
	ld	e,c
	ld	d,b
;	genIfx
	ld	a,c
	or	a,b
	jp	Z,00111$
;carwar.c:214: switch (i)
;	genCmpLt
	ld	a,e
	sub	a,#0x01
	ld	a,d
	sbc	a,#0x00
	jp	M,00111$
;	genCmpGt
	ld	a,#0x08
	sub	a,e
	ld	a,#0x00
	sbc	a,d
	jp	M,00111$
;	genMinus
	ld	a,e
	add	a,#0xFF
	ld	e,a
;	genJumpTab
	push	de
	ld	d,#0x00
	ld	hl,#00129$
	add	hl,de
	add	hl,de
	add	hl,de
	pop	de
	jp	(hl)
00129$:
	jp	00101$
	jp	00102$
	jp	00103$
	jp	00104$
	jp	00105$
	jp	00106$
	jp	00107$
	jp	00108$
;carwar.c:216: case 1: // up
;	genLabel
00101$:
;carwar.c:217: dx = g_Cosinus[rot];
;	genLeftShift
;	AOP_STK for _MainLoop_rot_1_1
	ld	a,-2(ix)
	add	a,a
;	genPlus
	ld	c, a
	add	a,#<_g_Cosinus
	ld	e,a
	ld	a,#>_g_Cosinus
	adc	a,#0x00
	ld	d,a
;	genPointerGet
	ld	l,e
	ld	h,d
	ld	e,(hl)
	inc	hl
	ld	d,(hl)
;	genAssign
;	AOP_STK for _MainLoop_sloc2_1_0
	ld	-12(ix),e
	ld	-11(ix),d
;carwar.c:218: dy = g_Sinus[rot];
;	genPlus
	ld	a,#<_g_Sinus
	add	a,c
	ld	c,a
	ld	a,#>_g_Sinus
	adc	a,#0x00
	ld	b,a
;	genPointerGet
	ld	l,c
	ld	h,b
	ld	c,(hl)
	inc	hl
	ld	b,(hl)
;	genAssign
;	AOP_STK for _MainLoop_sloc0_1_0
	ld	-9(ix),c
	ld	-8(ix),b
;carwar.c:219: speed += 2;
;	genPlus
;	AOP_STK for _MainLoop_speed_1_1
;	genPlusIncr
	inc	-7(ix)
	inc	-7(ix)
;carwar.c:220: break;
;	genGoto
	jp	00111$
;carwar.c:221: case 2: // up-right
;	genLabel
00102$:
;carwar.c:222: dx = g_Cosinus[rot];
;	genLeftShift
;	AOP_STK for _MainLoop_rot_1_1
	ld	a,-2(ix)
	add	a,a
;	genPlus
	ld	c, a
	add	a,#<_g_Cosinus
	ld	e,a
	ld	a,#>_g_Cosinus
	adc	a,#0x00
	ld	d,a
;	genPointerGet
	ld	l,e
	ld	h,d
	ld	e,(hl)
	inc	hl
	ld	d,(hl)
;	genAssign
;	AOP_STK for _MainLoop_sloc2_1_0
	ld	-12(ix),e
	ld	-11(ix),d
;carwar.c:223: dy = g_Sinus[rot];
;	genPlus
	ld	a,#<_g_Sinus
	add	a,c
	ld	c,a
	ld	a,#>_g_Sinus
	adc	a,#0x00
	ld	b,a
;	genPointerGet
	ld	l,c
	ld	h,b
	ld	c,(hl)
	inc	hl
	ld	b,(hl)
;	genAssign
;	AOP_STK for _MainLoop_sloc0_1_0
	ld	-9(ix),c
	ld	-8(ix),b
;carwar.c:224: speed += 2;
;	genPlus
;	AOP_STK for _MainLoop_speed_1_1
;	genPlusIncr
	inc	-7(ix)
	inc	-7(ix)
;carwar.c:225: rot--; 
;	genMinus
;	AOP_STK for _MainLoop_rot_1_1
	dec	-2(ix)
;carwar.c:226: break;
;	genGoto
	jr	00111$
;carwar.c:227: case 3: // right
;	genLabel
00103$:
;carwar.c:228: rot--; 
;	genMinus
;	AOP_STK for _MainLoop_rot_1_1
	dec	-2(ix)
;carwar.c:229: break;
;	genGoto
	jr	00111$
;carwar.c:230: case 4: // down-right
;	genLabel
00104$:
;carwar.c:231: rot--; 
;	genMinus
;	AOP_STK for _MainLoop_rot_1_1
	dec	-2(ix)
;carwar.c:232: break;
;	genGoto
	jr	00111$
;carwar.c:233: case 5: // down
;	genLabel
00105$:
;carwar.c:234: break;
;	genGoto
	jr	00111$
;carwar.c:235: case 6: // down-left
;	genLabel
00106$:
;carwar.c:236: rot++; 
;	genPlus
;	AOP_STK for _MainLoop_rot_1_1
;	genPlusIncr
	inc	-2(ix)
;carwar.c:237: break;
;	genGoto
	jr	00111$
;carwar.c:238: case 7: // left
;	genLabel
00107$:
;carwar.c:239: rot++; 
;	genPlus
;	AOP_STK for _MainLoop_rot_1_1
;	genPlusIncr
	inc	-2(ix)
;carwar.c:240: break;
;	genGoto
	jr	00111$
;carwar.c:241: case 8:// up-left
;	genLabel
00108$:
;carwar.c:242: dx = g_Cosinus[rot];
;	genLeftShift
;	AOP_STK for _MainLoop_rot_1_1
	ld	a,-2(ix)
	add	a,a
;	genPlus
	ld	c, a
	add	a,#<_g_Cosinus
	ld	e,a
	ld	a,#>_g_Cosinus
	adc	a,#0x00
	ld	d,a
;	genPointerGet
	ld	l,e
	ld	h,d
	ld	e,(hl)
	inc	hl
	ld	d,(hl)
;	genAssign
;	AOP_STK for _MainLoop_sloc2_1_0
	ld	-12(ix),e
	ld	-11(ix),d
;carwar.c:243: dy = g_Sinus[rot];
;	genPlus
	ld	a,#<_g_Sinus
	add	a,c
	ld	c,a
	ld	a,#>_g_Sinus
	adc	a,#0x00
	ld	b,a
;	genPointerGet
	ld	l,c
	ld	h,b
	ld	c,(hl)
	inc	hl
	ld	b,(hl)
;	genAssign
;	AOP_STK for _MainLoop_sloc0_1_0
	ld	-9(ix),c
	ld	-8(ix),b
;carwar.c:244: speed++;
;	genPlus
;	AOP_STK for _MainLoop_speed_1_1
;	genPlusIncr
	inc	-7(ix)
;carwar.c:245: rot++; 
;	genPlus
;	AOP_STK for _MainLoop_rot_1_1
;	genPlusIncr
	inc	-2(ix)
;carwar.c:247: }
;	genLabel
00111$:
;carwar.c:250: rot &= 0x0F;
;	genAnd
;	AOP_STK for _MainLoop_rot_1_1
	ld	a,-2(ix)
	and	a,#0x0F
	ld	-2(ix),a
;carwar.c:251: if(speed < 0)
;	genCmpLt
;	AOP_STK for _MainLoop_speed_1_1
	ld	a,-7(ix)
	bit	7,a
	jr	Z,00115$
;carwar.c:252: speed = 0;
;	genAssign
;	AOP_STK for _MainLoop_speed_1_1
	ld	-7(ix),#0x00
;	genGoto
	jr	00116$
;	genLabel
00115$:
;carwar.c:253: else if(speed > 10)
;	genCmpGt
;	AOP_STK for _MainLoop_speed_1_1
	ld	a,#0x0A
	sub	a,-7(ix)
	jp	P,00116$
;carwar.c:254: speed = 10;
;	genAssign
;	AOP_STK for _MainLoop_speed_1_1
	ld	-7(ix),#0x0A
;	genLabel
00116$:
;carwar.c:256: posX += speed * dx;
;	genCast
;	AOP_STK for _MainLoop_speed_1_1
	ld	c,-7(ix)
	ld	a,-7(ix)
	rla	
	sbc	a,a
	ld	b,a
;	genIpush
; _saveRegsForCall: sendSetSize: 0 deInUse: 0 bcInUse: 1 deSending: 0
	push	bc
;	AOP_STK for _MainLoop_sloc2_1_0
	ld	l,-12(ix)
	ld	h,-11(ix)
	push	hl
;	genIpush
	push	bc
;	genCall
	call	__mulint_rrx_s
	ld	d,h
	ld	e,l
	pop	af
	pop	af
	pop	bc
;	genPlus
;	AOP_STK for _MainLoop_posX_1_1
	ld	a,-4(ix)
	add	a,e
	ld	-4(ix),a
	ld	a,-3(ix)
	adc	a,d
	ld	-3(ix),a
;carwar.c:257: posY -= speed * dy;
;	genIpush
; _saveRegsForCall: sendSetSize: 0 deInUse: 0 bcInUse: 0 deSending: 0
;	AOP_STK for _MainLoop_sloc0_1_0
	ld	l,-9(ix)
	ld	h,-8(ix)
	push	hl
;	genIpush
	push	bc
;	genCall
	call	__mulint_rrx_s
	ld	b,h
	ld	c,l
	pop	af
	pop	af
;	genMinus
;	AOP_STK for _MainLoop_posY_1_1
	ld	a,-6(ix)
	sub	a,c
	ld	-6(ix),a
	ld	a,-5(ix)
	sbc	a,b
	ld	-5(ix),a
;carwar.c:259: RAMtoVRAMTrans(page, posX >> 8, posY >> 8, 13, 11, (u16)&car1[rot * 13 * 11]);
;	genMult
;	AOP_STK for _MainLoop_rot_1_1
	ld	e,-2(ix)
	ld	d,#0x00
	ld	l,e
	ld	h,d
	add	hl,hl
	add	hl,hl
	add	hl,hl
	add	hl,hl
	add	hl,de
	add	hl,hl
	add	hl,de
	add	hl,hl
	add	hl,de
	add	hl,hl
	add	hl,de
	ld	c,l
	ld	b,h
;	genPlus
	ld	hl,#_car1
	add	hl,bc
	ld	e,l
	ld	d,h
;	genCast
;	AOP_STK for _MainLoop_sloc3_1_0
	ld	-14(ix),e
	ld	-13(ix),d
;	genRightShift
;	AOP_STK for _MainLoop_posY_1_1
	ld	e,-5(ix)
	ld	d,#0x00
;	genCast
;	AOP_STK for _MainLoop_sloc1_1_0
	ld	-10(ix),e
;	genRightShift
;	AOP_STK for _MainLoop_posX_1_1
	ld	d,-3(ix)
	ld	e,#0x00
;	genCast
;	genIpush
; _saveRegsForCall: sendSetSize: 0 deInUse: 0 bcInUse: 1 deSending: 0
	push	bc
;	AOP_STK for _MainLoop_sloc3_1_0
	ld	l,-14(ix)
	ld	h,-13(ix)
	push	hl
;	genIpush
	ld	hl,#0x0B0D
	push	hl
;	genIpush
;	AOP_STK for _MainLoop_sloc1_1_0
	ld	a,-10(ix)
	push	af
	inc	sp
;	genIpush
	push	de
	inc	sp
;	genIpush
;	AOP_STK for _MainLoop_page_1_1
	ld	a,-1(ix)
	push	af
	inc	sp
;	genCall
	call	_RAMtoVRAMTrans
	pop	af
	pop	af
	pop	af
	inc	sp
	pop	bc
;carwar.c:260: RAMtoVRAMTrans(page, 20, 50, 13, 11, (u16)&car2[rot * 13 * 11]);
;	genPlus
	ld	hl,#_car2
	add	hl,bc
	ld	e,l
	ld	d,h
;	genCast
;	genIpush
; _saveRegsForCall: sendSetSize: 0 deInUse: 0 bcInUse: 1 deSending: 0
	push	bc
	push	de
;	genIpush
	ld	hl,#0x0B0D
	push	hl
;	genIpush
	ld	hl,#0x3214
	push	hl
;	genIpush
;	AOP_STK for _MainLoop_page_1_1
	ld	a,-1(ix)
	push	af
	inc	sp
;	genCall
	call	_RAMtoVRAMTrans
	pop	af
	pop	af
	pop	af
	inc	sp
	pop	bc
;carwar.c:261: RAMtoVRAMTrans(page, 40, 50, 13, 11, (u16)&car3[rot * 13 * 11]);
;	genPlus
	ld	hl,#_car3
	add	hl,bc
	ld	e,l
	ld	d,h
;	genCast
;	genIpush
; _saveRegsForCall: sendSetSize: 0 deInUse: 0 bcInUse: 1 deSending: 0
	push	bc
	push	de
;	genIpush
	ld	hl,#0x0B0D
	push	hl
;	genIpush
	ld	hl,#0x3228
	push	hl
;	genIpush
;	AOP_STK for _MainLoop_page_1_1
	ld	a,-1(ix)
	push	af
	inc	sp
;	genCall
	call	_RAMtoVRAMTrans
	pop	af
	pop	af
	pop	af
	inc	sp
	pop	bc
;carwar.c:262: RAMtoVRAMTrans(page, 60, 50, 13, 11, (u16)&car4[rot * 13 * 11]);
;	genPlus
	ld	hl,#_car4
	add	hl,bc
	ld	c,l
	ld	b,h
;	genCast
;	genIpush
; _saveRegsForCall: sendSetSize: 0 deInUse: 0 bcInUse: 0 deSending: 0
	push	bc
;	genIpush
	ld	hl,#0x0B0D
	push	hl
;	genIpush
	ld	hl,#0x323C
	push	hl
;	genIpush
;	AOP_STK for _MainLoop_page_1_1
	ld	a,-1(ix)
	push	af
	inc	sp
;	genCall
	call	_RAMtoVRAMTrans
	pop	af
	pop	af
	pop	af
	inc	sp
;carwar.c:283: waitRetrace();
;	genCall
; _saveRegsForCall: sendSetSize: 0 deInUse: 0 bcInUse: 0 deSending: 0
	call	_waitRetrace
;	genGoto
	jp	00117$
;	genLabel
;	genEndFunction
	ld	sp,ix
	pop	ix
	ret
_MainLoop_end::
;carwar.c:430: void SetScreen8()
;	genLabel
;	genFunction
;	---------------------------------
; Function SetScreen8
; ---------------------------------
_SetScreen8_start::
_SetScreen8:
;carwar.c:466: _endasm;
;	genInline
	
	
	
	
		 ld a,(#0xF3DF)
		 set #3,a
		 set #2,a
		 set #1,a
		 ld (#0xF3DF),a
	
		 di
	
		 out (#0x99),a
		 ld a,#(0x80+0)
		 out (#0x99),a
	
	
		 ld a,(#0xF3E0)
		 res #4,a
		 res #3,a
		 ld (#0xF3E0),a
	
		 out (#0x99),a
		 ld a,#(0x80+1)
		 out (#0x99),a
	
	
		 ld a,#0x1F
		 out (#0x99),a
		 ld a,#(0x80+2)
		 out (#0x99),a
	
		 ei
	
		
;	genLabel
;	genEndFunction
	ret
_SetScreen8_end::
;carwar.c:472: void SetPage8(i8 page)
;	genLabel
;	genFunction
;	---------------------------------
; Function SetPage8
; ---------------------------------
_SetPage8_start::
_SetPage8:
	push	ix
	ld	ix,#0
	add	ix,sp
;carwar.c:489: _endasm;
;	genInline
	
	
		 ld a,4(ix)
		 ;
		 ;
		 ;
		 or #0x1F
		 di
		 out (#0x99),a
		 ld a,#(0x80+2)
		 out (#0x99),a
		 ei
	
		
;	genLabel
;	genEndFunction
	pop	ix
	ret
_SetPage8_end::
;carwar.c:495: void DrawPoint8(char posX, char posY, char color)
;	genLabel
;	genFunction
;	---------------------------------
; Function DrawPoint8
; ---------------------------------
_DrawPoint8_start::
_DrawPoint8:
	push	ix
	ld	ix,#0
	add	ix,sp
;carwar.c:499: WaitForVDP();
;	genCall
; _saveRegsForCall: sendSetSize: 0 deInUse: 0 bcInUse: 0 deSending: 0
	call	_WaitForVDP
;carwar.c:547: _endasm;
;	genInline
	
	
	
	
		 ld a,4(ix)
		 di
		 out (#0x99),a
		 ld a,#(0x80+36)
		 out (#0x99),a
	
		 xor a
		 out (#0x99),a
		 ld a,#(0x80+37)
		 out (#0x99),a
	
	
		 ld a,5(ix)
		 out (#0x99),a
		 ld a,#(0x80+38)
		 out (#0x99),a
	
		 xor a
		 out (#0x99),a
		 ld a,#(0x80+39)
		 out (#0x99),a
	
	
		 ld a,6(ix)
		 out (#0x99),a
		 ld a,#(0x80+44)
		 out (#0x99),a
	
	
		 xor a
		 out (#0x99),a
		 ld a,#(0x80+45)
		 out (#0x99),a
	
	
		 ld a,#0x50
		 out (#0x99),a
		 ld a,#(0x80+46)
		 out (#0x99),a
	
		 ei
	
		
;	genLabel
;	genEndFunction
	pop	ix
	ret
_DrawPoint8_end::
;carwar.c:649: void DrawLine8(char posX1, char posY1, char posX2, char posY2, char color)
;	genLabel
;	genFunction
;	---------------------------------
; Function DrawLine8
; ---------------------------------
_DrawLine8_start::
_DrawLine8:
	push	ix
	ld	ix,#0
	add	ix,sp
;carwar.c:653: WaitForVDP();
;	genCall
; _saveRegsForCall: sendSetSize: 0 deInUse: 0 bcInUse: 0 deSending: 0
;	genLabel
;	genEndFunction
	pop	ix
	jp	_WaitForVDP
_DrawLine8_end::
;carwar.c:787: void waitRetrace()
;	genLabel
;	genFunction
;	---------------------------------
; Function waitRetrace
; ---------------------------------
_waitRetrace_start::
_waitRetrace:
;carwar.c:799: _endasm;
;	genInline
	
	
		 di
	 WAIT_RETRACE:
		 in a,(0x99)
		 and #0x80
		 cp #0
		 jr z, WAIT_RETRACE
		 ei
	
		
;	genLabel
;	genEndFunction
	ret
_waitRetrace_end::
;carwar.c:805: void WaitForVDP()
;	genLabel
;	genFunction
;	---------------------------------
; Function WaitForVDP
; ---------------------------------
_WaitForVDP_start::
_WaitForVDP:
;carwar.c:826: _endasm;
;	genInline
	
	
	
		 ld a,#2
		 di
		 out (#0x99),a
		 ld a,#(0x80+15)
		 out (#0x99),a
	 WAIT_VDP:
		 nop
		 in a,(#0x99)
		 rra
		 jr c,WAIT_VDP
		 xor a
		 out (#0x99),a
		 ld a,#(0x80+15)
		 out (#0x99),a
		 ei
	
		
;	genLabel
;	genEndFunction
	ret
_WaitForVDP_end::
;carwar.c:830: char Joystick(char n)
;	genLabel
;	genFunction
;	---------------------------------
; Function Joystick
; ---------------------------------
_Joystick_start::
_Joystick:
	push	ix
	ld	ix,#0
	add	ix,sp
;carwar.c:837: _endasm;
;	genInline
	
		 ld a,4(ix)
		 call 0x00d5
		 ld l,a
		
;	genLabel
;	genEndFunction
	pop	ix
	ret
_Joystick_end::
;carwar.c:841: char Joytrig(char n)
;	genLabel
;	genFunction
;	---------------------------------
; Function Joytrig
; ---------------------------------
_Joytrig_start::
_Joytrig:
	push	ix
	ld	ix,#0
	add	ix,sp
;carwar.c:849: _endasm;
;	genInline
	
		 ld a,4(ix)
		 call 0x00d8
		 ld h,#0x00
		 ld l,a
		
;	genLabel
;	genEndFunction
	pop	ix
	ret
_Joytrig_end::
;carwar.c:853: u8 GetKeyMatrixLine(u8 n)
;	genLabel
;	genFunction
;	---------------------------------
; Function GetKeyMatrixLine
; ---------------------------------
_GetKeyMatrixLine_start::
_GetKeyMatrixLine:
	push	ix
	ld	ix,#0
	add	ix,sp
;carwar.c:860: _endasm;
;	genInline
	
		 ld a,4(ix)
		 call 0x0141
		 ld l,a
		
;	genLabel
;	genEndFunction
	pop	ix
	ret
_GetKeyMatrixLine_end::
;carwar.c:863: void SetTo50Hz()
;	genLabel
;	genFunction
;	---------------------------------
; Function SetTo50Hz
; ---------------------------------
_SetTo50Hz_start::
_SetTo50Hz:
;carwar.c:865: WaitForVDP();
;	genCall
; _saveRegsForCall: sendSetSize: 0 deInUse: 0 bcInUse: 0 deSending: 0
	call	_WaitForVDP
;carwar.c:877: _endasm;
;	genInline
	
	
		 ld a,#2
		 di
		 out (#0x99),a ;
	
		 ld a,#(0x80+9)
		 out (#0x99),a ;
	
		 ei
		
;	genLabel
;	genEndFunction
	ret
_SetTo50Hz_end::
;carwar.c:880: void SetTo60Hz()
;	genLabel
;	genFunction
;	---------------------------------
; Function SetTo60Hz
; ---------------------------------
_SetTo60Hz_start::
_SetTo60Hz:
;carwar.c:882: WaitForVDP();
;	genCall
; _saveRegsForCall: sendSetSize: 0 deInUse: 0 bcInUse: 0 deSending: 0
	call	_WaitForVDP
;carwar.c:894: _endasm;
;	genInline
	
	
		 ld a,#0
		 di
		 out (#0x99),a ;
	
		 ld a,#(0x80+9)
		 out (#0x99),a ;
	
		 ei
		
;	genLabel
;	genEndFunction
	ret
_SetTo60Hz_end::
;carwar.c:900: void WriteToVRAM8(i16 addr, u8 value)
;	genLabel
;	genFunction
;	---------------------------------
; Function WriteToVRAM8
; ---------------------------------
_WriteToVRAM8_start::
_WriteToVRAM8:
	push	ix
	ld	ix,#0
	add	ix,sp
;carwar.c:904: WaitForVDP();
;	genCall
; _saveRegsForCall: sendSetSize: 0 deInUse: 0 bcInUse: 0 deSending: 0
	call	_WaitForVDP
;carwar.c:931: _endasm;
;	genInline
	
		 ;
		 ld a,5(ix) ;
		 and #0xC0 ;
		       rla
		       rla
		 di
		 out (#0x99),a
		 ld a,#(0x80+14)
		 out (#0x99),a
	
		 ld a,4(ix) ;
		 out (#0x99),a
	
		 ld a,5(ix) ;
		 and #0x3F ;
		 or #0x40 ;
		 out (#0x99),a
	
		 ;
		 ld a,6(ix)
		 out (#0x98),a
	
		 ei
		
;	genLabel
;	genEndFunction
	pop	ix
	ret
_WriteToVRAM8_end::
;carwar.c:1043: void VPDCommandLoop(u16 address)
;	genLabel
;	genFunction
;	---------------------------------
; Function VPDCommandLoop
; ---------------------------------
_VPDCommandLoop_start::
_VPDCommandLoop:
	push	ix
	ld	ix,#0
	add	ix,sp
;carwar.c:1098: _endasm;
;	genInline
	
	
		 ld l,4(ix)
		 ld h,5(ix)
	
		 di
	
	 SEND_NEXT_COLOR:
	
		 inc hl
	
		 ;
		 ;
		 ld a,(hl)
		 out (#0x99),a
		 ld a,#(0x80+44)
		 out (#0x99),a
	
	 WAIT_REG2:
	
		 ;
		 ;
		 ld a,#2
		 out (#0x99),a
		 ld a,#(0x80+15)
		 out (#0x99),a
	
		 ;
		 nop
		 in a,(#0x99)
		 ld b,a ;
		 rra ;
		 jr nc,COLOR_COPY_END
	
		 ;
		 ;
		 ld a,b ;
		 rla ;
		 jr nc,WAIT_REG2
		 jp SEND_NEXT_COLOR
	
	 COLOR_COPY_END:
	
		 ;
		 xor a
		 out (#0x99),a
		 ld a,#(0x80+15)
		 out (#0x99),a
	
		 ei
	
		
;	genLabel
;	genEndFunction
	pop	ix
	ret
_VPDCommandLoop_end::
;carwar.c:1101: void RAMtoVRAM(u8 page, u8 dx, u8 dy, u8 nx, u8 ny, u16 ram)
;	genLabel
;	genFunction
;	---------------------------------
; Function RAMtoVRAM
; ---------------------------------
_RAMtoVRAM_start::
_RAMtoVRAM:
	push	ix
	ld	ix,#0
	add	ix,sp
	ld	hl,#-15
	add	hl,sp
	ld	sp,hl
;carwar.c:1107: buffer.DX = dx;
;	genAddrOf
	ld	hl,#0x0004
	add	hl,sp
	ld	c,l
	ld	b,h
;	genCast
;	AOP_STK for 
	ld	e,5(ix)
	ld	d,#0x00
;	genAssign (pointer)
;	isBitvar = 0
	ld	l,c
	ld	h,b
	ld	(hl),e
	inc	hl
	ld	(hl),d
;carwar.c:1108: buffer.DY = dy + ((u16)page << 8);
;	genAddrOf
	ld	hl,#0x0004
	add	hl,sp
	ld	c,l
	ld	b,h
;	genPlus
;	AOP_STK for _RAMtoVRAM_sloc0_1_0
;	genPlusIncr
	ld	a,c
	add	a,#0x02
	ld	-13(ix),a
	ld	a,b
	adc	a,#0x00
	ld	-12(ix),a
;	genCast
;	AOP_STK for 
;	AOP_STK for _RAMtoVRAM_sloc1_1_0
	ld	a,6(ix)
	ld	-15(ix),a
	ld	-14(ix),#0x00
;	genCast
;	AOP_STK for 
	ld	e,4(ix)
;	genLeftShift
	ld	d,e
	ld	e,#0x00
;	genPlus
;	AOP_STK for _RAMtoVRAM_sloc1_1_0
	ld	a,-15(ix)
	add	a,e
	ld	e,a
	ld	a,-14(ix)
	adc	a,d
	ld	d,a
;	genAssign (pointer)
;	AOP_STK for _RAMtoVRAM_sloc0_1_0
;	isBitvar = 0
	ld	l,-13(ix)
	ld	h,-12(ix)
	ld	(hl),e
	inc	hl
	ld	(hl),d
;carwar.c:1109: buffer.NX = nx;
;	genPlus
;	AOP_STK for _RAMtoVRAM_sloc1_1_0
;	genPlusIncr
	ld	a,c
	add	a,#0x04
	ld	-15(ix),a
	ld	a,b
	adc	a,#0x00
	ld	-14(ix),a
;	genCast
;	AOP_STK for 
	ld	e,7(ix)
	ld	d,#0x00
;	genAssign (pointer)
;	AOP_STK for _RAMtoVRAM_sloc1_1_0
;	isBitvar = 0
	ld	l,-15(ix)
	ld	h,-14(ix)
	ld	(hl),e
	inc	hl
	ld	(hl),d
;carwar.c:1110: buffer.NY = ny;
;	genPlus
;	AOP_STK for _RAMtoVRAM_sloc1_1_0
;	genPlusIncr
	ld	a,c
	add	a,#0x06
	ld	-15(ix),a
	ld	a,b
	adc	a,#0x00
	ld	-14(ix),a
;	genCast
;	AOP_STK for 
	ld	e,8(ix)
	ld	d,#0x00
;	genAssign (pointer)
;	AOP_STK for _RAMtoVRAM_sloc1_1_0
;	isBitvar = 0
	ld	l,-15(ix)
	ld	h,-14(ix)
	ld	(hl),e
	inc	hl
	ld	(hl),d
;carwar.c:1111: buffer.CLR = ((u8*)ram)[0];
;	genPlus
;	AOP_STK for _RAMtoVRAM_sloc1_1_0
;	genPlusIncr
	ld	a,c
	add	a,#0x08
	ld	-15(ix),a
	ld	a,b
	adc	a,#0x00
	ld	-14(ix),a
;	genCast
;	AOP_STK for 
	ld	e,9(ix)
	ld	d,10(ix)
;	genPointerGet
	ld	a,(de)
;	genAssign (pointer)
;	AOP_STK for _RAMtoVRAM_sloc1_1_0
;	isBitvar = 0
	ld	l,-15(ix)
	ld	h,-14(ix)
	ld	(hl),a
;carwar.c:1112: buffer.ARG = 0;
;	genPlus
;	genPlusIncr
	ld	a,c
	add	a,#0x09
	ld	e,a
	ld	a,b
	adc	a,#0x00
	ld	d,a
;	genAssign (pointer)
;	isBitvar = 0
	ld	a,#0x00
	ld	(de),a
;carwar.c:1113: buffer.CMD = 0xF0;
;	genPlus
;	genPlusIncr
	ld	a,c
	add	a,#0x0A
	ld	e,a
	ld	a,b
	adc	a,#0x00
	ld	d,a
;	genAssign (pointer)
;	isBitvar = 0
	ld	a,#0xF0
	ld	(de),a
;carwar.c:1114: VPDCommand36((u16)&buffer);
;	genAssign
;	(registers are the same)
;	genCast
;	genIpush
; _saveRegsForCall: sendSetSize: 0 deInUse: 0 bcInUse: 0 deSending: 0
	push	bc
;	genCall
	call	_VPDCommand36
	pop	af
;carwar.c:1115: VPDCommandLoop(ram);
;	genIpush
; _saveRegsForCall: sendSetSize: 0 deInUse: 0 bcInUse: 0 deSending: 0
;	AOP_STK for 
	ld	l,9(ix)
	ld	h,10(ix)
	push	hl
;	genCall
	call	_VPDCommandLoop
	pop	af
;	genLabel
;	genEndFunction
	ld	sp,ix
	pop	ix
	ret
_RAMtoVRAM_end::
;carwar.c:1119: void RAMtoVRAMTrans(u8 page, u8 dx, u8 dy, u8 nx, u8 ny, u16 ram)
;	genLabel
;	genFunction
;	---------------------------------
; Function RAMtoVRAMTrans
; ---------------------------------
_RAMtoVRAMTrans_start::
_RAMtoVRAMTrans:
	push	ix
	ld	ix,#0
	add	ix,sp
	ld	hl,#-15
	add	hl,sp
	ld	sp,hl
;carwar.c:1125: buffer.DX = dx;
;	genAddrOf
	ld	hl,#0x0004
	add	hl,sp
	ld	c,l
	ld	b,h
;	genCast
;	AOP_STK for 
	ld	e,5(ix)
	ld	d,#0x00
;	genAssign (pointer)
;	isBitvar = 0
	ld	l,c
	ld	h,b
	ld	(hl),e
	inc	hl
	ld	(hl),d
;carwar.c:1126: buffer.DY = dy + ((u16)page << 8);
;	genAddrOf
	ld	hl,#0x0004
	add	hl,sp
	ld	c,l
	ld	b,h
;	genPlus
;	AOP_STK for _RAMtoVRAMTrans_sloc0_1_0
;	genPlusIncr
	ld	a,c
	add	a,#0x02
	ld	-13(ix),a
	ld	a,b
	adc	a,#0x00
	ld	-12(ix),a
;	genCast
;	AOP_STK for 
;	AOP_STK for _RAMtoVRAMTrans_sloc1_1_0
	ld	a,6(ix)
	ld	-15(ix),a
	ld	-14(ix),#0x00
;	genCast
;	AOP_STK for 
	ld	e,4(ix)
;	genLeftShift
	ld	d,e
	ld	e,#0x00
;	genPlus
;	AOP_STK for _RAMtoVRAMTrans_sloc1_1_0
	ld	a,-15(ix)
	add	a,e
	ld	e,a
	ld	a,-14(ix)
	adc	a,d
	ld	d,a
;	genAssign (pointer)
;	AOP_STK for _RAMtoVRAMTrans_sloc0_1_0
;	isBitvar = 0
	ld	l,-13(ix)
	ld	h,-12(ix)
	ld	(hl),e
	inc	hl
	ld	(hl),d
;carwar.c:1127: buffer.NX = nx;
;	genPlus
;	AOP_STK for _RAMtoVRAMTrans_sloc1_1_0
;	genPlusIncr
	ld	a,c
	add	a,#0x04
	ld	-15(ix),a
	ld	a,b
	adc	a,#0x00
	ld	-14(ix),a
;	genCast
;	AOP_STK for 
	ld	e,7(ix)
	ld	d,#0x00
;	genAssign (pointer)
;	AOP_STK for _RAMtoVRAMTrans_sloc1_1_0
;	isBitvar = 0
	ld	l,-15(ix)
	ld	h,-14(ix)
	ld	(hl),e
	inc	hl
	ld	(hl),d
;carwar.c:1128: buffer.NY = ny;
;	genPlus
;	AOP_STK for _RAMtoVRAMTrans_sloc1_1_0
;	genPlusIncr
	ld	a,c
	add	a,#0x06
	ld	-15(ix),a
	ld	a,b
	adc	a,#0x00
	ld	-14(ix),a
;	genCast
;	AOP_STK for 
	ld	e,8(ix)
	ld	d,#0x00
;	genAssign (pointer)
;	AOP_STK for _RAMtoVRAMTrans_sloc1_1_0
;	isBitvar = 0
	ld	l,-15(ix)
	ld	h,-14(ix)
	ld	(hl),e
	inc	hl
	ld	(hl),d
;carwar.c:1129: buffer.CLR = ((u8*)ram)[0];
;	genPlus
;	AOP_STK for _RAMtoVRAMTrans_sloc1_1_0
;	genPlusIncr
	ld	a,c
	add	a,#0x08
	ld	-15(ix),a
	ld	a,b
	adc	a,#0x00
	ld	-14(ix),a
;	genCast
;	AOP_STK for 
	ld	e,9(ix)
	ld	d,10(ix)
;	genPointerGet
	ld	a,(de)
;	genAssign (pointer)
;	AOP_STK for _RAMtoVRAMTrans_sloc1_1_0
;	isBitvar = 0
	ld	l,-15(ix)
	ld	h,-14(ix)
	ld	(hl),a
;carwar.c:1130: buffer.ARG = 0;
;	genPlus
;	genPlusIncr
	ld	a,c
	add	a,#0x09
	ld	e,a
	ld	a,b
	adc	a,#0x00
	ld	d,a
;	genAssign (pointer)
;	isBitvar = 0
	ld	a,#0x00
	ld	(de),a
;carwar.c:1131: buffer.CMD = 0xB8;
;	genPlus
;	genPlusIncr
	ld	a,c
	add	a,#0x0A
	ld	e,a
	ld	a,b
	adc	a,#0x00
	ld	d,a
;	genAssign (pointer)
;	isBitvar = 0
	ld	a,#0xB8
	ld	(de),a
;carwar.c:1132: VPDCommand36((u16)&buffer);
;	genAssign
;	(registers are the same)
;	genCast
;	genIpush
; _saveRegsForCall: sendSetSize: 0 deInUse: 0 bcInUse: 0 deSending: 0
	push	bc
;	genCall
	call	_VPDCommand36
	pop	af
;carwar.c:1133: VPDCommandLoop(ram);
;	genIpush
; _saveRegsForCall: sendSetSize: 0 deInUse: 0 bcInUse: 0 deSending: 0
;	AOP_STK for 
	ld	l,9(ix)
	ld	h,10(ix)
	push	hl
;	genCall
	call	_VPDCommandLoop
	pop	af
;	genLabel
;	genEndFunction
	ld	sp,ix
	pop	ix
	ret
_RAMtoVRAMTrans_end::
;carwar.c:1136: void Fill8(u8 page, u8 dx, u8 dy, u8 nx, u8 ny, u8 color)
;	genLabel
;	genFunction
;	---------------------------------
; Function Fill8
; ---------------------------------
_Fill8_start::
_Fill8:
	push	ix
	ld	ix,#0
	add	ix,sp
	ld	hl,#-15
	add	hl,sp
	ld	sp,hl
;carwar.c:1142: buffer.DX = dx;
;	genAddrOf
	ld	hl,#0x0004
	add	hl,sp
	ld	c,l
	ld	b,h
;	genCast
;	AOP_STK for 
	ld	e,5(ix)
	ld	d,#0x00
;	genAssign (pointer)
;	isBitvar = 0
	ld	l,c
	ld	h,b
	ld	(hl),e
	inc	hl
	ld	(hl),d
;carwar.c:1143: buffer.DY = dy + ((u16)page << 8);
;	genAddrOf
	ld	hl,#0x0004
	add	hl,sp
	ld	c,l
	ld	b,h
;	genPlus
;	AOP_STK for _Fill8_sloc0_1_0
;	genPlusIncr
	ld	a,c
	add	a,#0x02
	ld	-13(ix),a
	ld	a,b
	adc	a,#0x00
	ld	-12(ix),a
;	genCast
;	AOP_STK for 
;	AOP_STK for _Fill8_sloc1_1_0
	ld	a,6(ix)
	ld	-15(ix),a
	ld	-14(ix),#0x00
;	genCast
;	AOP_STK for 
	ld	e,4(ix)
;	genLeftShift
	ld	d,e
	ld	e,#0x00
;	genPlus
;	AOP_STK for _Fill8_sloc1_1_0
	ld	a,-15(ix)
	add	a,e
	ld	e,a
	ld	a,-14(ix)
	adc	a,d
	ld	d,a
;	genAssign (pointer)
;	AOP_STK for _Fill8_sloc0_1_0
;	isBitvar = 0
	ld	l,-13(ix)
	ld	h,-12(ix)
	ld	(hl),e
	inc	hl
	ld	(hl),d
;carwar.c:1144: buffer.NX = nx;
;	genPlus
;	AOP_STK for _Fill8_sloc1_1_0
;	genPlusIncr
	ld	a,c
	add	a,#0x04
	ld	-15(ix),a
	ld	a,b
	adc	a,#0x00
	ld	-14(ix),a
;	genCast
;	AOP_STK for 
	ld	e,7(ix)
	ld	d,#0x00
;	genAssign (pointer)
;	AOP_STK for _Fill8_sloc1_1_0
;	isBitvar = 0
	ld	l,-15(ix)
	ld	h,-14(ix)
	ld	(hl),e
	inc	hl
	ld	(hl),d
;carwar.c:1145: buffer.NY = ny;
;	genPlus
;	AOP_STK for _Fill8_sloc1_1_0
;	genPlusIncr
	ld	a,c
	add	a,#0x06
	ld	-15(ix),a
	ld	a,b
	adc	a,#0x00
	ld	-14(ix),a
;	genCast
;	AOP_STK for 
	ld	e,8(ix)
	ld	d,#0x00
;	genAssign (pointer)
;	AOP_STK for _Fill8_sloc1_1_0
;	isBitvar = 0
	ld	l,-15(ix)
	ld	h,-14(ix)
	ld	(hl),e
	inc	hl
	ld	(hl),d
;carwar.c:1146: buffer.CLR = color;
;	genPlus
;	genPlusIncr
	ld	a,c
	add	a,#0x08
	ld	e,a
	ld	a,b
	adc	a,#0x00
	ld	d,a
;	genAssign (pointer)
;	AOP_STK for 
;	isBitvar = 0
	ld	a,9(ix)
	ld	(de),a
;carwar.c:1147: buffer.ARG = 0;
;	genPlus
;	genPlusIncr
	ld	a,c
	add	a,#0x09
	ld	e,a
	ld	a,b
	adc	a,#0x00
	ld	d,a
;	genAssign (pointer)
;	isBitvar = 0
	ld	a,#0x00
	ld	(de),a
;carwar.c:1148: buffer.CMD = 0xC0;
;	genPlus
;	genPlusIncr
	ld	a,c
	add	a,#0x0A
	ld	e,a
	ld	a,b
	adc	a,#0x00
	ld	d,a
;	genAssign (pointer)
;	isBitvar = 0
	ld	a,#0xC0
	ld	(de),a
;carwar.c:1149: VPDCommand36((u16)&buffer);
;	genAssign
;	(registers are the same)
;	genCast
;	genIpush
; _saveRegsForCall: sendSetSize: 0 deInUse: 0 bcInUse: 0 deSending: 0
	push	bc
;	genCall
	call	_VPDCommand36
	pop	af
;	genLabel
;	genEndFunction
	ld	sp,ix
	pop	ix
	ret
_Fill8_end::
;carwar.c:1164: void VPDCommand32(u16 address)
;	genLabel
;	genFunction
;	---------------------------------
; Function VPDCommand32
; ---------------------------------
_VPDCommand32_start::
_VPDCommand32:
	push	ix
	ld	ix,#0
	add	ix,sp
;carwar.c:1168: WaitForVDP();
;	genCall
; _saveRegsForCall: sendSetSize: 0 deInUse: 0 bcInUse: 0 deSending: 0
	call	_WaitForVDP
;carwar.c:1198: _endasm;
;	genInline
	
	
		 ld l,4(ix)
		 ld h,5(ix)
	
		 ld a,#32
		 di
		 out (#0x99),a
		 ld a,#(0x80+17)
		 out (#0x99),a
		 ld c,#0x99 +#2
		 outi
		 outi
		 outi
		 outi
		 outi
		 outi
		 outi
		 outi
		 outi
		 outi
		 outi
		 outi
		 outi
		 outi
		 ei
		 outi
	
		
;	genLabel
;	genEndFunction
	pop	ix
	ret
_VPDCommand32_end::
;carwar.c:1204: void VPDCommand36(u16 address)
;	genLabel
;	genFunction
;	---------------------------------
; Function VPDCommand36
; ---------------------------------
_VPDCommand36_start::
_VPDCommand36:
	push	ix
	ld	ix,#0
	add	ix,sp
;carwar.c:1208: WaitForVDP();
;	genCall
; _saveRegsForCall: sendSetSize: 0 deInUse: 0 bcInUse: 0 deSending: 0
	call	_WaitForVDP
;carwar.c:1234: _endasm;
;	genInline
	
	
		 ld l,4(ix)
		 ld h,5(ix)
		 ;
		 ld a,#36 ;
		 di
		 out (#0x99),a
		 ld a,#(0x80+17)
		 out (#0x99),a ;
		 ld c,#0x99 +#2 ;
		 outi
		 outi
		 outi
		 outi
		 outi
		 outi
		 outi
		 outi
		 outi
		 outi
		 ei ;
		 outi
	
		
;	genLabel
;	genEndFunction
	pop	ix
	ret
_VPDCommand36_end::
	.area _CODE
	.area _CABS
