;--------------------------------------------------------
; File Created by SDCC : free open source ANSI-C Compiler
; Version 2.8.0 #5117 (Mar 23 2008) (MINGW32)
; This file was generated Tue Jan 25 15:37:43 2011
;--------------------------------------------------------
	.module carwar
	.optsdcc -mz80
	
;--------------------------------------------------------
; Public variables in this module
;--------------------------------------------------------
	.globl _main
	.globl _car4
	.globl _car3
	.globl _car2
	.globl _car1
	.globl _MainLoop
	.globl _SetScreen8
	.globl _SetPage8
	.globl _DrawPoint8
	.globl _DrawLine8
	.globl _VPDCommand
	.globl _waitRetrace
	.globl _WaitForVDP
	.globl _Joystick
	.globl _Joytrig
	.globl _GetKeyMatrixLine
	.globl _SetTo50Hz
	.globl _SetTo60Hz
	.globl _WriteToVRAM8
	.globl _HMMC
	.globl _Fill8
	.globl _SetupHMMC
;--------------------------------------------------------
; special function registers
;--------------------------------------------------------
_g_slotPort	=	0x00a8
;--------------------------------------------------------
;  ram data
;--------------------------------------------------------
	.area _DATA
;--------------------------------------------------------
; overlayable items in  ram 
;--------------------------------------------------------
	.area _OVERLAY
;--------------------------------------------------------
; external initialized ram data
;--------------------------------------------------------
;--------------------------------------------------------
; global & static initialisations
;--------------------------------------------------------
	.area _HOME
	.area _GSINIT
	.area _GSFINAL
	.area _GSINIT
;--------------------------------------------------------
; Home
;--------------------------------------------------------
	.area _HOME
	.area _HOME
;--------------------------------------------------------
; code
;--------------------------------------------------------
	.area _CODE
;carwar.c:153: void main(void)
;	genLabel
;	genFunction
;	---------------------------------
; Function main
; ---------------------------------
_main_start::
_main:
;carwar.c:159: _endasm;
;	genInline
	
		 di
		 ld sp, (#0xFC4A)
		 ei
		
;carwar.c:161: g_slotPort = (g_slotPort & 0xCF) | ((g_slotPort & 0x0C) << 2);
;	genAnd
;Z80 AOP_SFR for _g_slotPort banked:0 bc:1 de:0
	in	a,(_g_slotPort)
	and	a,#0xCF
	ld	c,a
;	genAnd
;Z80 AOP_SFR for _g_slotPort banked:0 bc:1 de:0
	in	a,(_g_slotPort)
	and	a,#0x0C
	ld	b,a
;	genLeftShift
	sla	b
	sla	b
;	genOr
;Z80 AOP_SFR for _g_slotPort banked:0 bc:1 de:0
	ld	a,c
	or	a,b
	out	(_g_slotPort),a
;carwar.c:163: MainLoop();
;	genCall
; _saveRegsForCall: sendSetSize: 0 deInUse: 0 bcInUse: 0 deSending: 0
;	genLabel
;	genEndFunction
	jp	_MainLoop
_main_end::
_car1:
	.db #0x1A
	.db #0x1A
	.db #0x1A
	.db #0x1A
	.db #0x1A
	.db #0x1A
	.db #0x1A
	.db #0x1A
	.db #0x1A
	.db #0x1A
	.db #0x1A
	.db #0x1A
	.db #0x1A
	.db #0x1A
	.db #0x1A
	.db #0x1A
	.db #0x1A
	.db #0x1A
	.db #0x1A
	.db #0x1A
	.db #0x1A
	.db #0x1A
	.db #0x1A
	.db #0x1A
	.db #0x1A
	.db #0x1A
	.db #0x1A
	.db #0x1A
	.db #0x00
	.db #0x00
	.db #0x00
	.db #0x10
	.db #0x21
	.db #0x1A
	.db #0x1A
	.db #0x1A
	.db #0x1A
	.db #0x1A
	.db #0x1A
	.db #0x6D
	.db #0x49
	.db #0x00
	.db #0x21
	.db #0x00
	.db #0xFB
	.db #0x21
	.db #0x21
	.db #0x91
	.db #0x92
	.db #0xBC
	.db #0x6D
	.db #0x1A
	.db #0x1A
	.db #0x00
	.db #0x21
	.db #0x42
	.db #0x00
	.db #0xD6
	.db #0x63
	.db #0x42
	.db #0xDA
	.db #0xB6
	.db #0x49
	.db #0x6D
	.db #0x1A
	.db #0x1A
	.db #0x00
	.db #0x21
	.db #0x63
	.db #0x00
	.db #0x1C
	.db #0x42
	.db #0x42
	.db #0xDA
	.db #0x92
	.db #0xFC
	.db #0x6D
	.db #0x1A
	.db #0x1A
	.db #0x00
	.db #0x00
	.db #0x00
	.db #0x00
	.db #0x00
	.db #0x00
	.db #0x92
	.db #0xDA
	.db #0xDA
	.db #0xDA
	.db #0x91
	.db #0x1A
	.db #0x1A
	.db #0x00
	.db #0x00
	.db #0x00
	.db #0x00
	.db #0x00
	.db #0x49
	.db #0x6D
	.db #0x6D
	.db #0x00
	.db #0x00
	.db #0x6D
	.db #0x1A
	.db #0x1A
	.db #0x1A
	.db #0x00
	.db #0x00
	.db #0x1A
	.db #0x1A
	.db #0x1A
	.db #0x1A
	.db #0x1A
	.db #0x00
	.db #0x00
	.db #0x1A
	.db #0x1A
	.db #0x1A
	.db #0x1A
	.db #0x1A
	.db #0x1A
	.db #0x1A
	.db #0x1A
	.db #0x1A
	.db #0x1A
	.db #0x1A
	.db #0x1A
	.db #0x1A
	.db #0x1A
	.db #0x1A
	.db #0x1A
	.db #0x1A
	.db #0x1A
	.db #0x1A
	.db #0x1A
	.db #0x1A
	.db #0x1A
	.db #0x1A
	.db #0x1A
	.db #0x1A
	.db #0x1A
	.db #0x1A
	.db #0x1A
	.db #0x1A
	.db #0x1A
	.db #0x1A
	.db #0x1A
	.db #0x1A
	.db #0x1A
	.db #0x1A
	.db #0x1A
	.db #0x1A
	.db #0x1A
	.db #0x1A
	.db #0x1A
	.db #0x1A
	.db #0x1A
	.db #0x1A
	.db #0x1A
	.db #0x1A
	.db #0x1A
	.db #0x1A
	.db #0x1A
	.db #0x1A
	.db #0x1A
	.db #0x1A
	.db #0x1A
	.db #0x1A
	.db #0x1A
	.db #0x1A
	.db #0x1A
	.db #0x1A
	.db #0x1A
	.db #0x1A
	.db #0x10
	.db #0x21
	.db #0x1A
	.db #0x6D
	.db #0xB8
	.db #0x49
	.db #0x1A
	.db #0x1A
	.db #0x1A
	.db #0x1A
	.db #0x1A
	.db #0x00
	.db #0x00
	.db #0xFB
	.db #0x21
	.db #0x21
	.db #0x21
	.db #0xB6
	.db #0x49
	.db #0x6D
	.db #0x1A
	.db #0x1A
	.db #0x00
	.db #0x00
	.db #0x00
	.db #0x00
	.db #0xD6
	.db #0x63
	.db #0x42
	.db #0x21
	.db #0x92
	.db #0xDA
	.db #0x6D
	.db #0x1A
	.db #0x6D
	.db #0x00
	.db #0x21
	.db #0x21
	.db #0x00
	.db #0x00
	.db #0x1C
	.db #0x42
	.db #0x21
	.db #0xDA
	.db #0xDC
	.db #0x49
	.db #0x1A
	.db #0x1A
	.db #0x00
	.db #0x00
	.db #0x42
	.db #0x42
	.db #0x00
	.db #0x00
	.db #0x00
	.db #0x92
	.db #0x6D
	.db #0x49
	.db #0x00
	.db #0x1A
	.db #0x1A
	.db #0x00
	.db #0x00
	.db #0x00
	.db #0x00
	.db #0x00
	.db #0x00
	.db #0x6D
	.db #0x6D
	.db #0x49
	.db #0x00
	.db #0x00
	.db #0x1A
	.db #0x1A
	.db #0x1A
	.db #0x00
	.db #0x00
	.db #0x00
	.db #0x1A
	.db #0x1A
	.db #0x1A
	.db #0x1A
	.db #0x1A
	.db #0x1A
	.db #0x1A
	.db #0x1A
	.db #0x1A
	.db #0x1A
	.db #0x1A
	.db #0x1A
	.db #0x1A
	.db #0x1A
	.db #0x1A
	.db #0x1A
	.db #0x1A
	.db #0x1A
	.db #0x1A
	.db #0x1A
	.db #0x1A
	.db #0x1A
	.db #0x1A
	.db #0x1A
	.db #0x1A
	.db #0x1A
	.db #0x1A
	.db #0x1A
	.db #0x1A
	.db #0x1A
	.db #0x1A
	.db #0x1A
	.db #0x1A
	.db #0x1A
	.db #0x1A
	.db #0x1A
	.db #0x1A
	.db #0x1A
	.db #0x1A
	.db #0x1A
	.db #0x1A
	.db #0x49
	.db #0x6D
	.db #0x1A
	.db #0x1A
	.db #0x1A
	.db #0x1A
	.db #0x1A
	.db #0x1A
	.db #0x1A
	.db #0x1A
	.db #0x1A
	.db #0x1A
	.db #0x6D
	.db #0x6D
	.db #0xBC
	.db #0x49
	.db #0x1A
	.db #0x1A
	.db #0x1A
	.db #0x1A
	.db #0x1A
	.db #0x1A
	.db #0x1A
	.db #0x1A
	.db #0x21
	.db #0x21
	.db #0xB6
	.db #0xDA
	.db #0x91
	.db #0x49
	.db #0x1A
	.db #0x1A
	.db #0x1A
	.db #0x1A
	.db #0x1A
	.db #0x10
	.db #0x00
	.db #0x41
	.db #0x62
	.db #0x41
	.db #0xDA
	.db #0xDA
	.db #0xFC
	.db #0x6D
	.db #0x1A
	.db #0x1A
	.db #0x1A
	.db #0x1A
	.db #0xB2
	.db #0xFB
	.db #0x00
	.db #0x00
	.db #0x63
	.db #0x00
	.db #0xDA
	.db #0x91
	.db #0x00
	.db #0x1A
	.db #0x1A
	.db #0x1A
	.db #0x00
	.db #0x21
	.db #0x00
	.db #0x1C
	.db #0x00
	.db #0x00
	.db #0x00
	.db #0x91
	.db #0x00
	.db #0x1A
	.db #0x1A
	.db #0x1A
	.db #0x00
	.db #0x21
	.db #0x41
	.db #0x63
	.db #0x42
	.db #0x00
	.db #0x00
	.db #0x6D
	.db #0x1A
	.db #0x1A
	.db #0x1A
	.db #0x1A
	.db #0x1A
	.db #0x6D
	.db #0x00
	.db #0x00
	.db #0x42
	.db #0x00
	.db #0x00
	.db #0x00
	.db #0x49
	.db #0x1A
	.db #0x1A
	.db #0x1A
	.db #0x1A
	.db #0x1A
	.db #0x1A
	.db #0x00
	.db #0x00
	.db #0x00
	.db #0x00
	.db #0x00
	.db #0x1A
	.db #0x1A
	.db #0x1A
	.db #0x1A
	.db #0x1A
	.db #0x1A
	.db #0x1A
	.db #0x1A
	.db #0x1A
	.db #0x00
	.db #0x00
	.db #0x00
	.db #0x1A
	.db #0x1A
	.db #0x1A
	.db #0x1A
	.db #0x1A
	.db #0x1A
	.db #0x1A
	.db #0x1A
	.db #0x1A
	.db #0x1A
	.db #0x1A
	.db #0x1A
	.db #0x1A
	.db #0x1A
	.db #0x1A
	.db #0x1A
	.db #0x1A
	.db #0x1A
	.db #0x1A
	.db #0x1A
	.db #0x1A
	.db #0x1A
	.db #0x1A
	.db #0x1A
	.db #0x1A
	.db #0x1A
	.db #0xB6
	.db #0xB8
	.db #0x1A
	.db #0x1A
	.db #0x1A
	.db #0x1A
	.db #0x1A
	.db #0x1A
	.db #0x1A
	.db #0x1A
	.db #0x1A
	.db #0x1A
	.db #0x92
	.db #0xDA
	.db #0x6D
	.db #0x6D
	.db #0xB8
	.db #0x1A
	.db #0x1A
	.db #0x1A
	.db #0x1A
	.db #0x1A
	.db #0x1A
	.db #0x1A
	.db #0x1A
	.db #0xDA
	.db #0xDA
	.db #0xDA
	.db #0xB6
	.db #0x91
	.db #0x49
	.db #0x1A
	.db #0x1A
	.db #0x1A
	.db #0x1A
	.db #0x1A
	.db #0x1A
	.db #0x21
	.db #0x21
	.db #0x42
	.db #0xDA
	.db #0xDA
	.db #0x6D
	.db #0x24
	.db #0x1A
	.db #0x1A
	.db #0x1A
	.db #0x1A
	.db #0x1A
	.db #0x10
	.db #0x00
	.db #0x21
	.db #0x42
	.db #0x63
	.db #0x91
	.db #0x49
	.db #0x00
	.db #0x1A
	.db #0x1A
	.db #0x1A
	.db #0x1A
	.db #0x1A
	.db #0xB2
	.db #0xFB
	.db #0x00
	.db #0x00
	.db #0x63
	.db #0x24
	.db #0x24
	.db #0x1A
	.db #0x1A
	.db #0x1A
	.db #0x1A
	.db #0x1A
	.db #0x1A
	.db #0x00
	.db #0x00
	.db #0x1C
	.db #0x00
	.db #0x00
	.db #0x00
	.db #0x00
	.db #0x1A
	.db #0x1A
	.db #0x1A
	.db #0x1A
	.db #0x1A
	.db #0x00
	.db #0x21
	.db #0x42
	.db #0x63
	.db #0x00
	.db #0x00
	.db #0x00
	.db #0x1A
	.db #0x1A
	.db #0x1A
	.db #0x1A
	.db #0x1A
	.db #0x1A
	.db #0x00
	.db #0x00
	.db #0x21
	.db #0x21
	.db #0x21
	.db #0x00
	.db #0x00
	.db #0x1A
	.db #0x1A
	.db #0x1A
	.db #0x1A
	.db #0x1A
	.db #0x1A
	.db #0x6D
	.db #0x00
	.db #0x00
	.db #0x00
	.db #0x00
	.db #0x00
	.db #0x1A
	.db #0x1A
	.db #0x1A
	.db #0x1A
	.db #0x1A
	.db #0x1A
	.db #0x1A
	.db #0x1A
	.db #0x1A
	.db #0x00
	.db #0x00
	.db #0x00
	.db #0x00
	.db #0x1A
	.db #0x1A
	.db #0x1A
	.db #0x1A
	.db #0x1A
	.db #0x1A
	.db #0x1A
	.db #0x1A
	.db #0x6D
	.db #0x98
	.db #0x24
	.db #0x49
	.db #0x98
	.db #0x6D
	.db #0x1A
	.db #0x1A
	.db #0x1A
	.db #0x1A
	.db #0x1A
	.db #0x1A
	.db #0x1A
	.db #0xB6
	.db #0x92
	.db #0xDA
	.db #0xDA
	.db #0x92
	.db #0xB6
	.db #0x1A
	.db #0x1A
	.db #0x1A
	.db #0x1A
	.db #0x1A
	.db #0x1A
	.db #0x00
	.db #0x91
	.db #0xDA
	.db #0xDA
	.db #0xDA
	.db #0xDA
	.db #0x92
	.db #0x00
	.db #0x1A
	.db #0x1A
	.db #0x1A
	.db #0x1A
	.db #0x1A
	.db #0x00
	.db #0x6D
	.db #0x21
	.db #0x41
	.db #0x42
	.db #0x63
	.db #0x6D
	.db #0x00
	.db #0x1A
	.db #0x1A
	.db #0x1A
	.db #0x1A
	.db #0x1A
	.db #0x1A
	.db #0x24
	.db #0x41
	.db #0x42
	.db #0x63
	.db #0x42
	.db #0x24
	.db #0x1A
	.db #0x1A
	.db #0x1A
	.db #0x1A
	.db #0x1A
	.db #0x1A
	.db #0x1A
	.db #0x00
	.db #0x10
	.db #0xFB
	.db #0xD6
	.db #0x1C
	.db #0x00
	.db #0x1A
	.db #0x1A
	.db #0x1A
	.db #0x1A
	.db #0x1A
	.db #0x1A
	.db #0x1A
	.db #0x00
	.db #0x00
	.db #0x00
	.db #0x00
	.db #0x00
	.db #0x00
	.db #0x1A
	.db #0x1A
	.db #0x1A
	.db #0x1A
	.db #0x1A
	.db #0x1A
	.db #0x1A
	.db #0x00
	.db #0x21
	.db #0x42
	.db #0x63
	.db #0x21
	.db #0x00
	.db #0x1A
	.db #0x1A
	.db #0x1A
	.db #0x1A
	.db #0x1A
	.db #0x1A
	.db #0x00
	.db #0x00
	.db #0x00
	.db #0x21
	.db #0x21
	.db #0x00
	.db #0x00
	.db #0x00
	.db #0x1A
	.db #0x1A
	.db #0x1A
	.db #0x1A
	.db #0x1A
	.db #0x00
	.db #0x00
	.db #0x00
	.db #0x00
	.db #0x00
	.db #0x00
	.db #0x00
	.db #0x00
	.db #0x1A
	.db #0x1A
	.db #0x1A
	.db #0x1A
	.db #0x1A
	.db #0x1A
	.db #0x00
	.db #0x6D
	.db #0x00
	.db #0x00
	.db #0x00
	.db #0x00
	.db #0x1A
	.db #0x1A
	.db #0x1A
	.db #0x1A
	.db #0x1A
	.db #0x1A
	.db #0x1A
	.db #0x1A
	.db #0x49
	.db #0x98
	.db #0x6D
	.db #0x1A
	.db #0x1A
	.db #0x1A
	.db #0x1A
	.db #0x1A
	.db #0x1A
	.db #0x1A
	.db #0x1A
	.db #0x6D
	.db #0x98
	.db #0x49
	.db #0xDA
	.db #0x92
	.db #0x1A
	.db #0x1A
	.db #0x1A
	.db #0x1A
	.db #0x1A
	.db #0x1A
	.db #0x1A
	.db #0x1A
	.db #0x92
	.db #0x92
	.db #0xDA
	.db #0xDA
	.db #0xDA
	.db #0x6D
	.db #0x1A
	.db #0x1A
	.db #0x1A
	.db #0x1A
	.db #0x1A
	.db #0x1A
	.db #0x1A
	.db #0x00
	.db #0x91
	.db #0x6D
	.db #0x41
	.db #0x42
	.db #0x42
	.db #0x00
	.db #0x1A
	.db #0x1A
	.db #0x1A
	.db #0x1A
	.db #0x1A
	.db #0x1A
	.db #0x00
	.db #0x6D
	.db #0x41
	.db #0x42
	.db #0x63
	.db #0x1C
	.db #0x00
	.db #0x1A
	.db #0x1A
	.db #0x1A
	.db #0x1A
	.db #0x1A
	.db #0x1A
	.db #0x1A
	.db #0x24
	.db #0x10
	.db #0xFB
	.db #0xD6
	.db #0x00
	.db #0x00
	.db #0x00
	.db #0x1A
	.db #0x1A
	.db #0x1A
	.db #0x1A
	.db #0x1A
	.db #0x1A
	.db #0x00
	.db #0x00
	.db #0x00
	.db #0x00
	.db #0x63
	.db #0x21
	.db #0x00
	.db #0x1A
	.db #0x1A
	.db #0x1A
	.db #0x1A
	.db #0x1A
	.db #0x1A
	.db #0x1A
	.db #0x00
	.db #0x00
	.db #0x63
	.db #0x42
	.db #0x21
	.db #0x00
	.db #0x00
	.db #0x1A
	.db #0x1A
	.db #0x1A
	.db #0x1A
	.db #0x1A
	.db #0x1A
	.db #0x1A
	.db #0x00
	.db #0x00
	.db #0x42
	.db #0x00
	.db #0x00
	.db #0x00
	.db #0x1A
	.db #0x1A
	.db #0x1A
	.db #0x1A
	.db #0x1A
	.db #0x1A
	.db #0x1A
	.db #0x00
	.db #0x00
	.db #0x00
	.db #0x00
	.db #0x00
	.db #0x1A
	.db #0x1A
	.db #0x1A
	.db #0x1A
	.db #0x1A
	.db #0x1A
	.db #0x1A
	.db #0x1A
	.db #0x1A
	.db #0x00
	.db #0x6D
	.db #0x1A
	.db #0x1A
	.db #0x1A
	.db #0x1A
	.db #0x1A
	.db #0x1A
	.db #0x1A
	.db #0x1A
	.db #0x1A
	.db #0x1A
	.db #0x1A
	.db #0x1A
	.db #0x1A
	.db #0x1A
	.db #0x1A
	.db #0x1A
	.db #0x1A
	.db #0x1A
	.db #0x1A
	.db #0x1A
	.db #0x49
	.db #0xBC
	.db #0x6D
	.db #0x6D
	.db #0x1A
	.db #0x1A
	.db #0x1A
	.db #0x1A
	.db #0x1A
	.db #0x1A
	.db #0x1A
	.db #0x1A
	.db #0x49
	.db #0xDA
	.db #0xDA
	.db #0xB6
	.db #0x21
	.db #0x49
	.db #0x1A
	.db #0x1A
	.db #0x1A
	.db #0x1A
	.db #0x1A
	.db #0x1A
	.db #0x1A
	.db #0xFC
	.db #0xDA
	.db #0xDA
	.db #0x41
	.db #0x62
	.db #0x41
	.db #0x00
	.db #0x1C
	.db #0x1A
	.db #0x1A
	.db #0x1A
	.db #0x1A
	.db #0x1A
	.db #0x6D
	.db #0xDA
	.db #0x49
	.db #0x63
	.db #0x00
	.db #0x00
	.db #0xFB
	.db #0x00
	.db #0x00
	.db #0x1A
	.db #0x1A
	.db #0x1A
	.db #0x1A
	.db #0x00
	.db #0x6D
	.db #0x00
	.db #0x00
	.db #0x00
	.db #0x10
	.db #0x00
	.db #0x21
	.db #0x00
	.db #0x00
	.db #0x1A
	.db #0x1A
	.db #0x1A
	.db #0x1A
	.db #0x00
	.db #0x49
	.db #0x00
	.db #0x00
	.db #0x21
	.db #0x63
	.db #0x41
	.db #0x21
	.db #0x00
	.db #0x00
	.db #0x1A
	.db #0x1A
	.db #0x1A
	.db #0x1A
	.db #0x1A
	.db #0x00
	.db #0x00
	.db #0x41
	.db #0x42
	.db #0x00
	.db #0x00
	.db #0x00
	.db #0x00
	.db #0x1A
	.db #0x1A
	.db #0x1A
	.db #0x1A
	.db #0x1A
	.db #0x1A
	.db #0x00
	.db #0x00
	.db #0x00
	.db #0x00
	.db #0x00
	.db #0x00
	.db #0x1A
	.db #0x1A
	.db #0x1A
	.db #0x1A
	.db #0x1A
	.db #0x1A
	.db #0x1A
	.db #0x1A
	.db #0x00
	.db #0x00
	.db #0x00
	.db #0x6D
	.db #0x1A
	.db #0x1A
	.db #0x1A
	.db #0x1A
	.db #0x1A
	.db #0x1A
	.db #0x1A
	.db #0x1A
	.db #0x1A
	.db #0x1A
	.db #0x1A
	.db #0x1A
	.db #0x1A
	.db #0x1A
	.db #0x1A
	.db #0x1A
	.db #0x1A
	.db #0x1A
	.db #0x1A
	.db #0x1A
	.db #0x1A
	.db #0x1A
	.db #0x1A
	.db #0x1A
	.db #0x1A
	.db #0x1A
	.db #0x1A
	.db #0x1A
	.db #0x1A
	.db #0x1A
	.db #0x1A
	.db #0x49
	.db #0x49
	.db #0x1A
	.db #0x1A
	.db #0x1A
	.db #0x1A
	.db #0x1A
	.db #0x1A
	.db #0x1A
	.db #0x1A
	.db #0x1A
	.db #0x1A
	.db #0x6D
	.db #0xBC
	.db #0x91
	.db #0x49
	.db #0x21
	.db #0x00
	.db #0x1C
	.db #0x1A
	.db #0x1A
	.db #0x1A
	.db #0x1A
	.db #0x1A
	.db #0x6D
	.db #0x49
	.db #0xDA
	.db #0xDA
	.db #0x21
	.db #0x21
	.db #0xFB
	.db #0x00
	.db #0x00
	.db #0x1A
	.db #0x1A
	.db #0x1A
	.db #0x1A
	.db #0xFC
	.db #0xDA
	.db #0xDA
	.db #0x21
	.db #0x42
	.db #0x10
	.db #0x00
	.db #0x00
	.db #0x21
	.db #0x00
	.db #0x00
	.db #0x1A
	.db #0x1A
	.db #0x00
	.db #0x49
	.db #0x6D
	.db #0x21
	.db #0x42
	.db #0x00
	.db #0x00
	.db #0x00
	.db #0x42
	.db #0x21
	.db #0x00
	.db #0x00
	.db #0x1A
	.db #0x00
	.db #0x00
	.db #0x6D
	.db #0x49
	.db #0x00
	.db #0x00
	.db #0x21
	.db #0x42
	.db #0x63
	.db #0x00
	.db #0x00
	.db #0x00
	.db #0x1A
	.db #0x1A
	.db #0x1A
	.db #0x00
	.db #0x00
	.db #0x00
	.db #0x00
	.db #0x00
	.db #0x21
	.db #0x00
	.db #0x00
	.db #0x00
	.db #0x00
	.db #0x1A
	.db #0x1A
	.db #0x1A
	.db #0x1A
	.db #0x1A
	.db #0x1A
	.db #0x00
	.db #0x00
	.db #0x00
	.db #0x00
	.db #0x00
	.db #0x6D
	.db #0x1A
	.db #0x1A
	.db #0x1A
	.db #0x1A
	.db #0x1A
	.db #0x1A
	.db #0x1A
	.db #0x1A
	.db #0x1A
	.db #0x00
	.db #0x00
	.db #0x00
	.db #0x1A
	.db #0x1A
	.db #0x1A
	.db #0x1A
	.db #0x1A
	.db #0x1A
	.db #0x1A
	.db #0x1A
	.db #0x1A
	.db #0x1A
	.db #0x1A
	.db #0x1A
	.db #0x1A
	.db #0x1A
	.db #0x1A
	.db #0x1A
	.db #0x1A
	.db #0x1A
	.db #0x1A
	.db #0x1A
	.db #0x1A
	.db #0x1A
	.db #0x1A
	.db #0x1A
	.db #0x1A
	.db #0x1A
	.db #0x1A
	.db #0x1A
	.db #0x1A
	.db #0x1A
	.db #0x1A
	.db #0x1A
	.db #0x1A
	.db #0x1A
	.db #0x1A
	.db #0x1A
	.db #0x1A
	.db #0x1A
	.db #0x1A
	.db #0x1A
	.db #0x1A
	.db #0x1A
	.db #0x1A
	.db #0x1A
	.db #0x1A
	.db #0x1A
	.db #0x1A
	.db #0x21
	.db #0x1C
	.db #0x00
	.db #0x00
	.db #0x00
	.db #0x1A
	.db #0x1A
	.db #0x1A
	.db #0x6D
	.db #0xBC
	.db #0x92
	.db #0x91
	.db #0x21
	.db #0x21
	.db #0xFB
	.db #0x00
	.db #0x21
	.db #0x00
	.db #0x00
	.db #0x1A
	.db #0x1A
	.db #0x49
	.db #0xDA
	.db #0xB6
	.db #0xDA
	.db #0x42
	.db #0x63
	.db #0xD6
	.db #0x00
	.db #0x42
	.db #0x21
	.db #0x00
	.db #0x1A
	.db #0x1A
	.db #0x6D
	.db #0xFC
	.db #0x92
	.db #0xDA
	.db #0x42
	.db #0x42
	.db #0x10
	.db #0x00
	.db #0x63
	.db #0x21
	.db #0x00
	.db #0x1A
	.db #0x1A
	.db #0x91
	.db #0xDA
	.db #0xDA
	.db #0xDA
	.db #0x92
	.db #0x00
	.db #0x00
	.db #0x00
	.db #0x00
	.db #0x00
	.db #0x6D
	.db #0x1A
	.db #0x1A
	.db #0x6D
	.db #0x24
	.db #0x24
	.db #0x6D
	.db #0x6D
	.db #0x49
	.db #0x00
	.db #0x00
	.db #0x24
	.db #0x24
	.db #0x00
	.db #0x1A
	.db #0x1A
	.db #0x1A
	.db #0x00
	.db #0x00
	.db #0x1A
	.db #0x1A
	.db #0x1A
	.db #0x1A
	.db #0x1A
	.db #0x00
	.db #0x00
	.db #0x1A
	.db #0x1A
	.db #0x1A
	.db #0x1A
	.db #0x1A
	.db #0x1A
	.db #0x1A
	.db #0x1A
	.db #0x1A
	.db #0x1A
	.db #0x1A
	.db #0x1A
	.db #0x1A
	.db #0x1A
	.db #0x1A
	.db #0x1A
	.db #0x1A
	.db #0x1A
	.db #0x1A
	.db #0x1A
	.db #0x1A
	.db #0x1A
	.db #0x1A
	.db #0x1A
	.db #0x1A
	.db #0x1A
	.db #0x1A
	.db #0x1A
	.db #0x1A
	.db #0x1A
	.db #0x1A
	.db #0x1A
	.db #0x1A
	.db #0x1A
	.db #0x1A
	.db #0x1A
	.db #0x1A
	.db #0x1A
	.db #0x1A
	.db #0x1A
	.db #0x1A
	.db #0x1A
	.db #0x1A
	.db #0x1A
	.db #0x1A
	.db #0x1A
	.db #0x1A
	.db #0x1A
	.db #0x00
	.db #0x00
	.db #0x00
	.db #0x1A
	.db #0x1A
	.db #0x1A
	.db #0x1A
	.db #0x1A
	.db #0x1A
	.db #0x1A
	.db #0x1A
	.db #0x21
	.db #0x1C
	.db #0x21
	.db #0x21
	.db #0x00
	.db #0x00
	.db #0x1A
	.db #0x1A
	.db #0x1A
	.db #0x1A
	.db #0x1A
	.db #0x00
	.db #0x21
	.db #0x21
	.db #0xFB
	.db #0xAE
	.db #0x63
	.db #0x21
	.db #0x00
	.db #0x00
	.db #0x6D
	.db #0x1A
	.db #0x1A
	.db #0x92
	.db #0x91
	.db #0x42
	.db #0x63
	.db #0x00
	.db #0x1C
	.db #0x00
	.db #0x42
	.db #0x00
	.db #0x00
	.db #0x1A
	.db #0x1A
	.db #0xB6
	.db #0xB6
	.db #0xDA
	.db #0xB6
	.db #0x42
	.db #0x42
	.db #0x00
	.db #0x00
	.db #0x00
	.db #0x00
	.db #0x00
	.db #0x1A
	.db #0x1A
	.db #0xBC
	.db #0xDA
	.db #0xDA
	.db #0xDA
	.db #0xB6
	.db #0x00
	.db #0x00
	.db #0x00
	.db #0x00
	.db #0x00
	.db #0x1A
	.db #0x1A
	.db #0x1A
	.db #0x6D
	.db #0x24
	.db #0xB6
	.db #0x92
	.db #0x92
	.db #0x6D
	.db #0x49
	.db #0x00
	.db #0x1A
	.db #0x1A
	.db #0x1A
	.db #0x1A
	.db #0x1A
	.db #0x1A
	.db #0x6D
	.db #0xFC
	.db #0x6D
	.db #0x00
	.db #0x49
	.db #0x1A
	.db #0x1A
	.db #0x1A
	.db #0x1A
	.db #0x1A
	.db #0x1A
	.db #0x1A
	.db #0x1A
	.db #0x1A
	.db #0x49
	.db #0x00
	.db #0x1A
	.db #0x1A
	.db #0x1A
	.db #0x1A
	.db #0x1A
	.db #0x1A
	.db #0x1A
	.db #0x1A
	.db #0x1A
	.db #0x1A
	.db #0x1A
	.db #0x1A
	.db #0x1A
	.db #0x1A
	.db #0x1A
	.db #0x1A
	.db #0x1A
	.db #0x1A
	.db #0x1A
	.db #0x1A
	.db #0x1A
	.db #0x1A
	.db #0x1A
	.db #0x1A
	.db #0x1A
	.db #0x1A
	.db #0x1A
	.db #0x1A
	.db #0x1A
	.db #0x1A
	.db #0x1A
	.db #0x1A
	.db #0x1A
	.db #0x1A
	.db #0x1A
	.db #0x1A
	.db #0x1A
	.db #0x1A
	.db #0x1A
	.db #0x1A
	.db #0x00
	.db #0x00
	.db #0x00
	.db #0x00
	.db #0x1A
	.db #0x1A
	.db #0x1A
	.db #0x1A
	.db #0x1A
	.db #0x1A
	.db #0x1A
	.db #0x1A
	.db #0x00
	.db #0x1C
	.db #0x21
	.db #0x21
	.db #0x00
	.db #0x00
	.db #0x6D
	.db #0x1A
	.db #0x1A
	.db #0x1A
	.db #0x1A
	.db #0x1A
	.db #0x00
	.db #0x42
	.db #0xB2
	.db #0xD6
	.db #0x42
	.db #0x21
	.db #0x00
	.db #0x00
	.db #0x1A
	.db #0x1A
	.db #0x1A
	.db #0x1A
	.db #0x6D
	.db #0x00
	.db #0x21
	.db #0x42
	.db #0x00
	.db #0x10
	.db #0x21
	.db #0x00
	.db #0x00
	.db #0x1A
	.db #0x1A
	.db #0x1A
	.db #0x6D
	.db #0x92
	.db #0xB6
	.db #0x92
	.db #0x41
	.db #0x63
	.db #0x00
	.db #0x00
	.db #0x00
	.db #0x00
	.db #0x1A
	.db #0x1A
	.db #0x6D
	.db #0xFC
	.db #0x92
	.db #0xB6
	.db #0xDA
	.db #0x92
	.db #0x00
	.db #0x00
	.db #0x00
	.db #0x00
	.db #0x1A
	.db #0x1A
	.db #0x1A
	.db #0x24
	.db #0x49
	.db #0xB6
	.db #0xDA
	.db #0xDA
	.db #0xDA
	.db #0x49
	.db #0x00
	.db #0x1A
	.db #0x1A
	.db #0x1A
	.db #0x1A
	.db #0x1A
	.db #0x1A
	.db #0x6D
	.db #0x49
	.db #0xFC
	.db #0xDA
	.db #0x49
	.db #0x24
	.db #0x1A
	.db #0x1A
	.db #0x1A
	.db #0x1A
	.db #0x1A
	.db #0x1A
	.db #0x1A
	.db #0x1A
	.db #0x6D
	.db #0x6D
	.db #0x00
	.db #0x00
	.db #0x1A
	.db #0x1A
	.db #0x1A
	.db #0x1A
	.db #0x1A
	.db #0x1A
	.db #0x1A
	.db #0x1A
	.db #0x1A
	.db #0x1A
	.db #0x24
	.db #0x1A
	.db #0x1A
	.db #0x1A
	.db #0x1A
	.db #0x1A
	.db #0x1A
	.db #0x1A
	.db #0x1A
	.db #0x1A
	.db #0x1A
	.db #0x1A
	.db #0x1A
	.db #0x1A
	.db #0x1A
	.db #0x1A
	.db #0x1A
	.db #0x1A
	.db #0x1A
	.db #0x1A
	.db #0x1A
	.db #0x1A
	.db #0x1A
	.db #0x1A
	.db #0x1A
	.db #0x1A
	.db #0x1A
	.db #0x1A
	.db #0x00
	.db #0x00
	.db #0x00
	.db #0x6D
	.db #0x1A
	.db #0x1A
	.db #0x1A
	.db #0x1A
	.db #0x1A
	.db #0x1A
	.db #0x1A
	.db #0x1A
	.db #0x00
	.db #0x21
	.db #0x21
	.db #0x00
	.db #0x00
	.db #0x00
	.db #0x1A
	.db #0x1A
	.db #0x1A
	.db #0x1A
	.db #0x1A
	.db #0x1A
	.db #0x00
	.db #0x1C
	.db #0xFB
	.db #0x63
	.db #0x42
	.db #0x21
	.db #0x00
	.db #0x1A
	.db #0x1A
	.db #0x1A
	.db #0x1A
	.db #0x1A
	.db #0x1A
	.db #0x00
	.db #0x41
	.db #0xAE
	.db #0xD6
	.db #0x10
	.db #0x00
	.db #0x00
	.db #0x1A
	.db #0x1A
	.db #0x1A
	.db #0x1A
	.db #0x1A
	.db #0x00
	.db #0x00
	.db #0x21
	.db #0x42
	.db #0x62
	.db #0x63
	.db #0x00
	.db #0x1A
	.db #0x1A
	.db #0x1A
	.db #0x1A
	.db #0x1A
	.db #0x1A
	.db #0x91
	.db #0xDA
	.db #0xDA
	.db #0xDA
	.db #0x42
	.db #0x00
	.db #0x00
	.db #0x1A
	.db #0x1A
	.db #0x1A
	.db #0x1A
	.db #0x1A
	.db #0x24
	.db #0xB6
	.db #0xDA
	.db #0xDA
	.db #0xDA
	.db #0xDA
	.db #0x6D
	.db #0x1A
	.db #0x1A
	.db #0x1A
	.db #0x1A
	.db #0x1A
	.db #0x1A
	.db #0x00
	.db #0xFC
	.db #0x92
	.db #0xB6
	.db #0xB6
	.db #0xDA
	.db #0x24
	.db #0x1A
	.db #0x1A
	.db #0x1A
	.db #0x1A
	.db #0x1A
	.db #0x1A
	.db #0x1A
	.db #0x24
	.db #0x6D
	.db #0x6D
	.db #0xFC
	.db #0xB6
	.db #0x00
	.db #0x1A
	.db #0x1A
	.db #0x1A
	.db #0x1A
	.db #0x1A
	.db #0x1A
	.db #0x1A
	.db #0x1A
	.db #0x24
	.db #0x49
	.db #0x24
	.db #0x1A
	.db #0x1A
	.db #0x1A
	.db #0x1A
	.db #0x1A
	.db #0x1A
	.db #0x1A
	.db #0x1A
	.db #0x1A
	.db #0x1A
	.db #0x1A
	.db #0x1A
	.db #0x1A
	.db #0x1A
	.db #0x1A
	.db #0x1A
	.db #0x1A
	.db #0x1A
	.db #0x1A
	.db #0x1A
	.db #0x1A
	.db #0x1A
	.db #0x1A
	.db #0x00
	.db #0x00
	.db #0x00
	.db #0x00
	.db #0x6D
	.db #0x00
	.db #0x1A
	.db #0x1A
	.db #0x1A
	.db #0x1A
	.db #0x1A
	.db #0x1A
	.db #0x00
	.db #0x00
	.db #0x00
	.db #0x21
	.db #0x21
	.db #0x00
	.db #0x00
	.db #0x00
	.db #0x1A
	.db #0x1A
	.db #0x1A
	.db #0x1A
	.db #0x1A
	.db #0x00
	.db #0x00
	.db #0x21
	.db #0x42
	.db #0x63
	.db #0x21
	.db #0x00
	.db #0x00
	.db #0x1A
	.db #0x1A
	.db #0x1A
	.db #0x1A
	.db #0x1A
	.db #0x1A
	.db #0x00
	.db #0x1C
	.db #0xFB
	.db #0xD6
	.db #0x10
	.db #0x00
	.db #0x1A
	.db #0x1A
	.db #0x1A
	.db #0x1A
	.db #0x1A
	.db #0x1A
	.db #0x1A
	.db #0x00
	.db #0x41
	.db #0x42
	.db #0x62
	.db #0x63
	.db #0x00
	.db #0x1A
	.db #0x1A
	.db #0x1A
	.db #0x1A
	.db #0x1A
	.db #0x1A
	.db #0x1A
	.db #0x00
	.db #0x21
	.db #0x42
	.db #0x63
	.db #0x42
	.db #0x00
	.db #0x1A
	.db #0x1A
	.db #0x1A
	.db #0x1A
	.db #0x1A
	.db #0x1A
	.db #0x00
	.db #0x6D
	.db #0xDA
	.db #0xDA
	.db #0xDA
	.db #0xDA
	.db #0x6D
	.db #0x00
	.db #0x1A
	.db #0x1A
	.db #0x1A
	.db #0x1A
	.db #0x1A
	.db #0x00
	.db #0x91
	.db #0xB6
	.db #0xDA
	.db #0xDA
	.db #0xB6
	.db #0x92
	.db #0x00
	.db #0x1A
	.db #0x1A
	.db #0x1A
	.db #0x1A
	.db #0x1A
	.db #0x1A
	.db #0xB6
	.db #0xFC
	.db #0x24
	.db #0x24
	.db #0xFC
	.db #0xB6
	.db #0x1A
	.db #0x1A
	.db #0x1A
	.db #0x1A
	.db #0x1A
	.db #0x1A
	.db #0x1A
	.db #0x24
	.db #0x6D
	.db #0x6D
	.db #0x6D
	.db #0x6D
	.db #0x24
	.db #0x1A
	.db #0x1A
	.db #0x1A
	.db #0x1A
	.db #0x1A
	.db #0x1A
	.db #0x1A
	.db #0x1A
	.db #0x1A
	.db #0x1A
	.db #0x1A
	.db #0x1A
	.db #0x1A
	.db #0x1A
	.db #0x1A
	.db #0x1A
	.db #0x1A
	.db #0x1A
	.db #0x1A
	.db #0x1A
	.db #0x1A
	.db #0x00
	.db #0x00
	.db #0x6D
	.db #0x1A
	.db #0x1A
	.db #0x1A
	.db #0x1A
	.db #0x1A
	.db #0x1A
	.db #0x1A
	.db #0x1A
	.db #0x00
	.db #0x00
	.db #0x00
	.db #0x21
	.db #0x00
	.db #0x00
	.db #0x1A
	.db #0x1A
	.db #0x1A
	.db #0x1A
	.db #0x1A
	.db #0x1A
	.db #0x1A
	.db #0x00
	.db #0x21
	.db #0x42
	.db #0x63
	.db #0x21
	.db #0x1C
	.db #0x00
	.db #0x1A
	.db #0x1A
	.db #0x1A
	.db #0x1A
	.db #0x1A
	.db #0x1A
	.db #0x00
	.db #0x21
	.db #0x1C
	.db #0xFB
	.db #0xD6
	.db #0x63
	.db #0x00
	.db #0x1A
	.db #0x1A
	.db #0x1A
	.db #0x1A
	.db #0x1A
	.db #0x1A
	.db #0x00
	.db #0x00
	.db #0x41
	.db #0x42
	.db #0x62
	.db #0x42
	.db #0x6D
	.db #0x24
	.db #0x1A
	.db #0x1A
	.db #0x1A
	.db #0x1A
	.db #0x1A
	.db #0x1A
	.db #0x00
	.db #0x21
	.db #0x42
	.db #0x63
	.db #0xDA
	.db #0xDA
	.db #0x6D
	.db #0x24
	.db #0x1A
	.db #0x1A
	.db #0x1A
	.db #0x1A
	.db #0x1A
	.db #0x00
	.db #0x6D
	.db #0xDA
	.db #0xDA
	.db #0xDA
	.db #0xDA
	.db #0xDA
	.db #0x49
	.db #0x1A
	.db #0x1A
	.db #0x1A
	.db #0x1A
	.db #0x1A
	.db #0x1A
	.db #0x49
	.db #0x91
	.db #0x92
	.db #0x6D
	.db #0x24
	.db #0xFC
	.db #0x24
	.db #0x1A
	.db #0x1A
	.db #0x1A
	.db #0x1A
	.db #0x1A
	.db #0x1A
	.db #0x24
	.db #0x00
	.db #0xFC
	.db #0x6D
	.db #0x91
	.db #0x24
	.db #0x1A
	.db #0x1A
	.db #0x1A
	.db #0x1A
	.db #0x1A
	.db #0x1A
	.db #0x1A
	.db #0x1A
	.db #0x00
	.db #0x49
	.db #0x24
	.db #0x1A
	.db #0x1A
	.db #0x1A
	.db #0x1A
	.db #0x1A
	.db #0x1A
	.db #0x1A
	.db #0x1A
	.db #0x1A
	.db #0x1A
	.db #0x1A
	.db #0x1A
	.db #0x1A
	.db #0x1A
	.db #0x1A
	.db #0x1A
	.db #0x1A
	.db #0x1A
	.db #0x1A
	.db #0x1A
	.db #0x1A
	.db #0x6D
	.db #0x1A
	.db #0x1A
	.db #0x1A
	.db #0x1A
	.db #0x1A
	.db #0x1A
	.db #0x1A
	.db #0x1A
	.db #0x1A
	.db #0x1A
	.db #0x1A
	.db #0x00
	.db #0x00
	.db #0x21
	.db #0x21
	.db #0x10
	.db #0x1A
	.db #0x1A
	.db #0x1A
	.db #0x1A
	.db #0x1A
	.db #0x1A
	.db #0x1A
	.db #0x00
	.db #0x00
	.db #0x21
	.db #0x42
	.db #0xD6
	.db #0xB2
	.db #0x63
	.db #0x00
	.db #0x1A
	.db #0x1A
	.db #0x1A
	.db #0x1A
	.db #0x1A
	.db #0x00
	.db #0x00
	.db #0x21
	.db #0x1C
	.db #0x00
	.db #0x62
	.db #0x42
	.db #0x49
	.db #0x6D
	.db #0x1A
	.db #0x1A
	.db #0x1A
	.db #0x1A
	.db #0x00
	.db #0x00
	.db #0x00
	.db #0x21
	.db #0x42
	.db #0x42
	.db #0x92
	.db #0xB6
	.db #0x92
	.db #0x6D
	.db #0x1A
	.db #0x1A
	.db #0x1A
	.db #0x1A
	.db #0x00
	.db #0x00
	.db #0x00
	.db #0x21
	.db #0x92
	.db #0xDA
	.db #0xB6
	.db #0x92
	.db #0xBC
	.db #0x6D
	.db #0x1A
	.db #0x1A
	.db #0x1A
	.db #0x1A
	.db #0x00
	.db #0x00
	.db #0x49
	.db #0xDA
	.db #0xDA
	.db #0xDA
	.db #0x24
	.db #0x49
	.db #0x24
	.db #0x1A
	.db #0x1A
	.db #0x1A
	.db #0x1A
	.db #0x1A
	.db #0x1A
	.db #0x00
	.db #0x49
	.db #0xDA
	.db #0xFC
	.db #0x6D
	.db #0x24
	.db #0x1A
	.db #0x1A
	.db #0x1A
	.db #0x1A
	.db #0x1A
	.db #0x1A
	.db #0x1A
	.db #0x1A
	.db #0x00
	.db #0xB6
	.db #0x49
	.db #0x24
	.db #0x1A
	.db #0x1A
	.db #0x1A
	.db #0x1A
	.db #0x1A
	.db #0x1A
	.db #0x1A
	.db #0x1A
	.db #0x1A
	.db #0x1A
	.db #0x1A
	.db #0x24
	.db #0x1A
	.db #0x1A
	.db #0x1A
	.db #0x1A
	.db #0x1A
	.db #0x1A
	.db #0x1A
	.db #0x1A
	.db #0x1A
	.db #0x1A
	.db #0x1A
	.db #0x1A
	.db #0x1A
	.db #0x1A
	.db #0x1A
	.db #0x1A
	.db #0x1A
	.db #0x1A
	.db #0x1A
	.db #0x1A
	.db #0x1A
	.db #0x1A
	.db #0x1A
	.db #0x1A
	.db #0x1A
	.db #0x1A
	.db #0x1A
	.db #0x1A
	.db #0x1A
	.db #0x1A
	.db #0x1A
	.db #0x6D
	.db #0x00
	.db #0x00
	.db #0x00
	.db #0x00
	.db #0x10
	.db #0x1A
	.db #0x1A
	.db #0x1A
	.db #0x1A
	.db #0x1A
	.db #0x1A
	.db #0x24
	.db #0x00
	.db #0x21
	.db #0x21
	.db #0x00
	.db #0xFB
	.db #0x21
	.db #0x21
	.db #0x24
	.db #0x24
	.db #0x1A
	.db #0x1A
	.db #0x1A
	.db #0x1A
	.db #0x00
	.db #0x42
	.db #0x63
	.db #0x00
	.db #0xD6
	.db #0x42
	.db #0x42
	.db #0x91
	.db #0x92
	.db #0xBC
	.db #0x49
	.db #0x1A
	.db #0x1A
	.db #0x00
	.db #0x21
	.db #0x42
	.db #0x00
	.db #0x1C
	.db #0x42
	.db #0x42
	.db #0xDA
	.db #0xB6
	.db #0x24
	.db #0x49
	.db #0x1A
	.db #0x1A
	.db #0x00
	.db #0x00
	.db #0x00
	.db #0x00
	.db #0x00
	.db #0x00
	.db #0xB6
	.db #0xDA
	.db #0xDA
	.db #0xFC
	.db #0x6D
	.db #0x1A
	.db #0x1A
	.db #0x00
	.db #0x00
	.db #0x00
	.db #0x00
	.db #0x49
	.db #0x6D
	.db #0xB6
	.db #0xDA
	.db #0xDA
	.db #0x91
	.db #0x6D
	.db #0x1A
	.db #0x1A
	.db #0x1A
	.db #0x00
	.db #0x00
	.db #0x1A
	.db #0x1A
	.db #0x49
	.db #0x49
	.db #0x24
	.db #0x24
	.db #0x6D
	.db #0x49
	.db #0x1A
	.db #0x1A
	.db #0x1A
	.db #0x1A
	.db #0x1A
	.db #0x1A
	.db #0x1A
	.db #0x1A
	.db #0x1A
	.db #0x00
	.db #0x00
	.db #0x1A
	.db #0x1A
	.db #0x1A
	.db #0x1A
	.db #0x1A
	.db #0x1A
	.db #0x1A
	.db #0x1A
	.db #0x1A
	.db #0x1A
	.db #0x1A
	.db #0x1A
	.db #0x1A
	.db #0x1A
	.db #0x1A
	.db #0x1A
_car2:
	.db #0x1A
	.db #0x1A
	.db #0x1A
	.db #0x1A
	.db #0x1A
	.db #0x1A
	.db #0x1A
	.db #0x1A
	.db #0x1A
	.db #0x1A
	.db #0x1A
	.db #0x1A
	.db #0x1A
	.db #0x1A
	.db #0x1A
	.db #0x1A
	.db #0x42
	.db #0xDC
	.db #0x63
	.db #0x1A
	.db #0x1A
	.db #0x1A
	.db #0x1A
	.db #0x1A
	.db #0x1A
	.db #0x1A
	.db #0x1A
	.db #0x14
	.db #0x42
	.db #0x42
	.db #0xB8
	.db #0x63
	.db #0xBC
	.db #0xB8
	.db #0x98
	.db #0x74
	.db #0xBC
	.db #0x50
	.db #0x1A
	.db #0xB2
	.db #0x74
	.db #0x42
	.db #0x41
	.db #0xB8
	.db #0x62
	.db #0xB8
	.db #0x00
	.db #0x00
	.db #0x00
	.db #0x00
	.db #0x74
	.db #0x1A
	.db #0x1A
	.db #0x74
	.db #0x42
	.db #0x21
	.db #0x74
	.db #0x42
	.db #0xB8
	.db #0x49
	.db #0x49
	.db #0x24
	.db #0x24
	.db #0x00
	.db #0x1A
	.db #0x1A
	.db #0x98
	.db #0x42
	.db #0x21
	.db #0x50
	.db #0x21
	.db #0x74
	.db #0x24
	.db #0x24
	.db #0x24
	.db #0x24
	.db #0xBC
	.db #0x1A
	.db #0x1A
	.db #0x18
	.db #0xBC
	.db #0xB8
	.db #0x74
	.db #0x74
	.db #0x74
	.db #0x98
	.db #0xBC
	.db #0xB8
	.db #0xFC
	.db #0x74
	.db #0x1A
	.db #0x1A
	.db #0x98
	.db #0x24
	.db #0x24
	.db #0x50
	.db #0x74
	.db #0x74
	.db #0x50
	.db #0x24
	.db #0x24
	.db #0x74
	.db #0x50
	.db #0x1A
	.db #0x1A
	.db #0x1A
	.db #0x00
	.db #0x00
	.db #0x1A
	.db #0x1A
	.db #0x1A
	.db #0x1A
	.db #0x00
	.db #0x00
	.db #0x1A
	.db #0x1A
	.db #0x1A
	.db #0x1A
	.db #0x1A
	.db #0x1A
	.db #0x1A
	.db #0x1A
	.db #0x1A
	.db #0x1A
	.db #0x1A
	.db #0x1A
	.db #0x1A
	.db #0x1A
	.db #0x1A
	.db #0x1A
	.db #0x1A
	.db #0x1A
	.db #0x1A
	.db #0x1A
	.db #0x1A
	.db #0x1A
	.db #0x1A
	.db #0x1A
	.db #0x1A
	.db #0x1A
	.db #0x1A
	.db #0x1A
	.db #0x1A
	.db #0x1A
	.db #0x1A
	.db #0x1A
	.db #0x1A
	.db #0x1A
	.db #0x1A
	.db #0x1A
	.db #0x1A
	.db #0x1A
	.db #0x1A
	.db #0x1A
	.db #0x1A
	.db #0x1A
	.db #0x1A
	.db #0x1A
	.db #0x1A
	.db #0x1A
	.db #0x1A
	.db #0x1A
	.db #0x1A
	.db #0x50
	.db #0x74
	.db #0xBC
	.db #0x1A
	.db #0x1A
	.db #0x1A
	.db #0x1A
	.db #0x1A
	.db #0x42
	.db #0x98
	.db #0x63
	.db #0x50
	.db #0x74
	.db #0x98
	.db #0x00
	.db #0x00
	.db #0x50
	.db #0x1A
	.db #0x1A
	.db #0x1A
	.db #0x74
	.db #0x42
	.db #0xDC
	.db #0x63
	.db #0x62
	.db #0x74
	.db #0x00
	.db #0x24
	.db #0x24
	.db #0x00
	.db #0x1A
	.db #0x1A
	.db #0x14
	.db #0x42
	.db #0x41
	.db #0x21
	.db #0xB8
	.db #0x62
	.db #0xBC
	.db #0x49
	.db #0x24
	.db #0x74
	.db #0xBC
	.db #0x74
	.db #0x1A
	.db #0xB2
	.db #0x74
	.db #0x42
	.db #0x21
	.db #0x98
	.db #0x21
	.db #0xB8
	.db #0xBC
	.db #0xBC
	.db #0x98
	.db #0xFC
	.db #0x50
	.db #0x1A
	.db #0x24
	.db #0x74
	.db #0x42
	.db #0x98
	.db #0x74
	.db #0x98
	.db #0x98
	.db #0x74
	.db #0x00
	.db #0x50
	.db #0x74
	.db #0x1A
	.db #0x1A
	.db #0x1A
	.db #0x1C
	.db #0xBC
	.db #0xB8
	.db #0x98
	.db #0x50
	.db #0x74
	.db #0x50
	.db #0x00
	.db #0x00
	.db #0x1A
	.db #0x1A
	.db #0x1A
	.db #0x1A
	.db #0x24
	.db #0x98
	.db #0x00
	.db #0x50
	.db #0x1A
	.db #0x1A
	.db #0x1A
	.db #0x1A
	.db #0x1A
	.db #0x1A
	.db #0x1A
	.db #0x1A
	.db #0x1A
	.db #0x1A
	.db #0x1A
	.db #0x00
	.db #0x00
	.db #0x1A
	.db #0x1A
	.db #0x1A
	.db #0x1A
	.db #0x1A
	.db #0x1A
	.db #0x1A
	.db #0x1A
	.db #0x1A
	.db #0x1A
	.db #0x1A
	.db #0x1A
	.db #0x1A
	.db #0x1A
	.db #0x1A
	.db #0x1A
	.db #0x1A
	.db #0x1A
	.db #0x1A
	.db #0x1A
	.db #0x1A
	.db #0x1A
	.db #0x1A
	.db #0x1A
	.db #0x1A
	.db #0x1A
	.db #0x1A
	.db #0x1A
	.db #0xB8
	.db #0xBC
	.db #0x1A
	.db #0x1A
	.db #0x1A
	.db #0x1A
	.db #0x1A
	.db #0x1A
	.db #0x1A
	.db #0x1A
	.db #0x1A
	.db #0x1A
	.db #0xB8
	.db #0x00
	.db #0x00
	.db #0x24
	.db #0x1A
	.db #0x1A
	.db #0x1A
	.db #0x1A
	.db #0x1A
	.db #0x1A
	.db #0x1A
	.db #0x1A
	.db #0x74
	.db #0x00
	.db #0x00
	.db #0x49
	.db #0x24
	.db #0x50
	.db #0x1A
	.db #0x1A
	.db #0x1A
	.db #0x1A
	.db #0x1A
	.db #0x98
	.db #0x41
	.db #0x63
	.db #0xDC
	.db #0x49
	.db #0x24
	.db #0x00
	.db #0x00
	.db #0xFC
	.db #0x1A
	.db #0x1A
	.db #0x1A
	.db #0xB8
	.db #0x63
	.db #0xDC
	.db #0x62
	.db #0x62
	.db #0xBC
	.db #0x00
	.db #0x00
	.db #0xBC
	.db #0x98
	.db #0x1A
	.db #0x1A
	.db #0x50
	.db #0x63
	.db #0x42
	.db #0x42
	.db #0xBC
	.db #0x41
	.db #0xB8
	.db #0x74
	.db #0x98
	.db #0xBC
	.db #0x00
	.db #0x1A
	.db #0x1A
	.db #0x18
	.db #0x74
	.db #0x42
	.db #0x42
	.db #0x21
	.db #0x98
	.db #0x74
	.db #0x74
	.db #0x50
	.db #0x00
	.db #0x1A
	.db #0x1A
	.db #0x1A
	.db #0xB2
	.db #0x74
	.db #0x98
	.db #0x41
	.db #0x74
	.db #0x74
	.db #0x74
	.db #0x1A
	.db #0x1A
	.db #0x1A
	.db #0x1A
	.db #0x1A
	.db #0x1A
	.db #0x1A
	.db #0x1A
	.db #0x1C
	.db #0x74
	.db #0xBC
	.db #0x98
	.db #0x00
	.db #0x1A
	.db #0x1A
	.db #0x1A
	.db #0x1A
	.db #0x1A
	.db #0x1A
	.db #0x1A
	.db #0x1A
	.db #0x1A
	.db #0x74
	.db #0x74
	.db #0x00
	.db #0x1A
	.db #0x1A
	.db #0x1A
	.db #0x1A
	.db #0x1A
	.db #0x1A
	.db #0x1A
	.db #0x1A
	.db #0x1A
	.db #0x1A
	.db #0x1A
	.db #0x1A
	.db #0x1A
	.db #0x1A
	.db #0x1A
	.db #0x1A
	.db #0x1A
	.db #0x1A
	.db #0x1A
	.db #0x1A
	.db #0x1A
	.db #0x1A
	.db #0x1A
	.db #0x1A
	.db #0x1A
	.db #0x74
	.db #0x00
	.db #0x1A
	.db #0x1A
	.db #0x1A
	.db #0x1A
	.db #0x1A
	.db #0x1A
	.db #0x1A
	.db #0x1A
	.db #0x1A
	.db #0x1A
	.db #0xB8
	.db #0x00
	.db #0x24
	.db #0x00
	.db #0x24
	.db #0x1A
	.db #0x1A
	.db #0x1A
	.db #0x1A
	.db #0x1A
	.db #0x1A
	.db #0x1A
	.db #0xBC
	.db #0x00
	.db #0x24
	.db #0x24
	.db #0x00
	.db #0xBC
	.db #0x1A
	.db #0x1A
	.db #0x1A
	.db #0x1A
	.db #0x1A
	.db #0x1A
	.db #0x1A
	.db #0x98
	.db #0x00
	.db #0x49
	.db #0x24
	.db #0x00
	.db #0xFC
	.db #0x98
	.db #0x1A
	.db #0x1A
	.db #0x1A
	.db #0x1A
	.db #0x1A
	.db #0x74
	.db #0xDC
	.db #0xBC
	.db #0x24
	.db #0x00
	.db #0x98
	.db #0xBC
	.db #0x00
	.db #0x1A
	.db #0x1A
	.db #0x1A
	.db #0x1A
	.db #0x50
	.db #0x74
	.db #0x62
	.db #0x63
	.db #0xBC
	.db #0xB8
	.db #0x74
	.db #0x00
	.db #0x1A
	.db #0x1A
	.db #0x1A
	.db #0x1A
	.db #0x1A
	.db #0x98
	.db #0x74
	.db #0xDC
	.db #0xBC
	.db #0x63
	.db #0x41
	.db #0x74
	.db #0x1A
	.db #0x1A
	.db #0x1A
	.db #0x1A
	.db #0x1A
	.db #0x74
	.db #0xB8
	.db #0x42
	.db #0x42
	.db #0x42
	.db #0xB8
	.db #0x74
	.db #0x50
	.db #0x1A
	.db #0x1A
	.db #0x1A
	.db #0x1A
	.db #0x1A
	.db #0x50
	.db #0x18
	.db #0x63
	.db #0x42
	.db #0x42
	.db #0x21
	.db #0x98
	.db #0x1A
	.db #0x1A
	.db #0x1A
	.db #0x1A
	.db #0x1A
	.db #0x1A
	.db #0x1A
	.db #0xB2
	.db #0x74
	.db #0x98
	.db #0x42
	.db #0x74
	.db #0x00
	.db #0x1A
	.db #0x1A
	.db #0x1A
	.db #0x1A
	.db #0x1A
	.db #0x1A
	.db #0x1A
	.db #0x1A
	.db #0x1A
	.db #0x74
	.db #0x74
	.db #0x18
	.db #0x1A
	.db #0x1A
	.db #0x1A
	.db #0x1A
	.db #0x1A
	.db #0x1A
	.db #0x1A
	.db #0x1A
	.db #0x1A
	.db #0xBC
	.db #0x74
	.db #0x00
	.db #0x00
	.db #0x74
	.db #0xBC
	.db #0x1A
	.db #0x1A
	.db #0x1A
	.db #0x1A
	.db #0x1A
	.db #0x1A
	.db #0x98
	.db #0xB8
	.db #0x00
	.db #0x24
	.db #0x24
	.db #0x00
	.db #0xFC
	.db #0x98
	.db #0x1A
	.db #0x1A
	.db #0x1A
	.db #0x1A
	.db #0x1A
	.db #0xBC
	.db #0xBC
	.db #0x00
	.db #0x49
	.db #0x24
	.db #0x00
	.db #0xBC
	.db #0xBC
	.db #0x1A
	.db #0x1A
	.db #0x1A
	.db #0x1A
	.db #0x1A
	.db #0x00
	.db #0x98
	.db #0x00
	.db #0x49
	.db #0x24
	.db #0x00
	.db #0x98
	.db #0x00
	.db #0x1A
	.db #0x1A
	.db #0x1A
	.db #0x1A
	.db #0x1A
	.db #0x1A
	.db #0x74
	.db #0xDC
	.db #0xBC
	.db #0xBC
	.db #0xB8
	.db #0x74
	.db #0x1A
	.db #0x1A
	.db #0x1A
	.db #0x1A
	.db #0x1A
	.db #0x1A
	.db #0x1A
	.db #0x74
	.db #0x62
	.db #0x63
	.db #0x63
	.db #0x41
	.db #0x74
	.db #0x1A
	.db #0x1A
	.db #0x1A
	.db #0x1A
	.db #0x1A
	.db #0x1A
	.db #0x98
	.db #0x74
	.db #0xDC
	.db #0xBC
	.db #0xBC
	.db #0xB8
	.db #0x74
	.db #0x98
	.db #0x1A
	.db #0x1A
	.db #0x1A
	.db #0x1A
	.db #0x1A
	.db #0xBC
	.db #0x98
	.db #0x42
	.db #0x42
	.db #0x42
	.db #0x21
	.db #0x98
	.db #0xBC
	.db #0x1A
	.db #0x1A
	.db #0x1A
	.db #0x1A
	.db #0x1A
	.db #0x00
	.db #0xB8
	.db #0x63
	.db #0x42
	.db #0x42
	.db #0x41
	.db #0x74
	.db #0x00
	.db #0x1A
	.db #0x1A
	.db #0x1A
	.db #0x1A
	.db #0x1A
	.db #0x1A
	.db #0x18
	.db #0x74
	.db #0x98
	.db #0x98
	.db #0x74
	.db #0x18
	.db #0x1A
	.db #0x1A
	.db #0x1A
	.db #0x1A
	.db #0x1A
	.db #0x1A
	.db #0x1A
	.db #0x1A
	.db #0xB2
	.db #0x1A
	.db #0x1A
	.db #0x1A
	.db #0x1A
	.db #0x1A
	.db #0x1A
	.db #0x1A
	.db #0x1A
	.db #0x1A
	.db #0x1A
	.db #0x1A
	.db #0x1A
	.db #0x00
	.db #0x74
	.db #0x1A
	.db #0x1A
	.db #0x1A
	.db #0x1A
	.db #0x1A
	.db #0x1A
	.db #0x1A
	.db #0x1A
	.db #0x1A
	.db #0x1A
	.db #0x00
	.db #0x24
	.db #0x00
	.db #0xB8
	.db #0x1A
	.db #0x1A
	.db #0x1A
	.db #0x1A
	.db #0x1A
	.db #0x1A
	.db #0x1A
	.db #0x1A
	.db #0xBC
	.db #0x00
	.db #0x24
	.db #0x24
	.db #0x00
	.db #0xBC
	.db #0x1A
	.db #0x1A
	.db #0x1A
	.db #0x1A
	.db #0x1A
	.db #0x1A
	.db #0x98
	.db #0xFC
	.db #0x00
	.db #0x24
	.db #0x49
	.db #0x00
	.db #0x98
	.db #0x1A
	.db #0x1A
	.db #0x1A
	.db #0x1A
	.db #0x1A
	.db #0x1A
	.db #0x74
	.db #0xBC
	.db #0x98
	.db #0x00
	.db #0x24
	.db #0xBC
	.db #0xDC
	.db #0x74
	.db #0x1A
	.db #0x1A
	.db #0x1A
	.db #0x1A
	.db #0x1A
	.db #0x00
	.db #0x50
	.db #0x74
	.db #0xB8
	.db #0xBC
	.db #0x63
	.db #0x62
	.db #0x74
	.db #0x50
	.db #0x1A
	.db #0x1A
	.db #0x1A
	.db #0x1A
	.db #0x1A
	.db #0x00
	.db #0x74
	.db #0x41
	.db #0x63
	.db #0xBC
	.db #0xDC
	.db #0x74
	.db #0x98
	.db #0x50
	.db #0x1A
	.db #0x1A
	.db #0x1A
	.db #0x1A
	.db #0x1A
	.db #0x50
	.db #0x74
	.db #0xB8
	.db #0x42
	.db #0x42
	.db #0x42
	.db #0xB8
	.db #0x74
	.db #0x1A
	.db #0x1A
	.db #0x1A
	.db #0x1A
	.db #0x1A
	.db #0x1A
	.db #0x98
	.db #0x21
	.db #0x42
	.db #0x42
	.db #0x63
	.db #0x18
	.db #0x1A
	.db #0x1A
	.db #0x1A
	.db #0x1A
	.db #0x1A
	.db #0x1A
	.db #0x1A
	.db #0x00
	.db #0x74
	.db #0x42
	.db #0x98
	.db #0x74
	.db #0x1A
	.db #0x1A
	.db #0x1A
	.db #0x1A
	.db #0x1A
	.db #0x1A
	.db #0x1A
	.db #0x1A
	.db #0x1A
	.db #0x00
	.db #0x18
	.db #0xB2
	.db #0x1A
	.db #0x1A
	.db #0x1A
	.db #0x1A
	.db #0x1A
	.db #0x1A
	.db #0x1A
	.db #0x1A
	.db #0x1A
	.db #0xBC
	.db #0xB8
	.db #0x1A
	.db #0x1A
	.db #0x1A
	.db #0x1A
	.db #0x1A
	.db #0x1A
	.db #0x1A
	.db #0x1A
	.db #0x1A
	.db #0x1A
	.db #0x24
	.db #0x00
	.db #0x00
	.db #0xB8
	.db #0x1A
	.db #0x1A
	.db #0x1A
	.db #0x1A
	.db #0x1A
	.db #0x1A
	.db #0x1A
	.db #0x00
	.db #0x74
	.db #0x24
	.db #0x49
	.db #0x00
	.db #0x00
	.db #0x74
	.db #0x1A
	.db #0x1A
	.db #0x1A
	.db #0x1A
	.db #0x1A
	.db #0x1A
	.db #0xFC
	.db #0x00
	.db #0x00
	.db #0x24
	.db #0x49
	.db #0xDC
	.db #0x63
	.db #0x41
	.db #0x98
	.db #0x1A
	.db #0x1A
	.db #0x1A
	.db #0x1A
	.db #0x98
	.db #0xBC
	.db #0x00
	.db #0x00
	.db #0xBC
	.db #0x62
	.db #0x62
	.db #0xDC
	.db #0x63
	.db #0xB8
	.db #0x1A
	.db #0x1A
	.db #0x1A
	.db #0x00
	.db #0xBC
	.db #0x98
	.db #0x74
	.db #0xB8
	.db #0x41
	.db #0xBC
	.db #0x42
	.db #0x42
	.db #0x63
	.db #0x50
	.db #0x1A
	.db #0x1A
	.db #0x1A
	.db #0x00
	.db #0x50
	.db #0x74
	.db #0x74
	.db #0x98
	.db #0x21
	.db #0x42
	.db #0x42
	.db #0x74
	.db #0x18
	.db #0x1A
	.db #0x1A
	.db #0x1A
	.db #0x1A
	.db #0x1A
	.db #0x1A
	.db #0x74
	.db #0x74
	.db #0x74
	.db #0x41
	.db #0x98
	.db #0x74
	.db #0x1A
	.db #0x1A
	.db #0x1A
	.db #0x1A
	.db #0x1A
	.db #0x1A
	.db #0x1A
	.db #0x1A
	.db #0x98
	.db #0xBC
	.db #0x1C
	.db #0x98
	.db #0x1A
	.db #0x1A
	.db #0x1A
	.db #0x1A
	.db #0x1A
	.db #0x1A
	.db #0x1A
	.db #0x1A
	.db #0x1A
	.db #0x00
	.db #0x00
	.db #0x74
	.db #0xB2
	.db #0x1A
	.db #0x1A
	.db #0x1A
	.db #0x1A
	.db #0x1A
	.db #0x1A
	.db #0x1A
	.db #0x1A
	.db #0x1A
	.db #0x1A
	.db #0x1A
	.db #0x1A
	.db #0x1A
	.db #0x1A
	.db #0x1A
	.db #0x1A
	.db #0x1A
	.db #0x1A
	.db #0x1A
	.db #0x1A
	.db #0x1A
	.db #0x1A
	.db #0x1A
	.db #0x1A
	.db #0x1A
	.db #0x1A
	.db #0x1A
	.db #0x1A
	.db #0x1A
	.db #0x1A
	.db #0x1A
	.db #0xDC
	.db #0x74
	.db #0x50
	.db #0x1A
	.db #0x1A
	.db #0x1A
	.db #0x1A
	.db #0x1A
	.db #0x1A
	.db #0x1A
	.db #0x1A
	.db #0x1A
	.db #0x74
	.db #0x00
	.db #0x00
	.db #0x98
	.db #0x74
	.db #0x50
	.db #0x63
	.db #0x98
	.db #0x42
	.db #0x1A
	.db #0x1A
	.db #0x1A
	.db #0x1A
	.db #0x00
	.db #0x24
	.db #0x24
	.db #0x00
	.db #0x74
	.db #0x62
	.db #0x63
	.db #0xDC
	.db #0x42
	.db #0x50
	.db #0x1A
	.db #0x1A
	.db #0x74
	.db #0xBC
	.db #0x74
	.db #0x24
	.db #0x49
	.db #0xBC
	.db #0x62
	.db #0xB8
	.db #0x21
	.db #0x41
	.db #0x42
	.db #0x14
	.db #0x1A
	.db #0x50
	.db #0xFC
	.db #0x98
	.db #0xBC
	.db #0xBC
	.db #0xB8
	.db #0x21
	.db #0x98
	.db #0x21
	.db #0x42
	.db #0x74
	.db #0x1A
	.db #0x1A
	.db #0x1A
	.db #0x74
	.db #0x00
	.db #0x50
	.db #0x74
	.db #0x98
	.db #0x98
	.db #0x74
	.db #0x98
	.db #0x42
	.db #0x74
	.db #0x1A
	.db #0x1A
	.db #0x1A
	.db #0x1A
	.db #0x00
	.db #0x00
	.db #0x50
	.db #0x74
	.db #0x50
	.db #0x98
	.db #0xB8
	.db #0xBC
	.db #0x1C
	.db #0xB2
	.db #0x1A
	.db #0x1A
	.db #0x1A
	.db #0x1A
	.db #0x1A
	.db #0x1A
	.db #0x1A
	.db #0x1A
	.db #0x00
	.db #0x50
	.db #0x98
	.db #0x50
	.db #0x1A
	.db #0x1A
	.db #0x1A
	.db #0x1A
	.db #0x1A
	.db #0x1A
	.db #0x1A
	.db #0x1A
	.db #0x1A
	.db #0x00
	.db #0x00
	.db #0x1A
	.db #0x1A
	.db #0x1A
	.db #0x1A
	.db #0x1A
	.db #0x1A
	.db #0x1A
	.db #0x1A
	.db #0x1A
	.db #0x1A
	.db #0x1A
	.db #0x1A
	.db #0x1A
	.db #0x1A
	.db #0x1A
	.db #0x1A
	.db #0x1A
	.db #0x1A
	.db #0x1A
	.db #0x1A
	.db #0x1A
	.db #0x1A
	.db #0x1A
	.db #0x1A
	.db #0x1A
	.db #0x1A
	.db #0x1A
	.db #0x1A
	.db #0x1A
	.db #0x1A
	.db #0x1A
	.db #0x1A
	.db #0x1A
	.db #0x1A
	.db #0x1A
	.db #0x1A
	.db #0x1A
	.db #0x63
	.db #0xDC
	.db #0x42
	.db #0x1A
	.db #0x1A
	.db #0x1A
	.db #0x1A
	.db #0x50
	.db #0xBC
	.db #0x74
	.db #0x98
	.db #0xB8
	.db #0xBC
	.db #0x63
	.db #0xB8
	.db #0x42
	.db #0x42
	.db #0x14
	.db #0x1A
	.db #0x1A
	.db #0x74
	.db #0x00
	.db #0x00
	.db #0x00
	.db #0x00
	.db #0xB8
	.db #0x62
	.db #0xB8
	.db #0x41
	.db #0x42
	.db #0x74
	.db #0x1A
	.db #0x1A
	.db #0x00
	.db #0x24
	.db #0x24
	.db #0x49
	.db #0x49
	.db #0xB8
	.db #0x42
	.db #0x74
	.db #0x21
	.db #0x42
	.db #0x74
	.db #0x1A
	.db #0x1A
	.db #0xBC
	.db #0x24
	.db #0x24
	.db #0x24
	.db #0x24
	.db #0x74
	.db #0x21
	.db #0x50
	.db #0x21
	.db #0x42
	.db #0x98
	.db #0x1A
	.db #0x1A
	.db #0x74
	.db #0xFC
	.db #0xB8
	.db #0xBC
	.db #0x98
	.db #0x74
	.db #0x74
	.db #0x74
	.db #0xB8
	.db #0xBC
	.db #0x18
	.db #0xB2
	.db #0x1A
	.db #0x50
	.db #0x74
	.db #0x00
	.db #0x00
	.db #0x50
	.db #0x74
	.db #0x74
	.db #0x50
	.db #0x00
	.db #0x00
	.db #0x98
	.db #0x1A
	.db #0x1A
	.db #0x1A
	.db #0x1A
	.db #0x00
	.db #0x00
	.db #0x1A
	.db #0x1A
	.db #0x1A
	.db #0x1A
	.db #0x00
	.db #0x00
	.db #0x1A
	.db #0x1A
	.db #0x1A
	.db #0x1A
	.db #0x1A
	.db #0x1A
	.db #0x1A
	.db #0x1A
	.db #0x1A
	.db #0x1A
	.db #0x1A
	.db #0x1A
	.db #0x1A
	.db #0x1A
	.db #0x1A
	.db #0x1A
	.db #0x1A
	.db #0x1A
	.db #0x1A
	.db #0x1A
	.db #0x1A
	.db #0x1A
	.db #0x1A
	.db #0x1A
	.db #0x1A
	.db #0x1A
	.db #0x1A
	.db #0x1A
	.db #0x1A
	.db #0x1A
	.db #0x1A
	.db #0x1A
	.db #0x1A
	.db #0x1A
	.db #0x1A
	.db #0x1A
	.db #0x1A
	.db #0x1A
	.db #0x1A
	.db #0x1A
	.db #0x1A
	.db #0x1A
	.db #0x1A
	.db #0x1A
	.db #0x1A
	.db #0x1A
	.db #0x1A
	.db #0x63
	.db #0x98
	.db #0x42
	.db #0x42
	.db #0x14
	.db #0x1A
	.db #0x1A
	.db #0x1A
	.db #0x1A
	.db #0x1A
	.db #0x50
	.db #0xB8
	.db #0xBC
	.db #0x63
	.db #0xDC
	.db #0x42
	.db #0x42
	.db #0x74
	.db #0x1A
	.db #0x1A
	.db #0x1A
	.db #0xBC
	.db #0x74
	.db #0x98
	.db #0x00
	.db #0xDC
	.db #0x62
	.db #0x62
	.db #0xB8
	.db #0x42
	.db #0x74
	.db #0x50
	.db #0x1A
	.db #0x74
	.db #0x74
	.db #0x00
	.db #0x00
	.db #0x49
	.db #0x49
	.db #0xB8
	.db #0x42
	.db #0x98
	.db #0x21
	.db #0x42
	.db #0x98
	.db #0xB2
	.db #0x50
	.db #0x00
	.db #0x24
	.db #0x24
	.db #0x24
	.db #0x24
	.db #0xB8
	.db #0x21
	.db #0x74
	.db #0xB8
	.db #0xBC
	.db #0x18
	.db #0x1A
	.db #0x1A
	.db #0xBC
	.db #0x24
	.db #0x24
	.db #0xBC
	.db #0xBC
	.db #0xBC
	.db #0x98
	.db #0x98
	.db #0x74
	.db #0x00
	.db #0x50
	.db #0x1A
	.db #0x1A
	.db #0x74
	.db #0xFC
	.db #0xB8
	.db #0x00
	.db #0x50
	.db #0x74
	.db #0x74
	.db #0x50
	.db #0x00
	.db #0x00
	.db #0x1A
	.db #0x1A
	.db #0x1A
	.db #0x1A
	.db #0x50
	.db #0x74
	.db #0x00
	.db #0x00
	.db #0x1A
	.db #0x1A
	.db #0x1A
	.db #0x1A
	.db #0x1A
	.db #0x1A
	.db #0x1A
	.db #0x1A
	.db #0x1A
	.db #0x1A
	.db #0x1A
	.db #0x1A
	.db #0x1A
	.db #0x1A
	.db #0x1A
	.db #0x1A
	.db #0x1A
	.db #0x1A
	.db #0x1A
	.db #0x1A
	.db #0x1A
	.db #0x1A
	.db #0x1A
	.db #0x1A
	.db #0x1A
	.db #0x1A
	.db #0x1A
	.db #0x1A
	.db #0x1A
	.db #0x1A
	.db #0x1A
	.db #0x1A
	.db #0x1A
	.db #0x1A
	.db #0x1A
	.db #0x1A
	.db #0x1A
	.db #0x1A
	.db #0x1A
	.db #0x50
	.db #0x14
	.db #0x74
	.db #0x1A
	.db #0x1A
	.db #0x1A
	.db #0x1A
	.db #0x1A
	.db #0x1A
	.db #0x1A
	.db #0x1A
	.db #0x1A
	.db #0x74
	.db #0x42
	.db #0x42
	.db #0x42
	.db #0x74
	.db #0x1A
	.db #0x1A
	.db #0x1A
	.db #0x1A
	.db #0x1A
	.db #0x1A
	.db #0x1A
	.db #0x63
	.db #0xB8
	.db #0xBC
	.db #0x74
	.db #0x42
	.db #0x21
	.db #0x98
	.db #0xB2
	.db #0x1A
	.db #0x1A
	.db #0x1A
	.db #0x1A
	.db #0x50
	.db #0x62
	.db #0x62
	.db #0x98
	.db #0xBC
	.db #0x74
	.db #0x21
	.db #0xBC
	.db #0x1C
	.db #0x1A
	.db #0x1A
	.db #0x1A
	.db #0x74
	.db #0xB8
	.db #0xBC
	.db #0x62
	.db #0x42
	.db #0x74
	.db #0xB8
	.db #0xBC
	.db #0x00
	.db #0x1A
	.db #0x1A
	.db #0x1A
	.db #0xB8
	.db #0xB8
	.db #0x00
	.db #0x49
	.db #0xBC
	.db #0x42
	.db #0x21
	.db #0x74
	.db #0x00
	.db #0x1A
	.db #0x1A
	.db #0x1A
	.db #0x74
	.db #0xFC
	.db #0x00
	.db #0x24
	.db #0x49
	.db #0x24
	.db #0xBC
	.db #0xB8
	.db #0x74
	.db #0x1A
	.db #0x1A
	.db #0x1A
	.db #0x1A
	.db #0x50
	.db #0x00
	.db #0x24
	.db #0x24
	.db #0x24
	.db #0x98
	.db #0xBC
	.db #0x74
	.db #0x1A
	.db #0x1A
	.db #0x1A
	.db #0x1A
	.db #0x1A
	.db #0x1A
	.db #0x00
	.db #0x00
	.db #0x24
	.db #0xFC
	.db #0xBC
	.db #0x00
	.db #0x1A
	.db #0x1A
	.db #0x1A
	.db #0x1A
	.db #0x1A
	.db #0x1A
	.db #0x1A
	.db #0x1A
	.db #0x00
	.db #0x74
	.db #0x74
	.db #0x00
	.db #0x1A
	.db #0x1A
	.db #0x1A
	.db #0x1A
	.db #0x1A
	.db #0x1A
	.db #0x1A
	.db #0x1A
	.db #0x1A
	.db #0x1A
	.db #0x1A
	.db #0x1A
	.db #0x1A
	.db #0x1A
	.db #0x1A
	.db #0x1A
	.db #0x1A
	.db #0x1A
	.db #0x1A
	.db #0x1A
	.db #0x1A
	.db #0x1A
	.db #0x1A
	.db #0x1A
	.db #0x1A
	.db #0x1A
	.db #0x18
	.db #0x74
	.db #0x1A
	.db #0x1A
	.db #0x1A
	.db #0x1A
	.db #0x1A
	.db #0x1A
	.db #0x1A
	.db #0x1A
	.db #0x1A
	.db #0x50
	.db #0x74
	.db #0x41
	.db #0x42
	.db #0x98
	.db #0x74
	.db #0x1A
	.db #0x1A
	.db #0x1A
	.db #0x1A
	.db #0x1A
	.db #0x1A
	.db #0x1A
	.db #0xBC
	.db #0x98
	.db #0xB8
	.db #0x42
	.db #0x42
	.db #0x63
	.db #0x18
	.db #0x1A
	.db #0x1A
	.db #0x1A
	.db #0x1A
	.db #0x1A
	.db #0x24
	.db #0x74
	.db #0xB8
	.db #0xBC
	.db #0xBC
	.db #0xBC
	.db #0xDC
	.db #0xB8
	.db #0x1A
	.db #0x1A
	.db #0x1A
	.db #0x1A
	.db #0x1A
	.db #0x50
	.db #0x74
	.db #0x41
	.db #0x63
	.db #0xBC
	.db #0xDC
	.db #0x98
	.db #0xBC
	.db #0x1A
	.db #0x1A
	.db #0x1A
	.db #0x1A
	.db #0x1A
	.db #0x98
	.db #0x74
	.db #0xB8
	.db #0x42
	.db #0x63
	.db #0x62
	.db #0x74
	.db #0x00
	.db #0x1A
	.db #0x1A
	.db #0x1A
	.db #0x1A
	.db #0xBC
	.db #0xBC
	.db #0x00
	.db #0x24
	.db #0xBC
	.db #0xDC
	.db #0x74
	.db #0x74
	.db #0x1A
	.db #0x1A
	.db #0x1A
	.db #0x1A
	.db #0x1A
	.db #0x98
	.db #0xBC
	.db #0x00
	.db #0x24
	.db #0x49
	.db #0x00
	.db #0x50
	.db #0x1A
	.db #0x1A
	.db #0x1A
	.db #0x1A
	.db #0x1A
	.db #0x50
	.db #0x98
	.db #0x00
	.db #0x24
	.db #0x24
	.db #0x49
	.db #0x00
	.db #0xBC
	.db #0x1A
	.db #0x1A
	.db #0x1A
	.db #0x1A
	.db #0x1A
	.db #0x00
	.db #0x50
	.db #0x74
	.db #0x24
	.db #0x24
	.db #0x00
	.db #0xFC
	.db #0xBC
	.db #0x1A
	.db #0x1A
	.db #0x1A
	.db #0x1A
	.db #0x1A
	.db #0x1A
	.db #0x1A
	.db #0x50
	.db #0x74
	.db #0x74
	.db #0x74
	.db #0xFC
	.db #0x00
	.db #0x1A
	.db #0x1A
	.db #0x1A
	.db #0x1A
	.db #0x1A
	.db #0x1A
	.db #0x1A
	.db #0x14
	.db #0x74
	.db #0x98
	.db #0x74
	.db #0x74
	.db #0x14
	.db #0x1A
	.db #0x1A
	.db #0x1A
	.db #0x1A
	.db #0x1A
	.db #0x1A
	.db #0x1A
	.db #0xB8
	.db #0x63
	.db #0x42
	.db #0x42
	.db #0x41
	.db #0x74
	.db #0x1A
	.db #0x1A
	.db #0x1A
	.db #0x1A
	.db #0x1A
	.db #0x1A
	.db #0xBC
	.db #0x98
	.db #0xDC
	.db #0xBC
	.db #0xBC
	.db #0xB8
	.db #0x74
	.db #0xBC
	.db #0x1A
	.db #0x1A
	.db #0x1A
	.db #0x1A
	.db #0x1A
	.db #0x98
	.db #0x74
	.db #0xDC
	.db #0xBC
	.db #0xBC
	.db #0xB8
	.db #0x74
	.db #0x98
	.db #0x1A
	.db #0x1A
	.db #0x1A
	.db #0x1A
	.db #0x1A
	.db #0x24
	.db #0x74
	.db #0x62
	.db #0x63
	.db #0x63
	.db #0x41
	.db #0x50
	.db #0x00
	.db #0x1A
	.db #0x1A
	.db #0x1A
	.db #0x1A
	.db #0x1A
	.db #0x1A
	.db #0x74
	.db #0xDC
	.db #0xBC
	.db #0xBC
	.db #0xB8
	.db #0x74
	.db #0x1A
	.db #0x1A
	.db #0x1A
	.db #0x1A
	.db #0x1A
	.db #0x1A
	.db #0x1A
	.db #0x98
	.db #0x00
	.db #0x49
	.db #0x24
	.db #0x00
	.db #0x98
	.db #0x1A
	.db #0x1A
	.db #0x1A
	.db #0x1A
	.db #0x1A
	.db #0x1A
	.db #0xBC
	.db #0xBC
	.db #0x00
	.db #0x49
	.db #0x24
	.db #0x00
	.db #0xBC
	.db #0xBC
	.db #0x1A
	.db #0x1A
	.db #0x1A
	.db #0x1A
	.db #0x1A
	.db #0x98
	.db #0xB8
	.db #0x00
	.db #0x24
	.db #0x24
	.db #0x00
	.db #0xBC
	.db #0x98
	.db #0x1A
	.db #0x1A
	.db #0x1A
	.db #0x1A
	.db #0x1A
	.db #0x24
	.db #0xFC
	.db #0x74
	.db #0x24
	.db #0x24
	.db #0x74
	.db #0xFC
	.db #0x00
	.db #0x1A
	.db #0x1A
	.db #0x1A
	.db #0x1A
	.db #0x1A
	.db #0x1A
	.db #0x1A
	.db #0x50
	.db #0x74
	.db #0x74
	.db #0x50
	.db #0x1A
	.db #0x1A
	.db #0x1A
	.db #0x1A
	.db #0x1A
	.db #0x1A
	.db #0x1A
	.db #0x1A
	.db #0x1A
	.db #0x1A
	.db #0x74
	.db #0x18
	.db #0x1A
	.db #0x1A
	.db #0x1A
	.db #0x1A
	.db #0x1A
	.db #0x1A
	.db #0x1A
	.db #0x1A
	.db #0x1A
	.db #0x74
	.db #0x98
	.db #0x42
	.db #0x41
	.db #0x74
	.db #0x50
	.db #0x1A
	.db #0x1A
	.db #0x1A
	.db #0x1A
	.db #0x1A
	.db #0x1A
	.db #0x18
	.db #0x63
	.db #0x42
	.db #0x42
	.db #0xB8
	.db #0x98
	.db #0xBC
	.db #0x1A
	.db #0x1A
	.db #0x1A
	.db #0x1A
	.db #0x1A
	.db #0x1A
	.db #0xB8
	.db #0xDC
	.db #0xBC
	.db #0xBC
	.db #0xBC
	.db #0xB8
	.db #0x74
	.db #0x1A
	.db #0x1A
	.db #0x1A
	.db #0x1A
	.db #0x1A
	.db #0x1A
	.db #0x50
	.db #0x98
	.db #0xDC
	.db #0xBC
	.db #0x63
	.db #0x41
	.db #0x74
	.db #0x50
	.db #0x1A
	.db #0x1A
	.db #0x1A
	.db #0x1A
	.db #0x1A
	.db #0x24
	.db #0xB8
	.db #0x62
	.db #0x63
	.db #0x42
	.db #0xB8
	.db #0x74
	.db #0x98
	.db #0x1A
	.db #0x1A
	.db #0x1A
	.db #0x1A
	.db #0x1A
	.db #0x1A
	.db #0x74
	.db #0x74
	.db #0xDC
	.db #0xBC
	.db #0x24
	.db #0x00
	.db #0xBC
	.db #0xBC
	.db #0x1A
	.db #0x1A
	.db #0x1A
	.db #0x1A
	.db #0x1A
	.db #0x1A
	.db #0x98
	.db #0x00
	.db #0x49
	.db #0x24
	.db #0x00
	.db #0x50
	.db #0x98
	.db #0x50
	.db #0x1A
	.db #0x1A
	.db #0x1A
	.db #0x1A
	.db #0x1A
	.db #0xBC
	.db #0x00
	.db #0x49
	.db #0x24
	.db #0x24
	.db #0x00
	.db #0xFC
	.db #0x00
	.db #0x1A
	.db #0x1A
	.db #0x1A
	.db #0x1A
	.db #0x1A
	.db #0x50
	.db #0xFC
	.db #0x00
	.db #0x24
	.db #0x24
	.db #0x74
	.db #0x50
	.db #0x1A
	.db #0x1A
	.db #0x1A
	.db #0x1A
	.db #0x1A
	.db #0x1A
	.db #0x24
	.db #0xB8
	.db #0x74
	.db #0x74
	.db #0x74
	.db #0x50
	.db #0x1A
	.db #0x1A
	.db #0x1A
	.db #0x1A
	.db #0x1A
	.db #0x1A
	.db #0x1A
	.db #0xB2
	.db #0x14
	.db #0x1A
	.db #0x1A
	.db #0x1A
	.db #0x1A
	.db #0x1A
	.db #0x1A
	.db #0x1A
	.db #0x1A
	.db #0x1A
	.db #0x1A
	.db #0x74
	.db #0x42
	.db #0x42
	.db #0x42
	.db #0x74
	.db #0x1A
	.db #0x1A
	.db #0x1A
	.db #0x1A
	.db #0x1A
	.db #0x1A
	.db #0x1A
	.db #0x98
	.db #0x21
	.db #0x42
	.db #0x74
	.db #0xBC
	.db #0xB8
	.db #0x63
	.db #0x1A
	.db #0x1A
	.db #0x1A
	.db #0x1A
	.db #0x1A
	.db #0x1C
	.db #0xBC
	.db #0x21
	.db #0x74
	.db #0xBC
	.db #0x98
	.db #0x62
	.db #0x62
	.db #0x50
	.db #0x1A
	.db #0x1A
	.db #0x1A
	.db #0x1A
	.db #0x1A
	.db #0x00
	.db #0xBC
	.db #0xB8
	.db #0x74
	.db #0x42
	.db #0x62
	.db #0xBC
	.db #0xB8
	.db #0x74
	.db #0x1A
	.db #0x1A
	.db #0x1A
	.db #0x1A
	.db #0x1A
	.db #0x00
	.db #0x74
	.db #0x21
	.db #0x42
	.db #0xBC
	.db #0x49
	.db #0x00
	.db #0xB8
	.db #0x74
	.db #0x1A
	.db #0x1A
	.db #0x1A
	.db #0x1A
	.db #0x1A
	.db #0x74
	.db #0xB8
	.db #0xBC
	.db #0x24
	.db #0x49
	.db #0x24
	.db #0x00
	.db #0xFC
	.db #0x50
	.db #0x1A
	.db #0x1A
	.db #0x1A
	.db #0x1A
	.db #0x1A
	.db #0x74
	.db #0xBC
	.db #0x98
	.db #0x24
	.db #0x24
	.db #0x24
	.db #0x74
	.db #0x74
	.db #0x1A
	.db #0x1A
	.db #0x1A
	.db #0x1A
	.db #0x1A
	.db #0x1A
	.db #0x00
	.db #0xBC
	.db #0xFC
	.db #0x24
	.db #0x00
	.db #0x00
	.db #0x1A
	.db #0x1A
	.db #0x1A
	.db #0x1A
	.db #0x1A
	.db #0x1A
	.db #0x1A
	.db #0x1A
	.db #0x00
	.db #0x74
	.db #0x74
	.db #0x00
	.db #0x1A
	.db #0x1A
	.db #0x1A
	.db #0x1A
	.db #0x1A
	.db #0x1A
	.db #0x1A
	.db #0x1A
	.db #0x1A
	.db #0x1A
	.db #0x1A
	.db #0x1A
	.db #0x1A
	.db #0x1A
	.db #0x1A
	.db #0x1A
	.db #0x1A
	.db #0x1A
	.db #0x1A
	.db #0x1A
	.db #0x1A
	.db #0x1A
	.db #0x1A
	.db #0x1A
	.db #0x1A
	.db #0x1A
	.db #0x1A
	.db #0x1A
	.db #0x1A
	.db #0x1A
	.db #0x14
	.db #0x42
	.db #0x42
	.db #0x98
	.db #0x63
	.db #0x1A
	.db #0x1A
	.db #0x1A
	.db #0x1A
	.db #0x1A
	.db #0x1A
	.db #0x1A
	.db #0xB2
	.db #0x74
	.db #0x42
	.db #0x42
	.db #0xDC
	.db #0x63
	.db #0xBC
	.db #0xB8
	.db #0x50
	.db #0x1A
	.db #0x1A
	.db #0x1A
	.db #0x1A
	.db #0x50
	.db #0x74
	.db #0x42
	.db #0xB8
	.db #0x62
	.db #0x62
	.db #0xDC
	.db #0x00
	.db #0x98
	.db #0x74
	.db #0xBC
	.db #0x1A
	.db #0x1A
	.db #0x98
	.db #0x42
	.db #0x21
	.db #0x98
	.db #0x42
	.db #0xB8
	.db #0x49
	.db #0x49
	.db #0x00
	.db #0x00
	.db #0x74
	.db #0x74
	.db #0x1A
	.db #0x18
	.db #0xBC
	.db #0xB8
	.db #0x74
	.db #0x21
	.db #0xB8
	.db #0x24
	.db #0x24
	.db #0x24
	.db #0x24
	.db #0x00
	.db #0x50
	.db #0x1A
	.db #0x50
	.db #0x00
	.db #0x74
	.db #0x98
	.db #0x98
	.db #0xBC
	.db #0xBC
	.db #0xBC
	.db #0x24
	.db #0x24
	.db #0xBC
	.db #0x1A
	.db #0x1A
	.db #0x1A
	.db #0x00
	.db #0x00
	.db #0x50
	.db #0x74
	.db #0x74
	.db #0x00
	.db #0x74
	.db #0x98
	.db #0xFC
	.db #0x74
	.db #0x1A
	.db #0x1A
	.db #0x1A
	.db #0x1A
	.db #0x1A
	.db #0x1A
	.db #0x1A
	.db #0x1A
	.db #0x00
	.db #0x00
	.db #0xB8
	.db #0x50
	.db #0x1A
	.db #0x1A
	.db #0x1A
	.db #0x1A
	.db #0x1A
	.db #0x1A
	.db #0x1A
	.db #0x1A
	.db #0x1A
	.db #0x1A
	.db #0x1A
	.db #0x1A
	.db #0x1A
	.db #0x1A
	.db #0x1A
	.db #0x1A
	.db #0x1A
	.db #0x1A
	.db #0x1A
	.db #0x1A
	.db #0x1A
	.db #0x1A
	.db #0x1A
	.db #0x1A
	.db #0x1A
	.db #0x1A
	.db #0x1A
	.db #0x1A
_car3:
	.db #0x1A
	.db #0x1A
	.db #0x1A
	.db #0x1A
	.db #0x1A
	.db #0x1A
	.db #0x1A
	.db #0x1A
	.db #0x1A
	.db #0x1A
	.db #0x1A
	.db #0x1A
	.db #0x1A
	.db #0x1A
	.db #0x1A
	.db #0x1A
	.db #0x1A
	.db #0x1A
	.db #0x1A
	.db #0x1A
	.db #0x1A
	.db #0x1A
	.db #0x1A
	.db #0x1A
	.db #0x1A
	.db #0x1A
	.db #0x1A
	.db #0x14
	.db #0x08
	.db #0x0C
	.db #0x65
	.db #0x14
	.db #0x14
	.db #0x65
	.db #0x10
	.db #0x10
	.db #0xB8
	.db #0x1A
	.db #0x1A
	.db #0x1A
	.db #0x14
	.db #0x20
	.db #0x14
	.db #0xAE
	.db #0x1C
	.db #0x1C
	.db #0xAE
	.db #0x14
	.db #0x14
	.db #0x14
	.db #0x00
	.db #0x1A
	.db #0x1A
	.db #0x1C
	.db #0x20
	.db #0x1C
	.db #0x14
	.db #0x1C
	.db #0x1C
	.db #0xD2
	.db #0x14
	.db #0x18
	.db #0x1C
	.db #0x10
	.db #0x1A
	.db #0x1A
	.db #0x0C
	.db #0x14
	.db #0x14
	.db #0x14
	.db #0x14
	.db #0x1C
	.db #0x14
	.db #0x10
	.db #0x14
	.db #0x14
	.db #0x14
	.db #0x1A
	.db #0x1A
	.db #0x9C
	.db #0x18
	.db #0x1C
	.db #0x14
	.db #0x14
	.db #0x14
	.db #0x14
	.db #0x1C
	.db #0x18
	.db #0xFC
	.db #0x18
	.db #0x1A
	.db #0x1A
	.db #0x18
	.db #0x14
	.db #0x24
	.db #0x24
	.db #0x0C
	.db #0x10
	.db #0x0C
	.db #0x24
	.db #0x24
	.db #0x18
	.db #0x00
	.db #0x1A
	.db #0x1A
	.db #0x1A
	.db #0x1A
	.db #0x00
	.db #0x00
	.db #0x1A
	.db #0x1A
	.db #0x1A
	.db #0x00
	.db #0x00
	.db #0x1A
	.db #0x1A
	.db #0x1A
	.db #0x1A
	.db #0x1A
	.db #0x1A
	.db #0x1A
	.db #0x1A
	.db #0x1A
	.db #0x1A
	.db #0x1A
	.db #0x1A
	.db #0x1A
	.db #0x1A
	.db #0x1A
	.db #0x1A
	.db #0x1A
	.db #0x1A
	.db #0x1A
	.db #0x1A
	.db #0x1A
	.db #0x1A
	.db #0x1A
	.db #0x1A
	.db #0x1A
	.db #0x1A
	.db #0x1A
	.db #0x1A
	.db #0x1A
	.db #0x1A
	.db #0x1A
	.db #0x1A
	.db #0x1A
	.db #0x1A
	.db #0x1A
	.db #0x1A
	.db #0x1A
	.db #0x1A
	.db #0x1A
	.db #0x1A
	.db #0x1A
	.db #0x1A
	.db #0x1A
	.db #0x1A
	.db #0x1A
	.db #0x1A
	.db #0x1A
	.db #0x1A
	.db #0x65
	.db #0x10
	.db #0x10
	.db #0xB8
	.db #0x00
	.db #0x1A
	.db #0x1A
	.db #0x1A
	.db #0x1A
	.db #0x1A
	.db #0x65
	.db #0x14
	.db #0x14
	.db #0xAE
	.db #0x14
	.db #0x14
	.db #0x14
	.db #0x10
	.db #0x0C
	.db #0x1A
	.db #0x1A
	.db #0x08
	.db #0x14
	.db #0xAE
	.db #0x1C
	.db #0x1C
	.db #0xD2
	.db #0x14
	.db #0x18
	.db #0x1C
	.db #0x14
	.db #0x0C
	.db #0x1A
	.db #0x1A
	.db #0x14
	.db #0x20
	.db #0x1C
	.db #0x14
	.db #0x1C
	.db #0x1C
	.db #0x14
	.db #0x10
	.db #0x14
	.db #0xFC
	.db #0x18
	.db #0x1A
	.db #0x1A
	.db #0x1C
	.db #0x14
	.db #0x14
	.db #0x14
	.db #0x14
	.db #0x14
	.db #0x14
	.db #0x1C
	.db #0x18
	.db #0x18
	.db #0x00
	.db #0x1A
	.db #0x1A
	.db #0x0C
	.db #0x18
	.db #0x1C
	.db #0x14
	.db #0x14
	.db #0x10
	.db #0x0C
	.db #0x24
	.db #0x24
	.db #0x00
	.db #0x1A
	.db #0x1A
	.db #0x1A
	.db #0x9C
	.db #0x14
	.db #0x24
	.db #0x24
	.db #0x0C
	.db #0x1A
	.db #0x1A
	.db #0x1A
	.db #0x00
	.db #0x00
	.db #0x1A
	.db #0x1A
	.db #0x1A
	.db #0x1A
	.db #0x1A
	.db #0x1A
	.db #0x00
	.db #0x00
	.db #0x1A
	.db #0x1A
	.db #0x1A
	.db #0x1A
	.db #0x1A
	.db #0x1A
	.db #0x1A
	.db #0x1A
	.db #0x1A
	.db #0x1A
	.db #0x1A
	.db #0x1A
	.db #0x1A
	.db #0x1A
	.db #0x1A
	.db #0x1A
	.db #0x1A
	.db #0x1A
	.db #0x1A
	.db #0x1A
	.db #0x1A
	.db #0x1A
	.db #0x1A
	.db #0x1A
	.db #0x1A
	.db #0x1A
	.db #0x1A
	.db #0x1A
	.db #0x1A
	.db #0x1A
	.db #0x1A
	.db #0x1A
	.db #0x1A
	.db #0x1A
	.db #0x1A
	.db #0x1A
	.db #0x1A
	.db #0x1A
	.db #0x1A
	.db #0x1A
	.db #0x1A
	.db #0x1A
	.db #0x1A
	.db #0x1A
	.db #0x1A
	.db #0x1A
	.db #0x1A
	.db #0x1A
	.db #0x1A
	.db #0x1A
	.db #0x1A
	.db #0x1A
	.db #0x0C
	.db #0x10
	.db #0xB8
	.db #0x24
	.db #0x1A
	.db #0x1A
	.db #0x1A
	.db #0x1A
	.db #0x1A
	.db #0x1A
	.db #0x1A
	.db #0x0C
	.db #0x8A
	.db #0x18
	.db #0x10
	.db #0x14
	.db #0x0C
	.db #0x0C
	.db #0x1A
	.db #0x1A
	.db #0x1A
	.db #0x1A
	.db #0x1A
	.db #0x0C
	.db #0x10
	.db #0x14
	.db #0xB2
	.db #0x10
	.db #0x14
	.db #0x14
	.db #0x0C
	.db #0x1A
	.db #0x1A
	.db #0x1A
	.db #0x1A
	.db #0x08
	.db #0xB2
	.db #0x14
	.db #0x14
	.db #0x8A
	.db #0x14
	.db #0x18
	.db #0x14
	.db #0xBC
	.db #0x24
	.db #0x1A
	.db #0x1A
	.db #0x18
	.db #0x20
	.db #0x14
	.db #0xB2
	.db #0x10
	.db #0x10
	.db #0x14
	.db #0x1C
	.db #0x24
	.db #0x00
	.db #0x1A
	.db #0x1A
	.db #0x1A
	.db #0x18
	.db #0x0C
	.db #0x20
	.db #0x1C
	.db #0x10
	.db #0x14
	.db #0x14
	.db #0x0C
	.db #0x00
	.db #0x00
	.db #0x1A
	.db #0x1A
	.db #0x1A
	.db #0x1A
	.db #0x18
	.db #0x0C
	.db #0x10
	.db #0x14
	.db #0x10
	.db #0x0C
	.db #0x1A
	.db #0x1A
	.db #0x1A
	.db #0x1A
	.db #0x1A
	.db #0x1A
	.db #0x1A
	.db #0x9C
	.db #0x18
	.db #0x0C
	.db #0x24
	.db #0x00
	.db #0x1A
	.db #0x1A
	.db #0x1A
	.db #0x1A
	.db #0x1A
	.db #0x1A
	.db #0x1A
	.db #0x1A
	.db #0x1A
	.db #0x1A
	.db #0x00
	.db #0x00
	.db #0x1A
	.db #0x1A
	.db #0x1A
	.db #0x1A
	.db #0x1A
	.db #0x1A
	.db #0x1A
	.db #0x1A
	.db #0x1A
	.db #0x1A
	.db #0x1A
	.db #0x1A
	.db #0x1A
	.db #0x1A
	.db #0x1A
	.db #0x1A
	.db #0x1A
	.db #0x1A
	.db #0x1A
	.db #0x1A
	.db #0x1A
	.db #0x1A
	.db #0x1A
	.db #0x1A
	.db #0x98
	.db #0x10
	.db #0x0C
	.db #0x0C
	.db #0x1A
	.db #0x1A
	.db #0x1A
	.db #0x1A
	.db #0x1A
	.db #0x1A
	.db #0x1A
	.db #0x1A
	.db #0x10
	.db #0x18
	.db #0x14
	.db #0x14
	.db #0x14
	.db #0x0C
	.db #0x1A
	.db #0x1A
	.db #0x1A
	.db #0x1A
	.db #0x1A
	.db #0x1A
	.db #0x1A
	.db #0x08
	.db #0x8A
	.db #0x14
	.db #0x14
	.db #0x18
	.db #0x10
	.db #0x98
	.db #0x1A
	.db #0x1A
	.db #0x1A
	.db #0x1A
	.db #0x1A
	.db #0x08
	.db #0x0C
	.db #0x14
	.db #0xD6
	.db #0xB2
	.db #0x8A
	.db #0x1C
	.db #0x10
	.db #0x1A
	.db #0x1A
	.db #0x1A
	.db #0x1A
	.db #0x1A
	.db #0x0C
	.db #0x10
	.db #0x14
	.db #0x18
	.db #0x1C
	.db #0x14
	.db #0x08
	.db #0x00
	.db #0x1A
	.db #0x1A
	.db #0x1A
	.db #0x1A
	.db #0x14
	.db #0x0C
	.db #0x14
	.db #0xB2
	.db #0x1C
	.db #0x14
	.db #0x14
	.db #0x08
	.db #0x00
	.db #0x1A
	.db #0x1A
	.db #0x1A
	.db #0x1A
	.db #0x00
	.db #0x10
	.db #0x14
	.db #0x10
	.db #0xB2
	.db #0x14
	.db #0x0C
	.db #0x1A
	.db #0x1A
	.db #0x1A
	.db #0x1A
	.db #0x1A
	.db #0x1A
	.db #0x00
	.db #0x10
	.db #0x20
	.db #0x10
	.db #0x0C
	.db #0x14
	.db #0x0C
	.db #0x14
	.db #0x1A
	.db #0x1A
	.db #0x1A
	.db #0x1A
	.db #0x1A
	.db #0x1A
	.db #0x18
	.db #0x1C
	.db #0x20
	.db #0x10
	.db #0x9C
	.db #0x14
	.db #0x00
	.db #0x1A
	.db #0x1A
	.db #0x1A
	.db #0x1A
	.db #0x1A
	.db #0x1A
	.db #0x1A
	.db #0x1A
	.db #0x1C
	.db #0x18
	.db #0x1A
	.db #0x00
	.db #0x1A
	.db #0x1A
	.db #0x1A
	.db #0x1A
	.db #0x1A
	.db #0x1A
	.db #0x1A
	.db #0x1A
	.db #0x1A
	.db #0x1A
	.db #0x1A
	.db #0x1A
	.db #0x1A
	.db #0x1A
	.db #0x1A
	.db #0x1A
	.db #0x1A
	.db #0x1A
	.db #0x1A
	.db #0x1A
	.db #0x1A
	.db #0x1A
	.db #0x0C
	.db #0x0C
	.db #0x0C
	.db #0x0C
	.db #0x1A
	.db #0x1A
	.db #0x1A
	.db #0x1A
	.db #0x1A
	.db #0x1A
	.db #0x1A
	.db #0x1A
	.db #0x98
	.db #0x10
	.db #0x14
	.db #0x14
	.db #0x10
	.db #0x98
	.db #0x1A
	.db #0x1A
	.db #0x1A
	.db #0x1A
	.db #0x1A
	.db #0x1A
	.db #0x10
	.db #0x18
	.db #0x14
	.db #0x14
	.db #0x18
	.db #0x14
	.db #0x1C
	.db #0x10
	.db #0x1A
	.db #0x1A
	.db #0x1A
	.db #0x1A
	.db #0x1A
	.db #0x0C
	.db #0x08
	.db #0x8A
	.db #0xD6
	.db #0xB2
	.db #0x8A
	.db #0x08
	.db #0x0C
	.db #0x1A
	.db #0x1A
	.db #0x1A
	.db #0x1A
	.db #0x1A
	.db #0x00
	.db #0x08
	.db #0x14
	.db #0x18
	.db #0x1C
	.db #0x14
	.db #0x08
	.db #0x00
	.db #0x1A
	.db #0x1A
	.db #0x1A
	.db #0x1A
	.db #0x1A
	.db #0x1A
	.db #0x0C
	.db #0x14
	.db #0x18
	.db #0x1C
	.db #0x14
	.db #0x0C
	.db #0x1A
	.db #0x1A
	.db #0x1A
	.db #0x1A
	.db #0x1A
	.db #0x1A
	.db #0x14
	.db #0x0C
	.db #0x14
	.db #0xB2
	.db #0xB2
	.db #0x14
	.db #0x0C
	.db #0x14
	.db #0x1A
	.db #0x1A
	.db #0x1A
	.db #0x1A
	.db #0x1A
	.db #0x14
	.db #0x10
	.db #0x14
	.db #0x10
	.db #0x0C
	.db #0x14
	.db #0x10
	.db #0x14
	.db #0x1A
	.db #0x1A
	.db #0x1A
	.db #0x1A
	.db #0x1A
	.db #0x00
	.db #0x9C
	.db #0x10
	.db #0x20
	.db #0x20
	.db #0x10
	.db #0x9C
	.db #0x00
	.db #0x1A
	.db #0x1A
	.db #0x1A
	.db #0x1A
	.db #0x1A
	.db #0x1A
	.db #0x1A
	.db #0x18
	.db #0x1C
	.db #0x1C
	.db #0x18
	.db #0x1A
	.db #0x1A
	.db #0x1A
	.db #0x1A
	.db #0x1A
	.db #0x1A
	.db #0x1A
	.db #0x1A
	.db #0x1A
	.db #0x1A
	.db #0x1A
	.db #0x1A
	.db #0x1A
	.db #0x1A
	.db #0x1A
	.db #0x1A
	.db #0x1A
	.db #0x1A
	.db #0x1A
	.db #0x1A
	.db #0x1A
	.db #0x1A
	.db #0x1A
	.db #0x0C
	.db #0x0C
	.db #0x0C
	.db #0x24
	.db #0x1A
	.db #0x1A
	.db #0x1A
	.db #0x1A
	.db #0x1A
	.db #0x1A
	.db #0x1A
	.db #0x24
	.db #0x0C
	.db #0x0C
	.db #0x14
	.db #0x10
	.db #0x98
	.db #0x1A
	.db #0x1A
	.db #0x1A
	.db #0x1A
	.db #0x1A
	.db #0x1A
	.db #0x1A
	.db #0x98
	.db #0x10
	.db #0x14
	.db #0x18
	.db #0x14
	.db #0x1C
	.db #0x10
	.db #0x1A
	.db #0x1A
	.db #0x1A
	.db #0x1A
	.db #0x1A
	.db #0x10
	.db #0x18
	.db #0x14
	.db #0x14
	.db #0xB2
	.db #0x8A
	.db #0x08
	.db #0x0C
	.db #0x1A
	.db #0x1A
	.db #0x1A
	.db #0x1A
	.db #0x1A
	.db #0x1A
	.db #0x0C
	.db #0x08
	.db #0x8A
	.db #0x18
	.db #0x1C
	.db #0x14
	.db #0x08
	.db #0x1A
	.db #0x1A
	.db #0x1A
	.db #0x1A
	.db #0x1A
	.db #0x1A
	.db #0x00
	.db #0x08
	.db #0x14
	.db #0x18
	.db #0x1C
	.db #0x14
	.db #0x0C
	.db #0x14
	.db #0x1A
	.db #0x1A
	.db #0x1A
	.db #0x1A
	.db #0x1A
	.db #0x1A
	.db #0x0C
	.db #0x14
	.db #0xB2
	.db #0xB2
	.db #0x14
	.db #0x0C
	.db #0x14
	.db #0x1A
	.db #0x1A
	.db #0x1A
	.db #0x1A
	.db #0x1A
	.db #0x14
	.db #0x0C
	.db #0x14
	.db #0x10
	.db #0x0C
	.db #0x14
	.db #0x10
	.db #0x00
	.db #0x1A
	.db #0x1A
	.db #0x1A
	.db #0x1A
	.db #0x1A
	.db #0x1A
	.db #0x14
	.db #0x10
	.db #0x10
	.db #0x20
	.db #0x20
	.db #0x10
	.db #0x9C
	.db #0x1A
	.db #0x1A
	.db #0x1A
	.db #0x1A
	.db #0x1A
	.db #0x1A
	.db #0x00
	.db #0x9C
	.db #0x18
	.db #0x1C
	.db #0x1C
	.db #0x18
	.db #0x1A
	.db #0x1A
	.db #0x1A
	.db #0x1A
	.db #0x1A
	.db #0x1A
	.db #0x1A
	.db #0x1A
	.db #0x1A
	.db #0x1A
	.db #0x1A
	.db #0x1A
	.db #0x1A
	.db #0x1A
	.db #0x1A
	.db #0x1A
	.db #0x1A
	.db #0x1A
	.db #0x1A
	.db #0x1A
	.db #0x1A
	.db #0x1A
	.db #0x1A
	.db #0x1A
	.db #0x1A
	.db #0x1A
	.db #0x1A
	.db #0x1A
	.db #0x1A
	.db #0x1A
	.db #0x1A
	.db #0x1A
	.db #0x24
	.db #0xB8
	.db #0x10
	.db #0x0C
	.db #0x1A
	.db #0x1A
	.db #0x1A
	.db #0x1A
	.db #0x1A
	.db #0x1A
	.db #0x1A
	.db #0x1A
	.db #0x1A
	.db #0x0C
	.db #0x14
	.db #0x10
	.db #0x18
	.db #0x8A
	.db #0x0C
	.db #0x1A
	.db #0x1A
	.db #0x1A
	.db #0x1A
	.db #0x1A
	.db #0x1A
	.db #0x0C
	.db #0x14
	.db #0x14
	.db #0x10
	.db #0xB2
	.db #0x14
	.db #0x10
	.db #0x0C
	.db #0x1A
	.db #0x1A
	.db #0x1A
	.db #0x1A
	.db #0x24
	.db #0xBC
	.db #0x14
	.db #0x18
	.db #0x14
	.db #0x8A
	.db #0x14
	.db #0x14
	.db #0xB2
	.db #0x08
	.db #0x1A
	.db #0x1A
	.db #0x1A
	.db #0x1A
	.db #0x24
	.db #0x24
	.db #0x1C
	.db #0x14
	.db #0x10
	.db #0x10
	.db #0xB2
	.db #0x14
	.db #0x20
	.db #0x18
	.db #0x1A
	.db #0x1A
	.db #0x1A
	.db #0x00
	.db #0x00
	.db #0x0C
	.db #0x14
	.db #0x14
	.db #0x10
	.db #0x1C
	.db #0x20
	.db #0x0C
	.db #0x18
	.db #0x1A
	.db #0x1A
	.db #0x1A
	.db #0x1A
	.db #0x1A
	.db #0x1A
	.db #0x0C
	.db #0x10
	.db #0x14
	.db #0x10
	.db #0x0C
	.db #0x18
	.db #0x1A
	.db #0x1A
	.db #0x1A
	.db #0x1A
	.db #0x1A
	.db #0x1A
	.db #0x1A
	.db #0x1A
	.db #0x00
	.db #0x00
	.db #0x0C
	.db #0x18
	.db #0x9C
	.db #0x1A
	.db #0x1A
	.db #0x1A
	.db #0x1A
	.db #0x1A
	.db #0x1A
	.db #0x1A
	.db #0x1A
	.db #0x1A
	.db #0x00
	.db #0x00
	.db #0x1A
	.db #0x1A
	.db #0x1A
	.db #0x1A
	.db #0x1A
	.db #0x1A
	.db #0x1A
	.db #0x1A
	.db #0x1A
	.db #0x1A
	.db #0x1A
	.db #0x1A
	.db #0x1A
	.db #0x1A
	.db #0x1A
	.db #0x1A
	.db #0x1A
	.db #0x1A
	.db #0x1A
	.db #0x1A
	.db #0x1A
	.db #0x1A
	.db #0x1A
	.db #0x1A
	.db #0x1A
	.db #0x1A
	.db #0x1A
	.db #0x1A
	.db #0x1A
	.db #0x1A
	.db #0x1A
	.db #0x1A
	.db #0x1A
	.db #0x98
	.db #0x0C
	.db #0x1A
	.db #0x1A
	.db #0x1A
	.db #0x1A
	.db #0x1A
	.db #0x1A
	.db #0x1A
	.db #0x1A
	.db #0x1A
	.db #0x1A
	.db #0x00
	.db #0x14
	.db #0x10
	.db #0x10
	.db #0x65
	.db #0x10
	.db #0x0C
	.db #0x1A
	.db #0x1A
	.db #0x1A
	.db #0x1A
	.db #0x1A
	.db #0x10
	.db #0x1C
	.db #0x18
	.db #0x14
	.db #0xAE
	.db #0x1C
	.db #0x1C
	.db #0x65
	.db #0x0C
	.db #0x08
	.db #0x14
	.db #0x1A
	.db #0x1A
	.db #0x14
	.db #0x14
	.db #0x14
	.db #0x14
	.db #0xD2
	.db #0x1C
	.db #0x1C
	.db #0xAE
	.db #0x14
	.db #0x20
	.db #0x14
	.db #0x1A
	.db #0x1A
	.db #0x18
	.db #0xFC
	.db #0x18
	.db #0x10
	.db #0x14
	.db #0x1C
	.db #0x14
	.db #0x14
	.db #0x1C
	.db #0x20
	.db #0x1C
	.db #0x1A
	.db #0x1A
	.db #0x00
	.db #0x18
	.db #0x24
	.db #0x1C
	.db #0x14
	.db #0x14
	.db #0x14
	.db #0x14
	.db #0x14
	.db #0x14
	.db #0x0C
	.db #0x1A
	.db #0x1A
	.db #0x1A
	.db #0x00
	.db #0x00
	.db #0x0C
	.db #0x10
	.db #0x0C
	.db #0x24
	.db #0x1C
	.db #0x18
	.db #0x9C
	.db #0x1A
	.db #0x1A
	.db #0x1A
	.db #0x1A
	.db #0x1A
	.db #0x1A
	.db #0x1A
	.db #0x1A
	.db #0x1A
	.db #0x00
	.db #0x24
	.db #0x14
	.db #0x18
	.db #0x1A
	.db #0x1A
	.db #0x1A
	.db #0x1A
	.db #0x1A
	.db #0x1A
	.db #0x1A
	.db #0x1A
	.db #0x1A
	.db #0x1A
	.db #0x00
	.db #0x1A
	.db #0x1A
	.db #0x1A
	.db #0x1A
	.db #0x1A
	.db #0x1A
	.db #0x1A
	.db #0x1A
	.db #0x1A
	.db #0x1A
	.db #0x1A
	.db #0x1A
	.db #0x1A
	.db #0x1A
	.db #0x1A
	.db #0x1A
	.db #0x1A
	.db #0x1A
	.db #0x1A
	.db #0x1A
	.db #0x1A
	.db #0x1A
	.db #0x1A
	.db #0x1A
	.db #0x1A
	.db #0x1A
	.db #0x1A
	.db #0x1A
	.db #0x1A
	.db #0x1A
	.db #0x1A
	.db #0x1A
	.db #0x1A
	.db #0x1A
	.db #0x1A
	.db #0x1A
	.db #0x1A
	.db #0x1A
	.db #0x1A
	.db #0x1A
	.db #0x1A
	.db #0x1A
	.db #0x1A
	.db #0x1A
	.db #0x1A
	.db #0xB8
	.db #0x10
	.db #0x10
	.db #0x65
	.db #0x14
	.db #0x14
	.db #0x65
	.db #0x0C
	.db #0x08
	.db #0x14
	.db #0x1A
	.db #0x1A
	.db #0x00
	.db #0x14
	.db #0x14
	.db #0x14
	.db #0xAE
	.db #0x1C
	.db #0x1C
	.db #0xAE
	.db #0x14
	.db #0x20
	.db #0x14
	.db #0x1A
	.db #0x1A
	.db #0x10
	.db #0x1C
	.db #0x18
	.db #0x14
	.db #0xD2
	.db #0x1C
	.db #0x1C
	.db #0x14
	.db #0x1C
	.db #0x20
	.db #0x1C
	.db #0x1A
	.db #0x1A
	.db #0x14
	.db #0x14
	.db #0x14
	.db #0x10
	.db #0x14
	.db #0x1C
	.db #0x14
	.db #0x14
	.db #0x14
	.db #0x14
	.db #0x0C
	.db #0x1A
	.db #0x1A
	.db #0x18
	.db #0xFC
	.db #0x18
	.db #0x1C
	.db #0x14
	.db #0x14
	.db #0x14
	.db #0x14
	.db #0x1C
	.db #0x18
	.db #0x9C
	.db #0x1A
	.db #0x1A
	.db #0x00
	.db #0x18
	.db #0x24
	.db #0x24
	.db #0x0C
	.db #0x10
	.db #0x0C
	.db #0x24
	.db #0x24
	.db #0x14
	.db #0x18
	.db #0x1A
	.db #0x1A
	.db #0x1A
	.db #0x1A
	.db #0x00
	.db #0x00
	.db #0x1A
	.db #0x1A
	.db #0x1A
	.db #0x00
	.db #0x00
	.db #0x1A
	.db #0x1A
	.db #0x1A
	.db #0x1A
	.db #0x1A
	.db #0x1A
	.db #0x1A
	.db #0x1A
	.db #0x1A
	.db #0x1A
	.db #0x1A
	.db #0x1A
	.db #0x1A
	.db #0x1A
	.db #0x1A
	.db #0x1A
	.db #0x1A
	.db #0x1A
	.db #0x1A
	.db #0x1A
	.db #0x1A
	.db #0x1A
	.db #0x1A
	.db #0x1A
	.db #0x1A
	.db #0x1A
	.db #0x1A
	.db #0x1A
	.db #0x1A
	.db #0x1A
	.db #0x1A
	.db #0x1A
	.db #0x1A
	.db #0x1A
	.db #0x1A
	.db #0x1A
	.db #0x1A
	.db #0x1A
	.db #0x1A
	.db #0x1A
	.db #0x1A
	.db #0x1A
	.db #0x1A
	.db #0x1A
	.db #0x1A
	.db #0x1A
	.db #0x1A
	.db #0x1A
	.db #0x1A
	.db #0x08
	.db #0x08
	.db #0x14
	.db #0x5C
	.db #0x1A
	.db #0x1A
	.db #0x1A
	.db #0x1A
	.db #0x1A
	.db #0x1A
	.db #0x65
	.db #0x14
	.db #0x14
	.db #0x65
	.db #0x0C
	.db #0x20
	.db #0x14
	.db #0x1A
	.db #0x1A
	.db #0x1A
	.db #0xB8
	.db #0x10
	.db #0x10
	.db #0xAE
	.db #0x1C
	.db #0x1C
	.db #0xAE
	.db #0x14
	.db #0x20
	.db #0x1C
	.db #0x0C
	.db #0x1A
	.db #0x00
	.db #0x14
	.db #0x14
	.db #0x14
	.db #0xD2
	.db #0x1C
	.db #0x1C
	.db #0x14
	.db #0x1C
	.db #0x14
	.db #0x0C
	.db #0x0C
	.db #0x1A
	.db #0x1A
	.db #0x10
	.db #0x1C
	.db #0x18
	.db #0x10
	.db #0x14
	.db #0x1C
	.db #0x14
	.db #0x14
	.db #0x1C
	.db #0x18
	.db #0x9C
	.db #0x1A
	.db #0x1A
	.db #0x14
	.db #0x14
	.db #0x14
	.db #0x1C
	.db #0x14
	.db #0x14
	.db #0x14
	.db #0x00
	.db #0x24
	.db #0x14
	.db #0x18
	.db #0x1A
	.db #0x1A
	.db #0x18
	.db #0xFC
	.db #0x18
	.db #0x0C
	.db #0x0C
	.db #0x10
	.db #0x0C
	.db #0x00
	.db #0x00
	.db #0x1A
	.db #0x1A
	.db #0x1A
	.db #0x1A
	.db #0x00
	.db #0x18
	.db #0x24
	.db #0x00
	.db #0x0C
	.db #0x1A
	.db #0x1A
	.db #0x1A
	.db #0x1A
	.db #0x1A
	.db #0x1A
	.db #0x1A
	.db #0x1A
	.db #0x1A
	.db #0x1A
	.db #0x00
	.db #0x00
	.db #0x1A
	.db #0x1A
	.db #0x1A
	.db #0x1A
	.db #0x1A
	.db #0x1A
	.db #0x1A
	.db #0x1A
	.db #0x1A
	.db #0x1A
	.db #0x1A
	.db #0x1A
	.db #0x1A
	.db #0x1A
	.db #0x1A
	.db #0x1A
	.db #0x1A
	.db #0x1A
	.db #0x1A
	.db #0x1A
	.db #0x1A
	.db #0x1A
	.db #0x1A
	.db #0x1A
	.db #0x1A
	.db #0x1A
	.db #0x1A
	.db #0x1A
	.db #0x10
	.db #0x18
	.db #0x1A
	.db #0x1A
	.db #0x1A
	.db #0x1A
	.db #0x1A
	.db #0x1A
	.db #0x1A
	.db #0x1A
	.db #0x1A
	.db #0x1A
	.db #0x0C
	.db #0x14
	.db #0x0C
	.db #0x1C
	.db #0x1A
	.db #0x1A
	.db #0x1A
	.db #0x1A
	.db #0x1A
	.db #0x1A
	.db #0x1A
	.db #0x0C
	.db #0x0C
	.db #0x14
	.db #0x20
	.db #0x0C
	.db #0x0C
	.db #0x18
	.db #0x1A
	.db #0x1A
	.db #0x1A
	.db #0x1A
	.db #0x1A
	.db #0x0C
	.db #0x0C
	.db #0x14
	.db #0x18
	.db #0xB2
	.db #0x20
	.db #0x10
	.db #0x10
	.db #0x10
	.db #0x1A
	.db #0x1A
	.db #0x1A
	.db #0x14
	.db #0x14
	.db #0x8A
	.db #0x18
	.db #0x18
	.db #0x1C
	.db #0x14
	.db #0x0C
	.db #0x14
	.db #0x10
	.db #0x1A
	.db #0x1A
	.db #0x1A
	.db #0x18
	.db #0x14
	.db #0x18
	.db #0xD6
	.db #0x1C
	.db #0x14
	.db #0x0C
	.db #0x10
	.db #0x24
	.db #0x1A
	.db #0x1A
	.db #0x1A
	.db #0xFC
	.db #0x10
	.db #0x14
	.db #0x18
	.db #0x1C
	.db #0x8A
	.db #0x0C
	.db #0x0C
	.db #0x24
	.db #0x00
	.db #0x1A
	.db #0x1A
	.db #0x1A
	.db #0x00
	.db #0x10
	.db #0x14
	.db #0x18
	.db #0x14
	.db #0x1C
	.db #0x14
	.db #0x1A
	.db #0x1A
	.db #0x1A
	.db #0x1A
	.db #0x1A
	.db #0x1A
	.db #0x1A
	.db #0x10
	.db #0x10
	.db #0x10
	.db #0x14
	.db #0x1C
	.db #0x14
	.db #0x1A
	.db #0x1A
	.db #0x1A
	.db #0x1A
	.db #0x1A
	.db #0x1A
	.db #0x1A
	.db #0x1A
	.db #0x0C
	.db #0x00
	.db #0xFC
	.db #0x24
	.db #0x1A
	.db #0x1A
	.db #0x1A
	.db #0x1A
	.db #0x1A
	.db #0x1A
	.db #0x1A
	.db #0x1A
	.db #0x1A
	.db #0x1A
	.db #0x1A
	.db #0x00
	.db #0x00
	.db #0x1A
	.db #0x1A
	.db #0x1A
	.db #0x1A
	.db #0x1A
	.db #0x1A
	.db #0x1A
	.db #0x1A
	.db #0x1A
	.db #0x1A
	.db #0x10
	.db #0x18
	.db #0x1C
	.db #0x1C
	.db #0x18
	.db #0x1A
	.db #0x1A
	.db #0x1A
	.db #0x1A
	.db #0x1A
	.db #0x1A
	.db #0x1A
	.db #0x14
	.db #0x0C
	.db #0x14
	.db #0x0C
	.db #0x0C
	.db #0x14
	.db #0x1A
	.db #0x1A
	.db #0x1A
	.db #0x1A
	.db #0x1A
	.db #0x1A
	.db #0x1A
	.db #0x14
	.db #0x10
	.db #0x10
	.db #0x20
	.db #0x20
	.db #0x10
	.db #0x10
	.db #0x1A
	.db #0x1A
	.db #0x1A
	.db #0x1A
	.db #0x1A
	.db #0x1A
	.db #0x00
	.db #0x0C
	.db #0x14
	.db #0xB2
	.db #0xB2
	.db #0x14
	.db #0x0C
	.db #0x14
	.db #0x1A
	.db #0x1A
	.db #0x1A
	.db #0x1A
	.db #0x1A
	.db #0x0C
	.db #0x14
	.db #0x18
	.db #0x1C
	.db #0x14
	.db #0x0C
	.db #0x14
	.db #0x00
	.db #0x1A
	.db #0x1A
	.db #0x1A
	.db #0x1A
	.db #0x0C
	.db #0x14
	.db #0x8A
	.db #0x18
	.db #0x1C
	.db #0x14
	.db #0x0C
	.db #0x00
	.db #0x1A
	.db #0x1A
	.db #0x1A
	.db #0x1A
	.db #0x1A
	.db #0x14
	.db #0x18
	.db #0x14
	.db #0xD6
	.db #0xB2
	.db #0x8A
	.db #0x14
	.db #0x1A
	.db #0x1A
	.db #0x1A
	.db #0x1A
	.db #0x1A
	.db #0x1A
	.db #0x00
	.db #0x18
	.db #0x14
	.db #0x18
	.db #0x1C
	.db #0x14
	.db #0x1C
	.db #0x0C
	.db #0x1A
	.db #0x1A
	.db #0x1A
	.db #0x1A
	.db #0x1A
	.db #0xFC
	.db #0x10
	.db #0x14
	.db #0x18
	.db #0x14
	.db #0x1C
	.db #0x00
	.db #0x1A
	.db #0x1A
	.db #0x1A
	.db #0x1A
	.db #0x1A
	.db #0x1A
	.db #0x00
	.db #0x0C
	.db #0x10
	.db #0x14
	.db #0x10
	.db #0xFC
	.db #0x00
	.db #0x1A
	.db #0x1A
	.db #0x1A
	.db #0x1A
	.db #0x1A
	.db #0x1A
	.db #0x1A
	.db #0x1A
	.db #0x1A
	.db #0x10
	.db #0x0C
	.db #0x00
	.db #0x1A
	.db #0x1A
	.db #0x1A
	.db #0x1A
	.db #0x1A
	.db #0x1A
	.db #0x1A
	.db #0x1A
	.db #0x1A
	.db #0x18
	.db #0x1C
	.db #0x1C
	.db #0x18
	.db #0x1A
	.db #0x1A
	.db #0x1A
	.db #0x1A
	.db #0x1A
	.db #0x1A
	.db #0x1A
	.db #0x1A
	.db #0x10
	.db #0x14
	.db #0x0C
	.db #0x0C
	.db #0x14
	.db #0x10
	.db #0x1A
	.db #0x1A
	.db #0x1A
	.db #0x1A
	.db #0x1A
	.db #0x1A
	.db #0x14
	.db #0x0C
	.db #0x10
	.db #0x20
	.db #0x20
	.db #0x10
	.db #0x0C
	.db #0x14
	.db #0x1A
	.db #0x1A
	.db #0x1A
	.db #0x1A
	.db #0x1A
	.db #0x14
	.db #0x10
	.db #0x14
	.db #0xB2
	.db #0xB2
	.db #0x14
	.db #0x10
	.db #0x14
	.db #0x1A
	.db #0x1A
	.db #0x1A
	.db #0x1A
	.db #0x1A
	.db #0x00
	.db #0x0C
	.db #0x14
	.db #0x18
	.db #0x1C
	.db #0x14
	.db #0x0C
	.db #0x00
	.db #0x1A
	.db #0x1A
	.db #0x1A
	.db #0x1A
	.db #0x1A
	.db #0x1A
	.db #0x0C
	.db #0x14
	.db #0x18
	.db #0x1C
	.db #0x14
	.db #0x0C
	.db #0x1A
	.db #0x1A
	.db #0x1A
	.db #0x1A
	.db #0x1A
	.db #0x1A
	.db #0x0C
	.db #0x14
	.db #0x8A
	.db #0xD6
	.db #0xB2
	.db #0x8A
	.db #0x14
	.db #0x0C
	.db #0x1A
	.db #0x1A
	.db #0x1A
	.db #0x1A
	.db #0x1A
	.db #0x14
	.db #0x18
	.db #0x14
	.db #0x18
	.db #0x1C
	.db #0x14
	.db #0x1C
	.db #0x14
	.db #0x1A
	.db #0x1A
	.db #0x1A
	.db #0x1A
	.db #0x1A
	.db #0x00
	.db #0x18
	.db #0x14
	.db #0x14
	.db #0x18
	.db #0x14
	.db #0x1C
	.db #0x00
	.db #0x1A
	.db #0x1A
	.db #0x1A
	.db #0x1A
	.db #0x1A
	.db #0x1A
	.db #0xFC
	.db #0x10
	.db #0x14
	.db #0x14
	.db #0x10
	.db #0xFC
	.db #0x1A
	.db #0x1A
	.db #0x1A
	.db #0x1A
	.db #0x1A
	.db #0x1A
	.db #0x1A
	.db #0x00
	.db #0x0C
	.db #0x10
	.db #0x10
	.db #0x0C
	.db #0x00
	.db #0x1A
	.db #0x1A
	.db #0x1A
	.db #0x1A
	.db #0x1A
	.db #0x1A
	.db #0x1A
	.db #0x1A
	.db #0x18
	.db #0x1C
	.db #0x1C
	.db #0x18
	.db #0x10
	.db #0x1A
	.db #0x1A
	.db #0x1A
	.db #0x1A
	.db #0x1A
	.db #0x1A
	.db #0x1A
	.db #0x1A
	.db #0x14
	.db #0x0C
	.db #0x0C
	.db #0x14
	.db #0x0C
	.db #0x14
	.db #0x1A
	.db #0x1A
	.db #0x1A
	.db #0x1A
	.db #0x1A
	.db #0x1A
	.db #0x10
	.db #0x10
	.db #0x20
	.db #0x20
	.db #0x10
	.db #0x10
	.db #0x14
	.db #0x1A
	.db #0x1A
	.db #0x1A
	.db #0x1A
	.db #0x1A
	.db #0x14
	.db #0x0C
	.db #0x14
	.db #0xB2
	.db #0xB2
	.db #0x14
	.db #0x0C
	.db #0x00
	.db #0x1A
	.db #0x1A
	.db #0x1A
	.db #0x1A
	.db #0x1A
	.db #0x00
	.db #0x14
	.db #0x0C
	.db #0x14
	.db #0x1C
	.db #0x18
	.db #0x14
	.db #0x0C
	.db #0x1A
	.db #0x1A
	.db #0x1A
	.db #0x1A
	.db #0x1A
	.db #0x1A
	.db #0x00
	.db #0x0C
	.db #0x14
	.db #0x1C
	.db #0x18
	.db #0x8A
	.db #0x14
	.db #0x0C
	.db #0x1A
	.db #0x1A
	.db #0x1A
	.db #0x1A
	.db #0x1A
	.db #0x1A
	.db #0x14
	.db #0x8A
	.db #0xB2
	.db #0xD6
	.db #0x14
	.db #0x18
	.db #0x14
	.db #0x1A
	.db #0x1A
	.db #0x1A
	.db #0x1A
	.db #0x1A
	.db #0x0C
	.db #0x1C
	.db #0x14
	.db #0x1C
	.db #0x18
	.db #0x14
	.db #0x18
	.db #0x00
	.db #0x1A
	.db #0x1A
	.db #0x1A
	.db #0x1A
	.db #0x1A
	.db #0x1A
	.db #0x24
	.db #0x1C
	.db #0x14
	.db #0x18
	.db #0x14
	.db #0x10
	.db #0xFC
	.db #0x1A
	.db #0x1A
	.db #0x1A
	.db #0x1A
	.db #0x1A
	.db #0x1A
	.db #0x00
	.db #0xFC
	.db #0x10
	.db #0x14
	.db #0x10
	.db #0x0C
	.db #0x00
	.db #0x1A
	.db #0x1A
	.db #0x1A
	.db #0x1A
	.db #0x1A
	.db #0x1A
	.db #0x1A
	.db #0x00
	.db #0x0C
	.db #0x10
	.db #0x1A
	.db #0x1A
	.db #0x1A
	.db #0x1A
	.db #0x1A
	.db #0x1A
	.db #0x1A
	.db #0x1A
	.db #0x1A
	.db #0x18
	.db #0x10
	.db #0x1A
	.db #0x1A
	.db #0x1A
	.db #0x1A
	.db #0x1A
	.db #0x1A
	.db #0x1A
	.db #0x1A
	.db #0x1A
	.db #0x1A
	.db #0x1C
	.db #0x0C
	.db #0x14
	.db #0x0C
	.db #0x1A
	.db #0x1A
	.db #0x1A
	.db #0x1A
	.db #0x1A
	.db #0x1A
	.db #0x1A
	.db #0x1A
	.db #0x18
	.db #0x0C
	.db #0x0C
	.db #0x20
	.db #0x14
	.db #0x0C
	.db #0x0C
	.db #0x1A
	.db #0x1A
	.db #0x1A
	.db #0x1A
	.db #0x1A
	.db #0x10
	.db #0x10
	.db #0x10
	.db #0x20
	.db #0xB2
	.db #0x18
	.db #0x14
	.db #0x0C
	.db #0x0C
	.db #0x1A
	.db #0x1A
	.db #0x1A
	.db #0x1A
	.db #0x10
	.db #0x14
	.db #0x0C
	.db #0x14
	.db #0x1C
	.db #0x18
	.db #0x18
	.db #0x8A
	.db #0x14
	.db #0x14
	.db #0x1A
	.db #0x1A
	.db #0x1A
	.db #0x1A
	.db #0x24
	.db #0x10
	.db #0x0C
	.db #0x14
	.db #0x1C
	.db #0xD6
	.db #0x18
	.db #0x14
	.db #0x18
	.db #0x1A
	.db #0x1A
	.db #0x1A
	.db #0x1A
	.db #0x00
	.db #0x00
	.db #0x0C
	.db #0x0C
	.db #0x8A
	.db #0x1C
	.db #0x18
	.db #0x14
	.db #0x10
	.db #0xFC
	.db #0x1A
	.db #0x1A
	.db #0x1A
	.db #0x1A
	.db #0x1A
	.db #0x1A
	.db #0x14
	.db #0x1C
	.db #0x14
	.db #0x18
	.db #0x14
	.db #0x10
	.db #0x00
	.db #0x1A
	.db #0x1A
	.db #0x1A
	.db #0x1A
	.db #0x1A
	.db #0x1A
	.db #0x14
	.db #0x1C
	.db #0x14
	.db #0x10
	.db #0x10
	.db #0x10
	.db #0x1A
	.db #0x1A
	.db #0x1A
	.db #0x1A
	.db #0x1A
	.db #0x1A
	.db #0x1A
	.db #0x1A
	.db #0x24
	.db #0xFC
	.db #0x00
	.db #0x0C
	.db #0x1A
	.db #0x1A
	.db #0x1A
	.db #0x1A
	.db #0x1A
	.db #0x1A
	.db #0x1A
	.db #0x1A
	.db #0x1A
	.db #0x00
	.db #0x00
	.db #0x1A
	.db #0x1A
	.db #0x1A
	.db #0x1A
	.db #0x1A
	.db #0x1A
	.db #0x1A
	.db #0x1A
	.db #0x1A
	.db #0x1A
	.db #0x1A
	.db #0x1A
	.db #0x1A
	.db #0x1A
	.db #0x1A
	.db #0x1A
	.db #0x1A
	.db #0x1A
	.db #0x1A
	.db #0x1A
	.db #0x14
	.db #0x08
	.db #0x0C
	.db #0x1A
	.db #0x1A
	.db #0x1A
	.db #0x1A
	.db #0x1A
	.db #0x1A
	.db #0x1A
	.db #0x1A
	.db #0x1A
	.db #0x08
	.db #0x14
	.db #0x20
	.db #0x14
	.db #0x65
	.db #0x14
	.db #0x14
	.db #0x1A
	.db #0x1A
	.db #0x1A
	.db #0x1A
	.db #0x1A
	.db #0x1A
	.db #0x0C
	.db #0x1C
	.db #0x20
	.db #0x1C
	.db #0xAE
	.db #0x1C
	.db #0x1C
	.db #0x65
	.db #0x10
	.db #0x10
	.db #0xB8
	.db #0x1A
	.db #0x1A
	.db #0x0C
	.db #0x14
	.db #0x14
	.db #0x14
	.db #0x1C
	.db #0x1C
	.db #0xD2
	.db #0x14
	.db #0x14
	.db #0x14
	.db #0x00
	.db #0x1A
	.db #0x1A
	.db #0x9C
	.db #0x18
	.db #0x1C
	.db #0x14
	.db #0x14
	.db #0x1C
	.db #0x14
	.db #0x14
	.db #0x18
	.db #0x1C
	.db #0x10
	.db #0x1A
	.db #0x1A
	.db #0x18
	.db #0x14
	.db #0x24
	.db #0x24
	.db #0x14
	.db #0x14
	.db #0x14
	.db #0x10
	.db #0x14
	.db #0x14
	.db #0x14
	.db #0x1A
	.db #0x1A
	.db #0x1A
	.db #0x1A
	.db #0x00
	.db #0x00
	.db #0x0C
	.db #0x10
	.db #0x0C
	.db #0x1C
	.db #0x18
	.db #0xFC
	.db #0x18
	.db #0x1A
	.db #0x1A
	.db #0x1A
	.db #0x1A
	.db #0x1A
	.db #0x1A
	.db #0x1A
	.db #0x1A
	.db #0x00
	.db #0x24
	.db #0x18
	.db #0x00
	.db #0x1A
	.db #0x1A
	.db #0x1A
	.db #0x1A
	.db #0x1A
	.db #0x1A
	.db #0x1A
	.db #0x1A
	.db #0x1A
	.db #0x00
	.db #0x00
	.db #0x1A
	.db #0x1A
	.db #0x1A
	.db #0x1A
	.db #0x1A
	.db #0x1A
	.db #0x1A
	.db #0x1A
	.db #0x1A
	.db #0x1A
	.db #0x1A
	.db #0x1A
	.db #0x1A
	.db #0x1A
	.db #0x1A
	.db #0x1A
	.db #0x1A
_car4:
	.db #0x1A
	.db #0x1A
	.db #0x1A
	.db #0x1A
	.db #0x1A
	.db #0x1A
	.db #0x1A
	.db #0x1A
	.db #0x1A
	.db #0x1A
	.db #0x1A
	.db #0x1A
	.db #0x1A
	.db #0x1A
	.db #0x00
	.db #0x00
	.db #0x00
	.db #0x64
	.db #0x64
	.db #0x89
	.db #0x89
	.db #0x64
	.db #0x00
	.db #0x00
	.db #0x1A
	.db #0x1A
	.db #0x1A
	.db #0x00
	.db #0x00
	.db #0x8D
	.db #0xD6
	.db #0xB1
	.db #0x21
	.db #0x21
	.db #0x8D
	.db #0x64
	.db #0x00
	.db #0x1A
	.db #0x1A
	.db #0x1A
	.db #0x20
	.db #0x1C
	.db #0x8D
	.db #0xD6
	.db #0xB1
	.db #0x42
	.db #0x42
	.db #0x62
	.db #0xB1
	.db #0x44
	.db #0x1A
	.db #0x1A
	.db #0x1A
	.db #0x40
	.db #0x64
	.db #0x44
	.db #0x64
	.db #0x44
	.db #0x21
	.db #0x21
	.db #0x42
	.db #0x8D
	.db #0xDC
	.db #0x1A
	.db #0x1A
	.db #0x1A
	.db #0x40
	.db #0x44
	.db #0x44
	.db #0x64
	.db #0x21
	.db #0x21
	.db #0x21
	.db #0x89
	.db #0x89
	.db #0xBC
	.db #0x1A
	.db #0x1A
	.db #0x1A
	.db #0x20
	.db #0x14
	.db #0x89
	.db #0x8D
	.db #0x8D
	.db #0x8D
	.db #0x89
	.db #0x89
	.db #0x64
	.db #0x44
	.db #0x1A
	.db #0x1A
	.db #0x1A
	.db #0x00
	.db #0x00
	.db #0x64
	.db #0x89
	.db #0xB1
	.db #0x8D
	.db #0x89
	.db #0x64
	.db #0x44
	.db #0x00
	.db #0x1A
	.db #0x1A
	.db #0x1A
	.db #0x24
	.db #0x00
	.db #0x00
	.db #0x44
	.db #0x64
	.db #0x64
	.db #0x44
	.db #0x00
	.db #0x00
	.db #0x24
	.db #0x1A
	.db #0x1A
	.db #0x1A
	.db #0x00
	.db #0x00
	.db #0x00
	.db #0x1A
	.db #0x1A
	.db #0x1A
	.db #0x1A
	.db #0x00
	.db #0x00
	.db #0x00
	.db #0x1A
	.db #0x1A
	.db #0x1A
	.db #0x1A
	.db #0x1A
	.db #0x1A
	.db #0x1A
	.db #0x1A
	.db #0x1A
	.db #0x1A
	.db #0x1A
	.db #0x1A
	.db #0x1A
	.db #0x1A
	.db #0x1A
	.db #0x1A
	.db #0x1A
	.db #0x1A
	.db #0x1A
	.db #0x1A
	.db #0x1A
	.db #0x1A
	.db #0x00
	.db #0x00
	.db #0x00
	.db #0x1A
	.db #0x1A
	.db #0x1A
	.db #0x1A
	.db #0x1A
	.db #0x1A
	.db #0x1A
	.db #0x1A
	.db #0x40
	.db #0x44
	.db #0x89
	.db #0x64
	.db #0x44
	.db #0x1A
	.db #0x1A
	.db #0x1A
	.db #0x1A
	.db #0x1A
	.db #0x1A
	.db #0x40
	.db #0x64
	.db #0x64
	.db #0x89
	.db #0x21
	.db #0x8D
	.db #0x9C
	.db #0x44
	.db #0x1A
	.db #0x1A
	.db #0x1A
	.db #0x00
	.db #0x00
	.db #0x64
	.db #0xB1
	.db #0x21
	.db #0x21
	.db #0x42
	.db #0x62
	.db #0xB1
	.db #0xDC
	.db #0x44
	.db #0x1A
	.db #0x1A
	.db #0x00
	.db #0x00
	.db #0x8D
	.db #0xD6
	.db #0xB1
	.db #0x42
	.db #0x21
	.db #0x42
	.db #0x8D
	.db #0x8D
	.db #0x64
	.db #0x1A
	.db #0x1A
	.db #0x1A
	.db #0x1C
	.db #0x8D
	.db #0xB1
	.db #0x64
	.db #0x44
	.db #0x21
	.db #0x21
	.db #0x89
	.db #0x89
	.db #0x44
	.db #0x1A
	.db #0x1A
	.db #0x1A
	.db #0x40
	.db #0x64
	.db #0x44
	.db #0x64
	.db #0x21
	.db #0x8D
	.db #0x89
	.db #0x89
	.db #0x64
	.db #0x00
	.db #0x1A
	.db #0x1A
	.db #0x1A
	.db #0x40
	.db #0x44
	.db #0x89
	.db #0x8D
	.db #0x8D
	.db #0x8D
	.db #0x89
	.db #0x00
	.db #0x00
	.db #0x24
	.db #0x1A
	.db #0x1A
	.db #0x1A
	.db #0x20
	.db #0x14
	.db #0x64
	.db #0x89
	.db #0xB1
	.db #0x64
	.db #0x44
	.db #0x00
	.db #0x00
	.db #0x00
	.db #0x1A
	.db #0x1A
	.db #0x1A
	.db #0x1A
	.db #0x00
	.db #0x00
	.db #0x00
	.db #0x44
	.db #0x1A
	.db #0x1A
	.db #0x1A
	.db #0x1A
	.db #0x1A
	.db #0x1A
	.db #0x1A
	.db #0x1A
	.db #0x1A
	.db #0x24
	.db #0x00
	.db #0x00
	.db #0x1A
	.db #0x1A
	.db #0x1A
	.db #0x1A
	.db #0x1A
	.db #0x1A
	.db #0x1A
	.db #0x1A
	.db #0x1A
	.db #0x1A
	.db #0x1A
	.db #0x1A
	.db #0x1A
	.db #0x00
	.db #0x00
	.db #0x00
	.db #0x1A
	.db #0x1A
	.db #0x1A
	.db #0x1A
	.db #0x1A
	.db #0x1A
	.db #0x1A
	.db #0x1A
	.db #0x1A
	.db #0x00
	.db #0x44
	.db #0x64
	.db #0x44
	.db #0xDC
	.db #0x1A
	.db #0x1A
	.db #0x1A
	.db #0x1A
	.db #0x1A
	.db #0x1A
	.db #0x1A
	.db #0x64
	.db #0x89
	.db #0xB1
	.db #0x8D
	.db #0x8D
	.db #0x89
	.db #0xBC
	.db #0x1A
	.db #0x1A
	.db #0x1A
	.db #0x1A
	.db #0x24
	.db #0x44
	.db #0x64
	.db #0x89
	.db #0x21
	.db #0x62
	.db #0x89
	.db #0x89
	.db #0x44
	.db #0x44
	.db #0x1A
	.db #0x1A
	.db #0x24
	.db #0x00
	.db #0x64
	.db #0x89
	.db #0x8D
	.db #0xD6
	.db #0x42
	.db #0x62
	.db #0x89
	.db #0x64
	.db #0x24
	.db #0x24
	.db #0x1A
	.db #0x00
	.db #0x00
	.db #0x64
	.db #0x8D
	.db #0xD6
	.db #0xD6
	.db #0x21
	.db #0x21
	.db #0x89
	.db #0x00
	.db #0x00
	.db #0x00
	.db #0x1A
	.db #0x1A
	.db #0x00
	.db #0x1C
	.db #0x44
	.db #0x8D
	.db #0x44
	.db #0x44
	.db #0x21
	.db #0x89
	.db #0x00
	.db #0x00
	.db #0x00
	.db #0x1A
	.db #0x1A
	.db #0x1A
	.db #0x40
	.db #0x64
	.db #0x44
	.db #0x44
	.db #0x64
	.db #0x89
	.db #0x64
	.db #0x1A
	.db #0x00
	.db #0x1A
	.db #0x1A
	.db #0x1A
	.db #0x1A
	.db #0x1A
	.db #0x40
	.db #0x44
	.db #0x14
	.db #0x00
	.db #0x00
	.db #0x1A
	.db #0x1A
	.db #0x1A
	.db #0x1A
	.db #0x1A
	.db #0x1A
	.db #0x1A
	.db #0x1A
	.db #0x1A
	.db #0x20
	.db #0x24
	.db #0x00
	.db #0x00
	.db #0x1A
	.db #0x1A
	.db #0x1A
	.db #0x1A
	.db #0x1A
	.db #0x1A
	.db #0x1A
	.db #0x1A
	.db #0x1A
	.db #0x1A
	.db #0x00
	.db #0x00
	.db #0x00
	.db #0x1A
	.db #0x1A
	.db #0x1A
	.db #0x1A
	.db #0x1A
	.db #0x1A
	.db #0x1A
	.db #0x24
	.db #0x00
	.db #0x00
	.db #0x44
	.db #0x1A
	.db #0x1A
	.db #0x1A
	.db #0x1A
	.db #0x1A
	.db #0x1A
	.db #0x1A
	.db #0x1A
	.db #0x1A
	.db #0x00
	.db #0x44
	.db #0x64
	.db #0x89
	.db #0xDC
	.db #0xBC
	.db #0x44
	.db #0x24
	.db #0x1A
	.db #0x1A
	.db #0x1A
	.db #0x1A
	.db #0x1A
	.db #0x44
	.db #0x89
	.db #0xB1
	.db #0x8D
	.db #0x89
	.db #0x64
	.db #0x44
	.db #0x00
	.db #0x00
	.db #0x1A
	.db #0x1A
	.db #0x1A
	.db #0x1A
	.db #0x89
	.db #0x8D
	.db #0x21
	.db #0x62
	.db #0x42
	.db #0x89
	.db #0x89
	.db #0x00
	.db #0x00
	.db #0x00
	.db #0x1A
	.db #0x1A
	.db #0x44
	.db #0x64
	.db #0x64
	.db #0x89
	.db #0xB1
	.db #0x21
	.db #0x21
	.db #0x89
	.db #0x64
	.db #0x00
	.db #0x1A
	.db #0x1A
	.db #0x1A
	.db #0x40
	.db #0x44
	.db #0x89
	.db #0x89
	.db #0xB1
	.db #0x8D
	.db #0x21
	.db #0xB1
	.db #0x64
	.db #0x1A
	.db #0x1A
	.db #0x1A
	.db #0x1A
	.db #0x24
	.db #0x44
	.db #0x64
	.db #0x64
	.db #0xD6
	.db #0xB2
	.db #0x64
	.db #0x89
	.db #0x44
	.db #0x1A
	.db #0x1A
	.db #0x1A
	.db #0x1A
	.db #0x00
	.db #0x20
	.db #0x1C
	.db #0x64
	.db #0x89
	.db #0x44
	.db #0x44
	.db #0x00
	.db #0x00
	.db #0x1A
	.db #0x1A
	.db #0x1A
	.db #0x1A
	.db #0x00
	.db #0x00
	.db #0x20
	.db #0x40
	.db #0x44
	.db #0x14
	.db #0x24
	.db #0x00
	.db #0x00
	.db #0x1A
	.db #0x1A
	.db #0x1A
	.db #0x1A
	.db #0x1A
	.db #0x1A
	.db #0x1A
	.db #0x1A
	.db #0x40
	.db #0x20
	.db #0x00
	.db #0x00
	.db #0x00
	.db #0x1A
	.db #0x1A
	.db #0x1A
	.db #0x1A
	.db #0x1A
	.db #0x1A
	.db #0x1A
	.db #0x1A
	.db #0x1A
	.db #0x1A
	.db #0x24
	.db #0x24
	.db #0x1A
	.db #0x1A
	.db #0x1A
	.db #0x1A
	.db #0x1A
	.db #0x1A
	.db #0x1A
	.db #0x1A
	.db #0x1A
	.db #0x1A
	.db #0x1A
	.db #0x1A
	.db #0x1A
	.db #0x1A
	.db #0x1A
	.db #0x1A
	.db #0x1A
	.db #0x24
	.db #0x00
	.db #0x00
	.db #0x44
	.db #0xDC
	.db #0xBC
	.db #0x44
	.db #0x24
	.db #0x24
	.db #0x00
	.db #0x1A
	.db #0x1A
	.db #0x1A
	.db #0x00
	.db #0x00
	.db #0x64
	.db #0xB1
	.db #0x8D
	.db #0x89
	.db #0x64
	.db #0x44
	.db #0x00
	.db #0x00
	.db #0x1A
	.db #0x1A
	.db #0x1A
	.db #0x00
	.db #0x64
	.db #0xB1
	.db #0x8D
	.db #0x62
	.db #0x42
	.db #0x89
	.db #0x89
	.db #0x44
	.db #0x00
	.db #0x1A
	.db #0x1A
	.db #0x1A
	.db #0x1A
	.db #0x89
	.db #0x8D
	.db #0x21
	.db #0x42
	.db #0x21
	.db #0x21
	.db #0x89
	.db #0x64
	.db #0x1A
	.db #0x1A
	.db #0x1A
	.db #0x1A
	.db #0x1A
	.db #0x64
	.db #0x89
	.db #0x21
	.db #0xB1
	.db #0x8D
	.db #0x21
	.db #0xB1
	.db #0x64
	.db #0x1A
	.db #0x1A
	.db #0x1A
	.db #0x1A
	.db #0x1A
	.db #0x64
	.db #0x89
	.db #0x64
	.db #0xD6
	.db #0xB2
	.db #0x64
	.db #0x89
	.db #0x64
	.db #0x1A
	.db #0x1A
	.db #0x1A
	.db #0x1A
	.db #0x24
	.db #0x00
	.db #0x64
	.db #0x44
	.db #0x8D
	.db #0x89
	.db #0x44
	.db #0x64
	.db #0x00
	.db #0x00
	.db #0x1A
	.db #0x1A
	.db #0x1A
	.db #0x24
	.db #0x00
	.db #0x00
	.db #0x1C
	.db #0x64
	.db #0x44
	.db #0x14
	.db #0x24
	.db #0x00
	.db #0x00
	.db #0x1A
	.db #0x1A
	.db #0x1A
	.db #0x00
	.db #0x00
	.db #0x00
	.db #0x20
	.db #0x40
	.db #0x40
	.db #0x20
	.db #0x00
	.db #0x00
	.db #0x00
	.db #0x1A
	.db #0x1A
	.db #0x1A
	.db #0x1A
	.db #0x1A
	.db #0x1A
	.db #0x1A
	.db #0x1A
	.db #0x1A
	.db #0x1A
	.db #0x1A
	.db #0x1A
	.db #0x1A
	.db #0x1A
	.db #0x1A
	.db #0x1A
	.db #0x1A
	.db #0x1A
	.db #0x1A
	.db #0x1A
	.db #0x1A
	.db #0x44
	.db #0x00
	.db #0x00
	.db #0x24
	.db #0x1A
	.db #0x1A
	.db #0x1A
	.db #0x1A
	.db #0x1A
	.db #0x24
	.db #0x44
	.db #0xBC
	.db #0xDC
	.db #0x89
	.db #0x64
	.db #0x44
	.db #0x00
	.db #0x1A
	.db #0x1A
	.db #0x1A
	.db #0x1A
	.db #0x00
	.db #0x00
	.db #0x44
	.db #0x64
	.db #0x89
	.db #0x8D
	.db #0xB1
	.db #0x89
	.db #0x44
	.db #0x1A
	.db #0x1A
	.db #0x1A
	.db #0x00
	.db #0x00
	.db #0x00
	.db #0x89
	.db #0x89
	.db #0x42
	.db #0x62
	.db #0x21
	.db #0x8D
	.db #0x89
	.db #0x1A
	.db #0x1A
	.db #0x1A
	.db #0x1A
	.db #0x00
	.db #0x64
	.db #0x89
	.db #0x21
	.db #0x21
	.db #0xB1
	.db #0x89
	.db #0x64
	.db #0x64
	.db #0x44
	.db #0x1A
	.db #0x1A
	.db #0x1A
	.db #0x1A
	.db #0x64
	.db #0xB1
	.db #0x21
	.db #0x8D
	.db #0xB1
	.db #0x89
	.db #0x89
	.db #0x44
	.db #0x40
	.db #0x1A
	.db #0x1A
	.db #0x1A
	.db #0x1A
	.db #0x44
	.db #0x89
	.db #0x64
	.db #0xB2
	.db #0xD6
	.db #0x64
	.db #0x64
	.db #0x44
	.db #0x24
	.db #0x1A
	.db #0x1A
	.db #0x1A
	.db #0x1A
	.db #0x00
	.db #0x00
	.db #0x44
	.db #0x44
	.db #0x89
	.db #0x64
	.db #0x1C
	.db #0x20
	.db #0x00
	.db #0x1A
	.db #0x1A
	.db #0x1A
	.db #0x1A
	.db #0x00
	.db #0x00
	.db #0x24
	.db #0x14
	.db #0x44
	.db #0x40
	.db #0x20
	.db #0x00
	.db #0x00
	.db #0x1A
	.db #0x1A
	.db #0x1A
	.db #0x1A
	.db #0x00
	.db #0x00
	.db #0x00
	.db #0x20
	.db #0x40
	.db #0x1A
	.db #0x1A
	.db #0x1A
	.db #0x1A
	.db #0x1A
	.db #0x1A
	.db #0x1A
	.db #0x1A
	.db #0x1A
	.db #0x24
	.db #0x24
	.db #0x1A
	.db #0x1A
	.db #0x1A
	.db #0x1A
	.db #0x1A
	.db #0x1A
	.db #0x1A
	.db #0x1A
	.db #0x1A
	.db #0x1A
	.db #0x1A
	.db #0x1A
	.db #0x00
	.db #0x00
	.db #0x00
	.db #0x1A
	.db #0x1A
	.db #0x1A
	.db #0x1A
	.db #0x1A
	.db #0x1A
	.db #0x1A
	.db #0x1A
	.db #0x1A
	.db #0xDC
	.db #0x44
	.db #0x64
	.db #0x44
	.db #0x00
	.db #0x1A
	.db #0x1A
	.db #0x1A
	.db #0x1A
	.db #0x1A
	.db #0x1A
	.db #0x1A
	.db #0xBC
	.db #0x89
	.db #0x8D
	.db #0x8D
	.db #0xB1
	.db #0x89
	.db #0x64
	.db #0x1A
	.db #0x1A
	.db #0x1A
	.db #0x1A
	.db #0x1A
	.db #0x44
	.db #0x44
	.db #0x89
	.db #0x89
	.db #0x62
	.db #0x21
	.db #0x89
	.db #0x64
	.db #0x44
	.db #0x24
	.db #0x1A
	.db #0x1A
	.db #0x24
	.db #0x24
	.db #0x64
	.db #0x89
	.db #0x62
	.db #0x42
	.db #0xD6
	.db #0x8D
	.db #0x89
	.db #0x64
	.db #0x00
	.db #0x24
	.db #0x1A
	.db #0x00
	.db #0x00
	.db #0x00
	.db #0x89
	.db #0x21
	.db #0x21
	.db #0xD6
	.db #0xD6
	.db #0x8D
	.db #0x64
	.db #0x00
	.db #0x00
	.db #0x1A
	.db #0x00
	.db #0x00
	.db #0x00
	.db #0x89
	.db #0x21
	.db #0x44
	.db #0x44
	.db #0x8D
	.db #0x44
	.db #0x1C
	.db #0x00
	.db #0x1A
	.db #0x1A
	.db #0x1A
	.db #0x00
	.db #0x1A
	.db #0x64
	.db #0x89
	.db #0x64
	.db #0x44
	.db #0x44
	.db #0x64
	.db #0x40
	.db #0x1A
	.db #0x1A
	.db #0x1A
	.db #0x1A
	.db #0x1A
	.db #0x1A
	.db #0x1A
	.db #0x00
	.db #0x00
	.db #0x14
	.db #0x44
	.db #0x40
	.db #0x1A
	.db #0x1A
	.db #0x1A
	.db #0x1A
	.db #0x1A
	.db #0x1A
	.db #0x1A
	.db #0x1A
	.db #0x00
	.db #0x00
	.db #0x24
	.db #0x20
	.db #0x1A
	.db #0x1A
	.db #0x1A
	.db #0x1A
	.db #0x1A
	.db #0x1A
	.db #0x1A
	.db #0x1A
	.db #0x1A
	.db #0x00
	.db #0x00
	.db #0x00
	.db #0x1A
	.db #0x1A
	.db #0x1A
	.db #0x1A
	.db #0x1A
	.db #0x1A
	.db #0x1A
	.db #0x1A
	.db #0x1A
	.db #0x1A
	.db #0x00
	.db #0x00
	.db #0x1A
	.db #0x1A
	.db #0x1A
	.db #0x1A
	.db #0x1A
	.db #0x1A
	.db #0x1A
	.db #0x1A
	.db #0x1A
	.db #0x1A
	.db #0x44
	.db #0x64
	.db #0x89
	.db #0x44
	.db #0x40
	.db #0x1A
	.db #0x1A
	.db #0x1A
	.db #0x1A
	.db #0x1A
	.db #0x1A
	.db #0x1A
	.db #0x44
	.db #0x9C
	.db #0x8D
	.db #0x21
	.db #0x89
	.db #0x64
	.db #0x64
	.db #0x40
	.db #0x1A
	.db #0x1A
	.db #0x1A
	.db #0x1A
	.db #0x44
	.db #0xDC
	.db #0xB1
	.db #0x62
	.db #0x42
	.db #0x21
	.db #0x21
	.db #0xB1
	.db #0x64
	.db #0x00
	.db #0x00
	.db #0x1A
	.db #0x1A
	.db #0x64
	.db #0x8D
	.db #0x8D
	.db #0x42
	.db #0x21
	.db #0x42
	.db #0xB1
	.db #0xD6
	.db #0x8D
	.db #0x00
	.db #0x00
	.db #0x1A
	.db #0x1A
	.db #0x44
	.db #0x89
	.db #0x89
	.db #0x89
	.db #0x21
	.db #0x44
	.db #0x64
	.db #0xB1
	.db #0x8D
	.db #0x1C
	.db #0x1A
	.db #0x1A
	.db #0x1A
	.db #0x00
	.db #0x64
	.db #0x89
	.db #0x89
	.db #0x8D
	.db #0x21
	.db #0x64
	.db #0x44
	.db #0x64
	.db #0x40
	.db #0x1A
	.db #0x1A
	.db #0x1A
	.db #0x24
	.db #0x00
	.db #0x00
	.db #0x89
	.db #0x8D
	.db #0x8D
	.db #0x8D
	.db #0x89
	.db #0x44
	.db #0x40
	.db #0x1A
	.db #0x1A
	.db #0x1A
	.db #0x00
	.db #0x00
	.db #0x00
	.db #0x44
	.db #0x64
	.db #0xB1
	.db #0x89
	.db #0x64
	.db #0x14
	.db #0x20
	.db #0x1A
	.db #0x1A
	.db #0x1A
	.db #0x1A
	.db #0x1A
	.db #0x1A
	.db #0x1A
	.db #0x1A
	.db #0x44
	.db #0x00
	.db #0x00
	.db #0x00
	.db #0x1A
	.db #0x1A
	.db #0x1A
	.db #0x1A
	.db #0x1A
	.db #0x1A
	.db #0x1A
	.db #0x1A
	.db #0x1A
	.db #0x1A
	.db #0x00
	.db #0x00
	.db #0x24
	.db #0x1A
	.db #0x1A
	.db #0x1A
	.db #0x1A
	.db #0x1A
	.db #0x1A
	.db #0x1A
	.db #0x1A
	.db #0x1A
	.db #0x1A
	.db #0x1A
	.db #0x1A
	.db #0x1A
	.db #0x1A
	.db #0x1A
	.db #0x1A
	.db #0x1A
	.db #0x1A
	.db #0x00
	.db #0x00
	.db #0x64
	.db #0x89
	.db #0x89
	.db #0x64
	.db #0x64
	.db #0x00
	.db #0x00
	.db #0x00
	.db #0x1A
	.db #0x1A
	.db #0x1A
	.db #0x00
	.db #0x64
	.db #0x8D
	.db #0x21
	.db #0x21
	.db #0xB1
	.db #0xD6
	.db #0x8D
	.db #0x00
	.db #0x00
	.db #0x1A
	.db #0x1A
	.db #0x1A
	.db #0x44
	.db #0xB1
	.db #0x62
	.db #0x42
	.db #0x42
	.db #0xB1
	.db #0xD6
	.db #0x8D
	.db #0x1C
	.db #0x20
	.db #0x1A
	.db #0x1A
	.db #0x1A
	.db #0xDC
	.db #0x8D
	.db #0x42
	.db #0x21
	.db #0x21
	.db #0x44
	.db #0x64
	.db #0x44
	.db #0x64
	.db #0x40
	.db #0x1A
	.db #0x1A
	.db #0x1A
	.db #0xBC
	.db #0x89
	.db #0x89
	.db #0x21
	.db #0x21
	.db #0x21
	.db #0x64
	.db #0x44
	.db #0x44
	.db #0x40
	.db #0x1A
	.db #0x1A
	.db #0x1A
	.db #0x44
	.db #0x64
	.db #0x89
	.db #0x89
	.db #0x8D
	.db #0x8D
	.db #0x8D
	.db #0x89
	.db #0x14
	.db #0x20
	.db #0x1A
	.db #0x1A
	.db #0x1A
	.db #0x00
	.db #0x44
	.db #0x64
	.db #0x89
	.db #0x8D
	.db #0xB1
	.db #0x89
	.db #0x64
	.db #0x00
	.db #0x00
	.db #0x1A
	.db #0x1A
	.db #0x1A
	.db #0x24
	.db #0x00
	.db #0x00
	.db #0x44
	.db #0x64
	.db #0x64
	.db #0x44
	.db #0x00
	.db #0x00
	.db #0x24
	.db #0x1A
	.db #0x1A
	.db #0x1A
	.db #0x00
	.db #0x00
	.db #0x00
	.db #0x1A
	.db #0x1A
	.db #0x1A
	.db #0x1A
	.db #0x00
	.db #0x00
	.db #0x00
	.db #0x1A
	.db #0x1A
	.db #0x1A
	.db #0x1A
	.db #0x1A
	.db #0x1A
	.db #0x1A
	.db #0x1A
	.db #0x1A
	.db #0x1A
	.db #0x1A
	.db #0x1A
	.db #0x1A
	.db #0x1A
	.db #0x1A
	.db #0x1A
	.db #0x1A
	.db #0x1A
	.db #0x1A
	.db #0x1A
	.db #0x1A
	.db #0x1A
	.db #0x1A
	.db #0x00
	.db #0x00
	.db #0x1A
	.db #0x1A
	.db #0x1A
	.db #0x1A
	.db #0x1A
	.db #0x1A
	.db #0x1A
	.db #0x1A
	.db #0x1A
	.db #0x64
	.db #0x00
	.db #0x00
	.db #0x00
	.db #0x1A
	.db #0x1A
	.db #0x1A
	.db #0x1A
	.db #0x1A
	.db #0x1A
	.db #0x89
	.db #0x89
	.db #0x64
	.db #0xD6
	.db #0x8D
	.db #0x1C
	.db #0x20
	.db #0x1A
	.db #0x1A
	.db #0x1A
	.db #0x1A
	.db #0x00
	.db #0x00
	.db #0x8D
	.db #0x21
	.db #0x21
	.db #0xB1
	.db #0xD6
	.db #0x44
	.db #0x64
	.db #0x40
	.db #0x1A
	.db #0x1A
	.db #0x1A
	.db #0x00
	.db #0x64
	.db #0x62
	.db #0x42
	.db #0x42
	.db #0x44
	.db #0x64
	.db #0x44
	.db #0x44
	.db #0x40
	.db #0x1A
	.db #0x1A
	.db #0x1A
	.db #0x44
	.db #0xB1
	.db #0x42
	.db #0x21
	.db #0x21
	.db #0x21
	.db #0x64
	.db #0x89
	.db #0x14
	.db #0x20
	.db #0x1A
	.db #0x1A
	.db #0x1A
	.db #0x1A
	.db #0xDC
	.db #0x89
	.db #0x89
	.db #0x21
	.db #0x8D
	.db #0x8D
	.db #0x89
	.db #0x64
	.db #0x00
	.db #0x24
	.db #0x1A
	.db #0x1A
	.db #0x1A
	.db #0xBC
	.db #0x64
	.db #0x89
	.db #0x89
	.db #0x8D
	.db #0xB1
	.db #0x44
	.db #0x00
	.db #0x00
	.db #0x00
	.db #0x1A
	.db #0x1A
	.db #0x1A
	.db #0x1A
	.db #0x00
	.db #0x44
	.db #0x64
	.db #0x44
	.db #0x64
	.db #0x1A
	.db #0x1A
	.db #0x00
	.db #0x1A
	.db #0x1A
	.db #0x1A
	.db #0x1A
	.db #0x1A
	.db #0x24
	.db #0x00
	.db #0x00
	.db #0x1A
	.db #0x1A
	.db #0x1A
	.db #0x1A
	.db #0x1A
	.db #0x1A
	.db #0x1A
	.db #0x1A
	.db #0x1A
	.db #0x1A
	.db #0x00
	.db #0x00
	.db #0x00
	.db #0x1A
	.db #0x1A
	.db #0x1A
	.db #0x1A
	.db #0x1A
	.db #0x1A
	.db #0x1A
	.db #0x1A
	.db #0x1A
	.db #0x1A
	.db #0x00
	.db #0x00
	.db #0x10
	.db #0x00
	.db #0x1A
	.db #0x1A
	.db #0x1A
	.db #0x1A
	.db #0x1A
	.db #0x1A
	.db #0x1A
	.db #0x1A
	.db #0x1A
	.db #0x00
	.db #0x44
	.db #0x40
	.db #0x40
	.db #0x64
	.db #0x1A
	.db #0x1A
	.db #0x1A
	.db #0x1A
	.db #0x1A
	.db #0x1A
	.db #0x1A
	.db #0x1A
	.db #0x44
	.db #0x64
	.db #0x40
	.db #0x44
	.db #0x64
	.db #0x64
	.db #0x14
	.db #0x1A
	.db #0x1A
	.db #0x1A
	.db #0x1A
	.db #0x1A
	.db #0x64
	.db #0x89
	.db #0x21
	.db #0x89
	.db #0x8D
	.db #0x44
	.db #0x40
	.db #0x44
	.db #0x00
	.db #0x00
	.db #0x1A
	.db #0x00
	.db #0x00
	.db #0x89
	.db #0xB1
	.db #0x21
	.db #0x42
	.db #0xD6
	.db #0x21
	.db #0x21
	.db #0x44
	.db #0x24
	.db #0x00
	.db #0x1A
	.db #0x00
	.db #0x40
	.db #0x89
	.db #0x8D
	.db #0x42
	.db #0x62
	.db #0x21
	.db #0x21
	.db #0x89
	.db #0x64
	.db #0x00
	.db #0x00
	.db #0x1A
	.db #0x00
	.db #0x00
	.db #0x89
	.db #0x89
	.db #0x8D
	.db #0x42
	.db #0x21
	.db #0x89
	.db #0x89
	.db #0x44
	.db #0x1A
	.db #0x1A
	.db #0x1A
	.db #0x1A
	.db #0x24
	.db #0x40
	.db #0xDC
	.db #0x8D
	.db #0xB1
	.db #0xB1
	.db #0x8D
	.db #0x89
	.db #0x1A
	.db #0x1A
	.db #0x1A
	.db #0x1A
	.db #0x1A
	.db #0x1A
	.db #0x40
	.db #0x40
	.db #0xDC
	.db #0x89
	.db #0x89
	.db #0x00
	.db #0x1A
	.db #0x1A
	.db #0x1A
	.db #0x1A
	.db #0x1A
	.db #0x1A
	.db #0x1A
	.db #0x1A
	.db #0x40
	.db #0x40
	.db #0x00
	.db #0x24
	.db #0x24
	.db #0x1A
	.db #0x1A
	.db #0x1A
	.db #0x1A
	.db #0x1A
	.db #0x1A
	.db #0x1A
	.db #0x1A
	.db #0x1A
	.db #0x1A
	.db #0x00
	.db #0x00
	.db #0x00
	.db #0x1A
	.db #0x1A
	.db #0x1A
	.db #0x1A
	.db #0x1A
	.db #0x1A
	.db #0x1A
	.db #0x1A
	.db #0x1A
	.db #0x1A
	.db #0x1A
	.db #0x1A
	.db #0x1A
	.db #0x1A
	.db #0x1A
	.db #0x1A
	.db #0x1A
	.db #0x1A
	.db #0x1A
	.db #0x1A
	.db #0x00
	.db #0x00
	.db #0x10
	.db #0x40
	.db #0x40
	.db #0x64
	.db #0x14
	.db #0x1A
	.db #0x1A
	.db #0x1A
	.db #0x1A
	.db #0x1A
	.db #0x1A
	.db #0x00
	.db #0x44
	.db #0x40
	.db #0x44
	.db #0x64
	.db #0x64
	.db #0x40
	.db #0x00
	.db #0x00
	.db #0x1A
	.db #0x1A
	.db #0x1A
	.db #0x1A
	.db #0x44
	.db #0x44
	.db #0x64
	.db #0x89
	.db #0x8D
	.db #0x44
	.db #0x64
	.db #0x44
	.db #0x24
	.db #0x1A
	.db #0x1A
	.db #0x1A
	.db #0x1A
	.db #0x64
	.db #0x21
	.db #0x8D
	.db #0xB2
	.db #0x21
	.db #0x21
	.db #0x89
	.db #0x44
	.db #0x24
	.db #0x1A
	.db #0x1A
	.db #0x1A
	.db #0x89
	.db #0xB1
	.db #0x21
	.db #0x21
	.db #0x21
	.db #0x21
	.db #0x40
	.db #0x89
	.db #0x1A
	.db #0x1A
	.db #0x1A
	.db #0x1A
	.db #0x00
	.db #0x64
	.db #0x89
	.db #0x21
	.db #0x21
	.db #0x8D
	.db #0x8D
	.db #0x8D
	.db #0x89
	.db #0x1A
	.db #0x1A
	.db #0x1A
	.db #0x1A
	.db #0x00
	.db #0x40
	.db #0x89
	.db #0x8D
	.db #0x8D
	.db #0xB1
	.db #0xB1
	.db #0x89
	.db #0x40
	.db #0x1A
	.db #0x1A
	.db #0x1A
	.db #0x1A
	.db #0x00
	.db #0x00
	.db #0x40
	.db #0x9C
	.db #0xDC
	.db #0xB1
	.db #0x89
	.db #0x40
	.db #0x00
	.db #0x1A
	.db #0x1A
	.db #0x1A
	.db #0x1A
	.db #0x1A
	.db #0x1A
	.db #0x40
	.db #0x40
	.db #0x40
	.db #0x40
	.db #0x00
	.db #0x00
	.db #0x00
	.db #0x00
	.db #0x1A
	.db #0x1A
	.db #0x1A
	.db #0x1A
	.db #0x1A
	.db #0x1A
	.db #0x1A
	.db #0x1A
	.db #0x1A
	.db #0x1A
	.db #0x00
	.db #0x00
	.db #0x1A
	.db #0x1A
	.db #0x1A
	.db #0x1A
	.db #0x1A
	.db #0x1A
	.db #0x1A
	.db #0x1A
	.db #0x1A
	.db #0x1A
	.db #0x1A
	.db #0x1A
	.db #0x1A
	.db #0x1A
	.db #0x1A
	.db #0x1A
	.db #0x1A
	.db #0x00
	.db #0x00
	.db #0x00
	.db #0x14
	.db #0x64
	.db #0x40
	.db #0x10
	.db #0x00
	.db #0x00
	.db #0x00
	.db #0x1A
	.db #0x1A
	.db #0x1A
	.db #0x24
	.db #0x00
	.db #0x44
	.db #0x40
	.db #0x64
	.db #0x44
	.db #0x40
	.db #0x44
	.db #0x00
	.db #0x00
	.db #0x1A
	.db #0x1A
	.db #0x1A
	.db #0x24
	.db #0x44
	.db #0x64
	.db #0x44
	.db #0x8D
	.db #0x89
	.db #0x44
	.db #0x64
	.db #0x44
	.db #0x00
	.db #0x1A
	.db #0x1A
	.db #0x1A
	.db #0x1A
	.db #0x64
	.db #0x89
	.db #0x21
	.db #0xD6
	.db #0xB2
	.db #0x21
	.db #0x89
	.db #0x64
	.db #0x1A
	.db #0x1A
	.db #0x1A
	.db #0x1A
	.db #0x1A
	.db #0x89
	.db #0x89
	.db #0x21
	.db #0x21
	.db #0x21
	.db #0x21
	.db #0xB1
	.db #0x89
	.db #0x1A
	.db #0x1A
	.db #0x1A
	.db #0x1A
	.db #0x1A
	.db #0x89
	.db #0x8D
	.db #0x8D
	.db #0x42
	.db #0x21
	.db #0x8D
	.db #0x89
	.db #0x64
	.db #0x1A
	.db #0x1A
	.db #0x1A
	.db #0x1A
	.db #0x00
	.db #0x40
	.db #0x89
	.db #0xB1
	.db #0xB1
	.db #0x8D
	.db #0x89
	.db #0x89
	.db #0x40
	.db #0x00
	.db #0x1A
	.db #0x1A
	.db #0x1A
	.db #0x00
	.db #0x00
	.db #0x40
	.db #0x89
	.db #0xDC
	.db #0x9C
	.db #0x64
	.db #0x40
	.db #0x00
	.db #0x00
	.db #0x1A
	.db #0x1A
	.db #0x1A
	.db #0x24
	.db #0x00
	.db #0x00
	.db #0x1A
	.db #0x1A
	.db #0x1A
	.db #0x40
	.db #0x24
	.db #0x24
	.db #0x00
	.db #0x1A
	.db #0x1A
	.db #0x1A
	.db #0x1A
	.db #0x1A
	.db #0x1A
	.db #0x1A
	.db #0x1A
	.db #0x1A
	.db #0x1A
	.db #0x1A
	.db #0x1A
	.db #0x1A
	.db #0x1A
	.db #0x1A
	.db #0x1A
	.db #0x1A
	.db #0x1A
	.db #0x1A
	.db #0x1A
	.db #0x1A
	.db #0x1A
	.db #0x1A
	.db #0x1A
	.db #0x1A
	.db #0x1A
	.db #0x1A
	.db #0x1A
	.db #0x1A
	.db #0x1A
	.db #0x1A
	.db #0x14
	.db #0x64
	.db #0x64
	.db #0x10
	.db #0x00
	.db #0x00
	.db #0x1A
	.db #0x1A
	.db #0x1A
	.db #0x1A
	.db #0x1A
	.db #0x00
	.db #0x00
	.db #0x40
	.db #0x64
	.db #0x64
	.db #0x44
	.db #0x40
	.db #0x44
	.db #0x00
	.db #0x1A
	.db #0x1A
	.db #0x1A
	.db #0x1A
	.db #0x24
	.db #0x44
	.db #0x64
	.db #0x44
	.db #0x8D
	.db #0x89
	.db #0x64
	.db #0x40
	.db #0x44
	.db #0x1A
	.db #0x1A
	.db #0x1A
	.db #0x1A
	.db #0x24
	.db #0x44
	.db #0x89
	.db #0x21
	.db #0x21
	.db #0xB2
	.db #0x40
	.db #0x21
	.db #0x64
	.db #0x1A
	.db #0x1A
	.db #0x1A
	.db #0x1A
	.db #0x1A
	.db #0x40
	.db #0x89
	.db #0x89
	.db #0x21
	.db #0x21
	.db #0x21
	.db #0x21
	.db #0xB1
	.db #0x89
	.db #0x1A
	.db #0x1A
	.db #0x1A
	.db #0x1A
	.db #0x1A
	.db #0x89
	.db #0x8D
	.db #0x8D
	.db #0x42
	.db #0x21
	.db #0x8D
	.db #0x89
	.db #0x64
	.db #0x00
	.db #0x1A
	.db #0x1A
	.db #0x1A
	.db #0x1A
	.db #0x40
	.db #0x89
	.db #0xB1
	.db #0xB1
	.db #0x8D
	.db #0x89
	.db #0x89
	.db #0x40
	.db #0x00
	.db #0x1A
	.db #0x1A
	.db #0x1A
	.db #0x00
	.db #0x00
	.db #0x40
	.db #0x89
	.db #0xDC
	.db #0x9C
	.db #0x64
	.db #0x40
	.db #0x00
	.db #0x00
	.db #0x1A
	.db #0x1A
	.db #0x1A
	.db #0x00
	.db #0x00
	.db #0x00
	.db #0x1A
	.db #0x1A
	.db #0x1A
	.db #0x40
	.db #0x24
	.db #0x24
	.db #0x1A
	.db #0x1A
	.db #0x1A
	.db #0x1A
	.db #0x24
	.db #0x00
	.db #0x1A
	.db #0x1A
	.db #0x1A
	.db #0x1A
	.db #0x1A
	.db #0x1A
	.db #0x1A
	.db #0x1A
	.db #0x1A
	.db #0x1A
	.db #0x1A
	.db #0x1A
	.db #0x1A
	.db #0x1A
	.db #0x00
	.db #0x10
	.db #0x00
	.db #0x00
	.db #0x1A
	.db #0x1A
	.db #0x1A
	.db #0x1A
	.db #0x1A
	.db #0x1A
	.db #0x1A
	.db #0x1A
	.db #0x64
	.db #0x40
	.db #0x40
	.db #0x44
	.db #0x00
	.db #0x1A
	.db #0x1A
	.db #0x1A
	.db #0x1A
	.db #0x1A
	.db #0x1A
	.db #0x14
	.db #0x64
	.db #0x64
	.db #0x44
	.db #0x40
	.db #0x64
	.db #0x44
	.db #0x1A
	.db #0x1A
	.db #0x1A
	.db #0x1A
	.db #0x00
	.db #0x00
	.db #0x44
	.db #0x40
	.db #0x44
	.db #0x8D
	.db #0x89
	.db #0x21
	.db #0x89
	.db #0x64
	.db #0x1A
	.db #0x1A
	.db #0x1A
	.db #0x00
	.db #0x24
	.db #0x44
	.db #0x21
	.db #0x21
	.db #0xD6
	.db #0x42
	.db #0x21
	.db #0xB1
	.db #0x89
	.db #0x00
	.db #0x00
	.db #0x1A
	.db #0x00
	.db #0x00
	.db #0x64
	.db #0x89
	.db #0x21
	.db #0x21
	.db #0x62
	.db #0x42
	.db #0x8D
	.db #0x89
	.db #0x40
	.db #0x00
	.db #0x1A
	.db #0x1A
	.db #0x1A
	.db #0x44
	.db #0x89
	.db #0x89
	.db #0x21
	.db #0x42
	.db #0x8D
	.db #0x89
	.db #0x89
	.db #0x00
	.db #0x00
	.db #0x1A
	.db #0x1A
	.db #0x1A
	.db #0x1A
	.db #0x89
	.db #0x8D
	.db #0xB1
	.db #0xB1
	.db #0x8D
	.db #0xDC
	.db #0x40
	.db #0x24
	.db #0x1A
	.db #0x1A
	.db #0x1A
	.db #0x1A
	.db #0x1A
	.db #0x1A
	.db #0x00
	.db #0x89
	.db #0x89
	.db #0xDC
	.db #0x40
	.db #0x40
	.db #0x1A
	.db #0x1A
	.db #0x1A
	.db #0x1A
	.db #0x1A
	.db #0x1A
	.db #0x1A
	.db #0x24
	.db #0x24
	.db #0x00
	.db #0x40
	.db #0x40
	.db #0x1A
	.db #0x1A
	.db #0x1A
	.db #0x1A
	.db #0x1A
	.db #0x1A
	.db #0x1A
	.db #0x1A
	.db #0x00
	.db #0x00
	.db #0x00
	.db #0x1A
	.db #0x1A
	.db #0x1A
	.db #0x1A
	.db #0x1A
	.db #0x1A
	.db #0x1A
	.db #0x1A
	.db #0x00
	.db #0x00
	.db #0x1A
	.db #0x1A
	.db #0x1A
	.db #0x1A
	.db #0x1A
	.db #0x1A
	.db #0x1A
	.db #0x1A
	.db #0x1A
	.db #0x1A
	.db #0x1A
	.db #0x00
	.db #0x00
	.db #0x00
	.db #0x64
	.db #0x1A
	.db #0x1A
	.db #0x1A
	.db #0x1A
	.db #0x1A
	.db #0x1A
	.db #0x1A
	.db #0x1A
	.db #0x1A
	.db #0x20
	.db #0x1C
	.db #0x8D
	.db #0xD6
	.db #0x64
	.db #0x89
	.db #0x89
	.db #0x1A
	.db #0x1A
	.db #0x1A
	.db #0x1A
	.db #0x1A
	.db #0x40
	.db #0x64
	.db #0x44
	.db #0xD6
	.db #0xB1
	.db #0x21
	.db #0x21
	.db #0x8D
	.db #0x00
	.db #0x00
	.db #0x1A
	.db #0x1A
	.db #0x1A
	.db #0x40
	.db #0x44
	.db #0x44
	.db #0x64
	.db #0x44
	.db #0x42
	.db #0x42
	.db #0x62
	.db #0x64
	.db #0x00
	.db #0x1A
	.db #0x1A
	.db #0x1A
	.db #0x20
	.db #0x14
	.db #0x89
	.db #0x64
	.db #0x21
	.db #0x21
	.db #0x21
	.db #0x42
	.db #0xB1
	.db #0x44
	.db #0x1A
	.db #0x1A
	.db #0x24
	.db #0x00
	.db #0x64
	.db #0x89
	.db #0x8D
	.db #0x8D
	.db #0x21
	.db #0x89
	.db #0x89
	.db #0xDC
	.db #0x1A
	.db #0x1A
	.db #0x1A
	.db #0x00
	.db #0x00
	.db #0x00
	.db #0x44
	.db #0xB1
	.db #0x8D
	.db #0x89
	.db #0x89
	.db #0x64
	.db #0xBC
	.db #0x1A
	.db #0x1A
	.db #0x1A
	.db #0x1A
	.db #0x00
	.db #0x1A
	.db #0x1A
	.db #0x64
	.db #0x44
	.db #0x64
	.db #0x44
	.db #0x00
	.db #0x1A
	.db #0x1A
	.db #0x1A
	.db #0x1A
	.db #0x1A
	.db #0x1A
	.db #0x1A
	.db #0x1A
	.db #0x1A
	.db #0x1A
	.db #0x00
	.db #0x00
	.db #0x24
	.db #0x1A
	.db #0x1A
	.db #0x1A
	.db #0x1A
	.db #0x1A
	.db #0x1A
	.db #0x1A
	.db #0x1A
	.db #0x1A
	.db #0x1A
	.db #0x00
	.db #0x00
	.db #0x00
	.db #0x1A
	.db #0x1A
	.db #0x1A
	.db #0x1A
_g_Sinus:
	.dw #0x0000
	.dw #0x0061
	.dw #0x00B5
	.dw #0x00EC
	.dw #0x0100
	.dw #0x00EC
	.dw #0x00B5
	.dw #0x0061
	.dw #0x0000
	.dw #0xFF9F
	.dw #0xFF4B
	.dw #0xFF14
	.dw #0xFF00
	.dw #0xFF14
	.dw #0xFF4B
	.dw #0xFF9F
_g_Cosinus:
	.dw #0x0100
	.dw #0x00EC
	.dw #0x00B5
	.dw #0x0061
	.dw #0x0000
	.dw #0xFF9F
	.dw #0xFF4B
	.dw #0xFF14
	.dw #0xFF00
	.dw #0xFF14
	.dw #0xFF4B
	.dw #0xFF9F
	.dw #0x0000
	.dw #0x0061
	.dw #0x00B5
	.dw #0x00EC
;carwar.c:169: void MainLoop()
;	genLabel
;	genFunction
;	---------------------------------
; Function MainLoop
; ---------------------------------
_MainLoop_start::
_MainLoop:
	push	ix
	ld	ix,#0
	add	ix,sp
	ld	hl,#-39
	add	hl,sp
	ld	sp,hl
;carwar.c:171: u8 clsScreen8[15] = 
;	genAddrOf
	ld	hl,#0x0018
	add	hl,sp
	ld	c,l
	ld	b,h
;	genArrayInit
; _saveRegsForCall: sendSetSize: 0 deInUse: 0 bcInUse: 1 deSending: 0
	push	bc
	ld	l,c
	ld	h,b
	call	__initrleblock
	.db	#-9,#0x00
	.db	6
	.db	0x01, 0xD4, 0x00, 0x00, 0x00, 0xC0
	.db	0
	pop	bc
;carwar.c:182: u8 rot = 0;
;	genAssign
;	AOP_STK for _MainLoop_rot_1_1
	ld	-21(ix),#0x00
;carwar.c:183: u16 posX = 128 << 8, posY = 128 << 8, dx ,dy;
;	genAssign
;	AOP_STK for _MainLoop_posX_1_1
	ld	-23(ix),#0x00
	ld	-22(ix),#0x80
;	genAssign
;	AOP_STK for _MainLoop_posY_1_1
	ld	-25(ix),#0x00
	ld	-24(ix),#0x80
;carwar.c:184: i8 speed = 0;
;	genAssign
;	AOP_STK for _MainLoop_speed_1_1
	ld	-30(ix),#0x00
;carwar.c:186: SetTo60Hz();
;	genCall
; _saveRegsForCall: sendSetSize: 0 deInUse: 0 bcInUse: 0 deSending: 0
	call	_SetTo60Hz
;carwar.c:187: SetScreen8();
;	genCall
; _saveRegsForCall: sendSetSize: 0 deInUse: 0 bcInUse: 0 deSending: 0
	call	_SetScreen8
;carwar.c:191: VPDCommand((int)&clsScreen8);
;	genAddrOf
	ld	hl,#0x0018
	add	hl,sp
;	genCast
;	genIpush
; _saveRegsForCall: sendSetSize: 0 deInUse: 0 bcInUse: 0 deSending: 0
	ld	b,l
	ld	e,h
	push	hl
;	genCall
	call	_VPDCommand
	pop	af
;carwar.c:193: while(bEnd == 0)
;	genLabel
00120$:
;carwar.c:195: Fill8(0, posX >> 8, posY >> 8, 13, 11, 0);
;	genRightShift
;	AOP_STK for _MainLoop_posY_1_1
	ld	b,-24(ix)
;	genCast
;	genRightShift
;	AOP_STK for _MainLoop_posX_1_1
	ld	e,-22(ix)
	ld	d,#0x00
;	genCast
;	genIpush
; _saveRegsForCall: sendSetSize: 0 deInUse: 0 bcInUse: 0 deSending: 0
	ld	hl,#0x000B
	push	hl
;	genIpush
	ld	a,#0x0D
	push	af
	inc	sp
;	genIpush
	push	bc
	inc	sp
;	genIpush
;	genIpush
;	genCall
	ld	d,e
	ld	e,#0x00
	push	de
	call	_Fill8
	pop	af
	pop	af
	pop	af
;carwar.c:197: speed--;
;	genMinus
;	AOP_STK for _MainLoop_speed_1_1
	dec	-30(ix)
;carwar.c:198: if((i = Joystick(0) | Joystick(1) | Joystick(2)) != 0)
;	genIpush
; _saveRegsForCall: sendSetSize: 0 deInUse: 0 bcInUse: 0 deSending: 0
	ld	a,#0x00
	push	af
	inc	sp
;	genCall
	call	_Joystick
	ld	b,l
	inc	sp
;	genIpush
; _saveRegsForCall: sendSetSize: 0 deInUse: 0 bcInUse: 1 deSending: 0
	push	bc
	ld	a,#0x01
	push	af
	inc	sp
;	genCall
	call	_Joystick
	ld	e,l
	inc	sp
	pop	bc
;	genOr
	ld	a,b
	or	a,e
	ld	b,a
;	genIpush
; _saveRegsForCall: sendSetSize: 0 deInUse: 0 bcInUse: 1 deSending: 0
	push	bc
	ld	a,#0x02
	push	af
	inc	sp
;	genCall
	call	_Joystick
	ld	e,l
	inc	sp
	pop	bc
;	genOr
	ld	a,b
	or	a,e
;	genCast
	ld	b,a
	rla	
	sbc	a,a
	ld	e,a
;	genAssign
;	AOP_STK for _MainLoop_sloc0_1_0
	ld	-32(ix),b
	ld	-31(ix),e
;	genIfx
	ld	a,b
	or	a,e
	jp	Z,00111$
;carwar.c:200: switch (i)
;	genCmpLt
;	AOP_STK for _MainLoop_sloc0_1_0
	ld	a,-32(ix)
	sub	a,#0x01
	ld	a,-31(ix)
	sbc	a,#0x00
	jp	M,00111$
;	genCmpGt
;	AOP_STK for _MainLoop_sloc0_1_0
	ld	a,#0x08
	sub	a,-32(ix)
	ld	a,#0x00
	sbc	a,-31(ix)
	jp	M,00111$
;	genMinus
;	AOP_STK for _MainLoop_sloc0_1_0
	ld	a,-32(ix)
	add	a,#0xFF
	ld	b,a
;	genJumpTab
	push	de
	ld	e,b
	ld	d,#0x00
	ld	hl,#00153$
	add	hl,de
	add	hl,de
	add	hl,de
	pop	de
	jp	(hl)
00153$:
	jp	00101$
	jp	00102$
	jp	00103$
	jp	00104$
	jp	00105$
	jp	00106$
	jp	00107$
	jp	00108$
;carwar.c:202: case 1: // up
;	genLabel
00101$:
;carwar.c:203: dx = g_Cosinus[rot];
;	genLeftShift
;	AOP_STK for _MainLoop_rot_1_1
	ld	a,-21(ix)
	add	a,a
;	genPlus
	ld	b, a
	add	a,#<_g_Cosinus
	ld	e,a
	ld	a,#>_g_Cosinus
	adc	a,#0x00
	ld	d,a
;	genPointerGet
	ld	l,e
	ld	h,d
	ld	e,(hl)
	inc	hl
	ld	d,(hl)
;	genAssign
;	AOP_STK for _MainLoop_sloc1_1_0
	ld	-34(ix),e
	ld	-33(ix),d
;carwar.c:204: dy = g_Sinus[rot];
;	genPlus
	ld	a,#<_g_Sinus
	add	a,b
	ld	b,a
	ld	a,#>_g_Sinus
	adc	a,#0x00
	ld	e,a
;	genPointerGet
	ld	l,b
	ld	h,e
	ld	b,(hl)
	inc	hl
	ld	e,(hl)
;	genAssign
;	AOP_STK for _MainLoop_sloc2_1_0
	ld	-36(ix),b
	ld	-35(ix),e
;carwar.c:205: speed += 2;
;	genPlus
;	AOP_STK for _MainLoop_speed_1_1
;	genPlusIncr
	inc	-30(ix)
	inc	-30(ix)
;carwar.c:206: break;
;	genGoto
	jp	00111$
;carwar.c:207: case 2: // up-right
;	genLabel
00102$:
;carwar.c:208: dx = g_Cosinus[rot];
;	genLeftShift
;	AOP_STK for _MainLoop_rot_1_1
	ld	a,-21(ix)
	add	a,a
;	genPlus
	ld	b, a
	add	a,#<_g_Cosinus
	ld	e,a
	ld	a,#>_g_Cosinus
	adc	a,#0x00
	ld	d,a
;	genPointerGet
	ld	l,e
	ld	h,d
	ld	e,(hl)
	inc	hl
	ld	d,(hl)
;	genAssign
;	AOP_STK for _MainLoop_sloc1_1_0
	ld	-34(ix),e
	ld	-33(ix),d
;carwar.c:209: dy = g_Sinus[rot];
;	genPlus
	ld	a,#<_g_Sinus
	add	a,b
	ld	b,a
	ld	a,#>_g_Sinus
	adc	a,#0x00
	ld	e,a
;	genPointerGet
	ld	l,b
	ld	h,e
	ld	b,(hl)
	inc	hl
	ld	e,(hl)
;	genAssign
;	AOP_STK for _MainLoop_sloc2_1_0
	ld	-36(ix),b
	ld	-35(ix),e
;carwar.c:210: speed += 2;
;	genPlus
;	AOP_STK for _MainLoop_speed_1_1
;	genPlusIncr
	inc	-30(ix)
	inc	-30(ix)
;carwar.c:211: rot--; 
;	genMinus
;	AOP_STK for _MainLoop_rot_1_1
	dec	-21(ix)
;carwar.c:212: break;
;	genGoto
	jr	00111$
;carwar.c:213: case 3: // right
;	genLabel
00103$:
;carwar.c:214: rot--; 
;	genMinus
;	AOP_STK for _MainLoop_rot_1_1
	dec	-21(ix)
;carwar.c:215: break;
;	genGoto
	jr	00111$
;carwar.c:216: case 4: // down-right
;	genLabel
00104$:
;carwar.c:217: rot--; 
;	genMinus
;	AOP_STK for _MainLoop_rot_1_1
	dec	-21(ix)
;carwar.c:218: break;
;	genGoto
	jr	00111$
;carwar.c:219: case 5: // down
;	genLabel
00105$:
;carwar.c:220: break;
;	genGoto
	jr	00111$
;carwar.c:221: case 6: // down-left
;	genLabel
00106$:
;carwar.c:222: rot++; 
;	genPlus
;	AOP_STK for _MainLoop_rot_1_1
;	genPlusIncr
	inc	-21(ix)
;carwar.c:223: break;
;	genGoto
	jr	00111$
;carwar.c:224: case 7: // left
;	genLabel
00107$:
;carwar.c:225: rot++; 
;	genPlus
;	AOP_STK for _MainLoop_rot_1_1
;	genPlusIncr
	inc	-21(ix)
;carwar.c:226: break;
;	genGoto
	jr	00111$
;carwar.c:227: case 8:// up-left
;	genLabel
00108$:
;carwar.c:228: dx = g_Cosinus[rot];
;	genLeftShift
;	AOP_STK for _MainLoop_rot_1_1
	ld	a,-21(ix)
	add	a,a
;	genPlus
	ld	b, a
	add	a,#<_g_Cosinus
	ld	e,a
	ld	a,#>_g_Cosinus
	adc	a,#0x00
	ld	d,a
;	genPointerGet
	ld	l,e
	ld	h,d
	ld	e,(hl)
	inc	hl
	ld	d,(hl)
;	genAssign
;	AOP_STK for _MainLoop_sloc1_1_0
	ld	-34(ix),e
	ld	-33(ix),d
;carwar.c:229: dy = g_Sinus[rot];
;	genPlus
	ld	a,#<_g_Sinus
	add	a,b
	ld	b,a
	ld	a,#>_g_Sinus
	adc	a,#0x00
	ld	e,a
;	genPointerGet
	ld	l,b
	ld	h,e
	ld	b,(hl)
	inc	hl
	ld	e,(hl)
;	genAssign
;	AOP_STK for _MainLoop_sloc2_1_0
	ld	-36(ix),b
	ld	-35(ix),e
;carwar.c:230: speed++;
;	genPlus
;	AOP_STK for _MainLoop_speed_1_1
;	genPlusIncr
	inc	-30(ix)
;carwar.c:231: rot++; 
;	genPlus
;	AOP_STK for _MainLoop_rot_1_1
;	genPlusIncr
	inc	-21(ix)
;carwar.c:233: }
;	genLabel
00111$:
;carwar.c:236: rot &= 0x0F;
;	genAnd
;	AOP_STK for _MainLoop_rot_1_1
	ld	a,-21(ix)
	and	a,#0x0F
	ld	-21(ix),a
;carwar.c:237: if(speed < 0)
;	genCmpLt
;	AOP_STK for _MainLoop_speed_1_1
	ld	a,-30(ix)
	bit	7,a
	jr	Z,00115$
;carwar.c:238: speed = 0;
;	genAssign
;	AOP_STK for _MainLoop_speed_1_1
	ld	-30(ix),#0x00
;	genGoto
	jr	00116$
;	genLabel
00115$:
;carwar.c:239: else if(speed > 10)
;	genCmpGt
;	AOP_STK for _MainLoop_speed_1_1
	ld	a,#0x0A
	sub	a,-30(ix)
	jp	P,00116$
;carwar.c:240: speed = 10;
;	genAssign
;	AOP_STK for _MainLoop_speed_1_1
	ld	-30(ix),#0x0A
;	genLabel
00116$:
;carwar.c:242: posX += speed * dx;
;	genCast
;	AOP_STK for _MainLoop_speed_1_1
	ld	e,-30(ix)
	ld	a,-30(ix)
	rla	
	sbc	a,a
	ld	d,a
;	genIpush
; _saveRegsForCall: sendSetSize: 0 deInUse: 1 bcInUse: 0 deSending: 0
	push	de
;	AOP_STK for _MainLoop_sloc1_1_0
	ld	l,-34(ix)
	ld	h,-33(ix)
	push	hl
;	genIpush
	push	de
;	genCall
	call	__mulint_rrx_s
	ld	c,h
	ld	b,l
	pop	af
	pop	af
	pop	de
;	genPlus
;	AOP_STK for _MainLoop_posX_1_1
	ld	a,-23(ix)
	add	a,b
	ld	-23(ix),a
	ld	a,-22(ix)
	adc	a,c
	ld	-22(ix),a
;carwar.c:243: posY -= speed * dy;
;	genIpush
; _saveRegsForCall: sendSetSize: 0 deInUse: 0 bcInUse: 0 deSending: 0
;	AOP_STK for _MainLoop_sloc2_1_0
	ld	l,-36(ix)
	ld	h,-35(ix)
	push	hl
;	genIpush
	push	de
;	genCall
	call	__mulint_rrx_s
	ld	b,h
	ld	c,l
	pop	af
	pop	af
;	genMinus
;	AOP_STK for _MainLoop_posY_1_1
	ld	a,-25(ix)
	sub	a,c
	ld	-25(ix),a
	ld	a,-24(ix)
	sbc	a,b
	ld	-24(ix),a
;carwar.c:245: HMMC(0, posX >> 8, posY >> 8, 13, 11, (u16)&car1[rot * 13 * 11]);
;	genMult
;	AOP_STK for _MainLoop_rot_1_1
	ld	e,-21(ix)
	ld	d,#0x00
	ld	l,e
	ld	h,d
	add	hl,hl
	add	hl,hl
	add	hl,hl
	add	hl,hl
	add	hl,de
	add	hl,hl
	add	hl,de
	add	hl,hl
	add	hl,de
	add	hl,hl
	add	hl,de
	ld	c,l
	ld	b,h
;	genPlus
	ld	hl,#_car1
	add	hl,bc
	ld	e,l
	ld	d,h
;	genCast
;	AOP_STK for _MainLoop_sloc3_1_0
	ld	-38(ix),e
	ld	-37(ix),d
;	genRightShift
;	AOP_STK for _MainLoop_posY_1_1
	ld	e,-24(ix)
	ld	d,#0x00
;	genCast
;	AOP_STK for _MainLoop_sloc4_1_0
	ld	-39(ix),e
;	genRightShift
;	AOP_STK for _MainLoop_posX_1_1
	ld	d,-22(ix)
	ld	e,#0x00
;	genCast
;	genIpush
; _saveRegsForCall: sendSetSize: 0 deInUse: 0 bcInUse: 1 deSending: 0
	push	bc
;	AOP_STK for _MainLoop_sloc3_1_0
	ld	l,-38(ix)
	ld	h,-37(ix)
	push	hl
;	genIpush
	ld	hl,#0x0B0D
	push	hl
;	genIpush
;	AOP_STK for _MainLoop_sloc4_1_0
	ld	a,-39(ix)
	push	af
	inc	sp
;	genIpush
	push	de
	inc	sp
;	genIpush
	ld	a,#0x00
	push	af
	inc	sp
;	genCall
	call	_HMMC
	pop	af
	pop	af
	pop	af
	inc	sp
	pop	bc
;carwar.c:248: HMMC(0, 20, 20, 13, 11, (u16)&car2[rot * 13 * 11]);
;	genPlus
	ld	hl,#_car2
	add	hl,bc
	ld	e,l
	ld	d,h
;	genCast
;	genIpush
; _saveRegsForCall: sendSetSize: 0 deInUse: 0 bcInUse: 1 deSending: 0
	push	bc
	push	de
;	genIpush
	ld	hl,#0x0B0D
	push	hl
;	genIpush
	ld	hl,#0x1414
	push	hl
;	genIpush
	ld	a,#0x00
	push	af
	inc	sp
;	genCall
	call	_HMMC
	pop	af
	pop	af
	pop	af
	inc	sp
	pop	bc
;carwar.c:249: HMMC(0, 40, 20, 13, 11, (u16)&car3[rot * 13 * 11]);
;	genPlus
	ld	hl,#_car3
	add	hl,bc
	ld	e,l
	ld	d,h
;	genCast
;	genIpush
; _saveRegsForCall: sendSetSize: 0 deInUse: 0 bcInUse: 1 deSending: 0
	push	bc
	push	de
;	genIpush
	ld	hl,#0x0B0D
	push	hl
;	genIpush
	ld	hl,#0x1428
	push	hl
;	genIpush
	ld	a,#0x00
	push	af
	inc	sp
;	genCall
	call	_HMMC
	pop	af
	pop	af
	pop	af
	inc	sp
	pop	bc
;carwar.c:250: HMMC(0, 60, 20, 13, 11, (u16)&car4[rot * 13 * 11]);
;	genPlus
	ld	hl,#_car4
	add	hl,bc
	ld	c,l
	ld	b,h
;	genCast
;	genIpush
; _saveRegsForCall: sendSetSize: 0 deInUse: 0 bcInUse: 0 deSending: 0
	push	bc
;	genIpush
	ld	hl,#0x0B0D
	push	hl
;	genIpush
	ld	hl,#0x143C
	push	hl
;	genIpush
	ld	a,#0x00
	push	af
	inc	sp
;	genCall
	call	_HMMC
	pop	af
	pop	af
	pop	af
	inc	sp
;carwar.c:268: for(i=0; i<10; i++) // rows
;	genAssign
;	AOP_STK for _MainLoop_sloc0_1_0
	ld	-32(ix),#0x00
	ld	-31(ix),#0x00
;	genAssign
;	AOP_STK for _MainLoop_i_1_1
	ld	-17(ix),#0x00
	ld	-16(ix),#0x00
;	genLabel
00127$:
;	genCmpLt
;	AOP_STK for _MainLoop_i_1_1
	ld	a,-17(ix)
	sub	a,#0x0A
	ld	a,-16(ix)
	sbc	a,#0x00
	jp	P,00152$
;carwar.c:270: keyLine = GetKeyMatrixLine(i);
;	genCast
;	AOP_STK for _MainLoop_i_1_1
	ld	e,-17(ix)
;	genIpush
; _saveRegsForCall: sendSetSize: 0 deInUse: 0 bcInUse: 0 deSending: 0
	ld	a,e
	push	af
	inc	sp
;	genCall
	call	_GetKeyMatrixLine
	ld	e,l
	inc	sp
;	genAssign
;	AOP_STK for _MainLoop_keyLine_1_1
	ld	-20(ix),e
;carwar.c:271: for(j=0; j<8; j++) // characters
;	genAssign
;	AOP_STK for _MainLoop_j_1_1
	ld	-19(ix),#0x00
	ld	-18(ix),#0x00
;	genLabel
00123$:
;	genCmpLt
;	AOP_STK for _MainLoop_j_1_1
	ld	a,-19(ix)
	sub	a,#0x08
	ld	a,-18(ix)
	sbc	a,#0x00
	jp	P,00129$
;carwar.c:273: if(keyLine & 1 << j)
;	genLeftShift
;	AOP_STK for _MainLoop_j_1_1
	ld	a,-19(ix)
	inc	a
	push	af
	ld	bc,#0x0001
	pop	af
	jr	00155$
00154$:
	sla	c
	rl	b
00155$:
	dec	a
	jr	NZ,00154$
;	genCast
;	AOP_STK for _MainLoop_keyLine_1_1
	ld	e,-20(ix)
	ld	d,#0x00
;	genAnd
	ld	a,c
	and	a,e
	ld	c,a
	ld	a,b
	and	a,d
;	genIfx
	ld	b,a
	or	a,c
	jr	Z,00118$
;carwar.c:274: DrawPoint8(10 + j, 10 + i, 0);
;	genCast
;	AOP_STK for _MainLoop_i_1_1
	ld	c,-17(ix)
;	genPlus
;	genPlusIncr
	ld	a,c
	add	a,#0x0A
	ld	c,a
;	genCast
;	AOP_STK for _MainLoop_j_1_1
	ld	b,-19(ix)
;	genPlus
;	genPlusIncr
	ld	a,b
	add	a,#0x0A
	ld	b,a
;	genIpush
; _saveRegsForCall: sendSetSize: 0 deInUse: 0 bcInUse: 0 deSending: 0
	ld	a,#0x00
	push	af
	inc	sp
;	genIpush
	ld	a,c
	push	af
	inc	sp
;	genIpush
	push	bc
	inc	sp
;	genCall
	call	_DrawPoint8
	pop	af
	inc	sp
;	genGoto
	jr	00125$
;	genLabel
00118$:
;carwar.c:276: DrawPoint8(10 + j, 10 + i, 255);
;	genCast
;	AOP_STK for _MainLoop_i_1_1
	ld	c,-17(ix)
;	genPlus
;	genPlusIncr
	ld	a,c
	add	a,#0x0A
	ld	c,a
;	genCast
;	AOP_STK for _MainLoop_j_1_1
	ld	b,-19(ix)
;	genPlus
;	genPlusIncr
	ld	a,b
	add	a,#0x0A
	ld	b,a
;	genIpush
; _saveRegsForCall: sendSetSize: 0 deInUse: 0 bcInUse: 0 deSending: 0
	ld	a,#0xFF
	push	af
	inc	sp
;	genIpush
	ld	a,c
	push	af
	inc	sp
;	genIpush
	push	bc
	inc	sp
;	genCall
	call	_DrawPoint8
	pop	af
	inc	sp
;	genLabel
00125$:
;carwar.c:271: for(j=0; j<8; j++) // characters
;	genPlus
;	AOP_STK for _MainLoop_j_1_1
;	genPlusIncr
	inc	-19(ix)
	jr	NZ,00156$
	inc	-18(ix)
00156$:
;	genGoto
	jp	00123$
;	genLabel
00129$:
;carwar.c:268: for(i=0; i<10; i++) // rows
;	genPlus
;	AOP_STK for _MainLoop_i_1_1
;	genPlusIncr
	inc	-17(ix)
	jr	NZ,00157$
	inc	-16(ix)
00157$:
;	genAssign
;	AOP_STK for _MainLoop_i_1_1
;	AOP_STK for _MainLoop_sloc0_1_0
	ld	a,-17(ix)
	ld	-32(ix),a
	ld	a,-16(ix)
	ld	-31(ix),a
;	genGoto
	jp	00127$
;	genLabel
00152$:
;	genAssign
;	AOP_STK for _MainLoop_i_1_1
;	AOP_STK for _MainLoop_sloc0_1_0
	ld	a,-17(ix)
	ld	-32(ix),a
	ld	a,-16(ix)
	ld	-31(ix),a
;carwar.c:282: for(j=0; j<256; j++) // characters
;	genAssign
	ld	bc,#0x0000
;	genLabel
00131$:
;	genCmpLt
	ld	a,c
	sub	a,#0x00
	ld	a,b
	sbc	a,#0x01
	jp	P,00120$
;carwar.c:284: DrawPoint8(j, i, j);
;	genCast
	ld	e,c
;	genCast
;	AOP_STK for _MainLoop_sloc0_1_0
	ld	d,-32(ix)
;	genIpush
; _saveRegsForCall: sendSetSize: 0 deInUse: 0 bcInUse: 1 deSending: 0
	push	bc
	ld	a,e
	push	af
	inc	sp
;	genIpush
	push	de
	inc	sp
;	genIpush
	ld	a,e
	push	af
	inc	sp
;	genCall
	call	_DrawPoint8
	pop	af
	inc	sp
	pop	bc
;carwar.c:282: for(j=0; j<256; j++) // characters
;	genPlus
;	genPlusIncr
	inc	bc
;	genGoto
	jr	00131$
;	genLabel
;	genEndFunction
	ld	sp,ix
	pop	ix
	ret
_MainLoop_end::
;carwar.c:439: void SetScreen8()
;	genLabel
;	genFunction
;	---------------------------------
; Function SetScreen8
; ---------------------------------
_SetScreen8_start::
_SetScreen8:
;carwar.c:475: _endasm;
;	genInline
	
	
	
	
		 ld a,(#0xF3DF)
		 set #3,a
		 set #2,a
		 set #1,a
		 ld (#0xF3DF),a
	
		 di
	
		 out (#0x99),a
		 ld a,#(0x80+0)
		 out (#0x99),a
	
	
		 ld a,(#0xF3E0)
		 res #4,a
		 res #3,a
		 ld (#0xF3E0),a
	
		 out (#0x99),a
		 ld a,#(0x80+1)
		 out (#0x99),a
	
	
		 ld a,#0x1F
		 out (#0x99),a
		 ld a,#(0x80+2)
		 out (#0x99),a
	
		 ei
	
		
;	genLabel
;	genEndFunction
	ret
_SetScreen8_end::
;carwar.c:481: void SetPage8(i8 page)
;	genLabel
;	genFunction
;	---------------------------------
; Function SetPage8
; ---------------------------------
_SetPage8_start::
_SetPage8:
	push	ix
	ld	ix,#0
	add	ix,sp
;carwar.c:495: _endasm;
;	genInline
	
	
		 ld a,4(ix)
		 or #0x1F
		 di
		 out (#0x99),a
		 ld a,#(0x80+2)
		 out (#0x99),a
		 ei
	
		
;	genLabel
;	genEndFunction
	pop	ix
	ret
_SetPage8_end::
;carwar.c:501: void DrawPoint8(char posX, char posY, char color)
;	genLabel
;	genFunction
;	---------------------------------
; Function DrawPoint8
; ---------------------------------
_DrawPoint8_start::
_DrawPoint8:
	push	ix
	ld	ix,#0
	add	ix,sp
;carwar.c:505: WaitForVDP();
;	genCall
; _saveRegsForCall: sendSetSize: 0 deInUse: 0 bcInUse: 0 deSending: 0
	call	_WaitForVDP
;carwar.c:553: _endasm;
;	genInline
	
	
	
	
		 ld a,4(ix)
		 di
		 out (#0x99),a
		 ld a,#(0x80+36)
		 out (#0x99),a
	
		 xor a
		 out (#0x99),a
		 ld a,#(0x80+37)
		 out (#0x99),a
	
	
		 ld a,5(ix)
		 out (#0x99),a
		 ld a,#(0x80+38)
		 out (#0x99),a
	
		 xor a
		 out (#0x99),a
		 ld a,#(0x80+39)
		 out (#0x99),a
	
	
		 ld a,6(ix)
		 out (#0x99),a
		 ld a,#(0x80+44)
		 out (#0x99),a
	
	
		 xor a
		 out (#0x99),a
		 ld a,#(0x80+45)
		 out (#0x99),a
	
	
		 ld a,#0x50
		 out (#0x99),a
		 ld a,#(0x80+46)
		 out (#0x99),a
	
		 ei
	
		
;	genLabel
;	genEndFunction
	pop	ix
	ret
_DrawPoint8_end::
;carwar.c:655: void DrawLine8(char posX1, char posY1, char posX2, char posY2, char color)
;	genLabel
;	genFunction
;	---------------------------------
; Function DrawLine8
; ---------------------------------
_DrawLine8_start::
_DrawLine8:
	push	ix
	ld	ix,#0
	add	ix,sp
;carwar.c:659: WaitForVDP();
;	genCall
; _saveRegsForCall: sendSetSize: 0 deInUse: 0 bcInUse: 0 deSending: 0
;	genLabel
;	genEndFunction
	pop	ix
	jp	_WaitForVDP
_DrawLine8_end::
;carwar.c:793: void VPDCommand(int address)
;	genLabel
;	genFunction
;	---------------------------------
; Function VPDCommand
; ---------------------------------
_VPDCommand_start::
_VPDCommand:
	push	ix
	ld	ix,#0
	add	ix,sp
;carwar.c:797: WaitForVDP();
;	genCall
; _saveRegsForCall: sendSetSize: 0 deInUse: 0 bcInUse: 0 deSending: 0
	call	_WaitForVDP
;carwar.c:828: _endasm;
;	genInline
	
	
		 ld l,4(ix)
		 ld h,5(ix)
	
	
		 ld a,#32
		 di
		 out (#0x99),a
		 ld a,#(0x80+17)
		 out (#0x99),a
		 ld c,#0x99 +#2
		 outi
		 outi
		 outi
		 outi
		 outi
		 outi
		 outi
		 outi
		 outi
		 outi
		 outi
		 outi
		 outi
		 outi
		 ei
		 outi
	
		
;	genLabel
;	genEndFunction
	pop	ix
	ret
_VPDCommand_end::
;carwar.c:834: void waitRetrace()
;	genLabel
;	genFunction
;	---------------------------------
; Function waitRetrace
; ---------------------------------
_waitRetrace_start::
_waitRetrace:
;carwar.c:846: _endasm;
;	genInline
	
	
		 di
	 WAIT_RETRACE:
		 in a,(0x99)
		 and #0x80
		 cp #0
		 jr z, WAIT_RETRACE
		 ei
	
		
;	genLabel
;	genEndFunction
	ret
_waitRetrace_end::
;carwar.c:852: void WaitForVDP()
;	genLabel
;	genFunction
;	---------------------------------
; Function WaitForVDP
; ---------------------------------
_WaitForVDP_start::
_WaitForVDP:
;carwar.c:873: _endasm;
;	genInline
	
	
	
		 ld a,#2
		 di
		 out (#0x99),a
		 ld a,#(0x80+15)
		 out (#0x99),a
	 WAIT_VDP:
		 nop
		 in a,(#0x99)
		 rra
		 jr c,WAIT_VDP
		 xor a
		 out (#0x99),a
		 ld a,#(0x80+15)
		 out (#0x99),a
		 ei
	
		
;	genLabel
;	genEndFunction
	ret
_WaitForVDP_end::
;carwar.c:877: char Joystick(char n)
;	genLabel
;	genFunction
;	---------------------------------
; Function Joystick
; ---------------------------------
_Joystick_start::
_Joystick:
	push	ix
	ld	ix,#0
	add	ix,sp
;carwar.c:884: _endasm;
;	genInline
	
		 ld a,4(ix)
		 call 0x00d5
		 ld l,a
		
;	genLabel
;	genEndFunction
	pop	ix
	ret
_Joystick_end::
;carwar.c:888: char Joytrig(char n)
;	genLabel
;	genFunction
;	---------------------------------
; Function Joytrig
; ---------------------------------
_Joytrig_start::
_Joytrig:
	push	ix
	ld	ix,#0
	add	ix,sp
;carwar.c:896: _endasm;
;	genInline
	
		 ld a,4(ix)
		 call 0x00d8
		 ld h,#0x00
		 ld l,a
		
;	genLabel
;	genEndFunction
	pop	ix
	ret
_Joytrig_end::
;carwar.c:900: u8 GetKeyMatrixLine(u8 n)
;	genLabel
;	genFunction
;	---------------------------------
; Function GetKeyMatrixLine
; ---------------------------------
_GetKeyMatrixLine_start::
_GetKeyMatrixLine:
	push	ix
	ld	ix,#0
	add	ix,sp
;carwar.c:907: _endasm;
;	genInline
	
		 ld a,4(ix)
		 call 0x0141
		 ld l,a
		
;	genLabel
;	genEndFunction
	pop	ix
	ret
_GetKeyMatrixLine_end::
;carwar.c:910: void SetTo50Hz()
;	genLabel
;	genFunction
;	---------------------------------
; Function SetTo50Hz
; ---------------------------------
_SetTo50Hz_start::
_SetTo50Hz:
;carwar.c:912: WaitForVDP();
;	genCall
; _saveRegsForCall: sendSetSize: 0 deInUse: 0 bcInUse: 0 deSending: 0
	call	_WaitForVDP
;carwar.c:924: _endasm;
;	genInline
	
	
		 ld a,#2
		 di
		 out (#0x99),a ;
	
		 ld a,#(0x80+9)
		 out (#0x99),a ;
	
		 ei
		
;	genLabel
;	genEndFunction
	ret
_SetTo50Hz_end::
;carwar.c:927: void SetTo60Hz()
;	genLabel
;	genFunction
;	---------------------------------
; Function SetTo60Hz
; ---------------------------------
_SetTo60Hz_start::
_SetTo60Hz:
;carwar.c:929: WaitForVDP();
;	genCall
; _saveRegsForCall: sendSetSize: 0 deInUse: 0 bcInUse: 0 deSending: 0
	call	_WaitForVDP
;carwar.c:941: _endasm;
;	genInline
	
	
		 ld a,#0
		 di
		 out (#0x99),a ;
	
		 ld a,#(0x80+9)
		 out (#0x99),a ;
	
		 ei
		
;	genLabel
;	genEndFunction
	ret
_SetTo60Hz_end::
;carwar.c:947: void WriteToVRAM8(i16 addr, u8 value)
;	genLabel
;	genFunction
;	---------------------------------
; Function WriteToVRAM8
; ---------------------------------
_WriteToVRAM8_start::
_WriteToVRAM8:
	push	ix
	ld	ix,#0
	add	ix,sp
;carwar.c:951: WaitForVDP();
;	genCall
; _saveRegsForCall: sendSetSize: 0 deInUse: 0 bcInUse: 0 deSending: 0
	call	_WaitForVDP
;carwar.c:978: _endasm;
;	genInline
	
		 ;
		 ld a,5(ix) ;
		 and #0xC0 ;
		       rla
		       rla
		 di
		 out (#0x99),a
		 ld a,#(0x80+14)
		 out (#0x99),a
	
		 ld a,4(ix) ;
		 out (#0x99),a
	
		 ld a,5(ix) ;
		 and #0x3F ;
		 or #0x40 ;
		 out (#0x99),a
	
		 ;
		 ld a,6(ix)
		 out (#0x98),a
	
		 ei
		
;	genLabel
;	genEndFunction
	pop	ix
	ret
_WriteToVRAM8_end::
;carwar.c:1085: void HMMC(u8 page, u8 dx, u8 dy, u8 nx, u8 ny, u16 ram)
;	genLabel
;	genFunction
;	---------------------------------
; Function HMMC
; ---------------------------------
_HMMC_start::
_HMMC:
	push	ix
	ld	ix,#0
	add	ix,sp
	ld	hl,#-19
	add	hl,sp
	ld	sp,hl
;carwar.c:1091: buffer.DX = dx;
;	genAddrOf
	ld	hl,#0x0004
	add	hl,sp
	ld	c,l
	ld	b,h
;	genPlus
;	AOP_STK for _HMMC_sloc0_1_0
;	genPlusIncr
	ld	a,c
	add	a,#0x04
	ld	-17(ix),a
	ld	a,b
	adc	a,#0x00
	ld	-16(ix),a
;	genCast
;	AOP_STK for 
	ld	e,5(ix)
	ld	d,#0x00
;	genAssign (pointer)
;	AOP_STK for _HMMC_sloc0_1_0
;	isBitvar = 0
	ld	l,-17(ix)
	ld	h,-16(ix)
	ld	(hl),e
	inc	hl
	ld	(hl),d
;carwar.c:1092: buffer.DY = dy /*+ (page * 512)*/;
;	genPlus
;	AOP_STK for _HMMC_sloc1_1_0
;	genPlusIncr
	ld	a,c
	add	a,#0x06
	ld	-19(ix),a
	ld	a,b
	adc	a,#0x00
	ld	-18(ix),a
;	genCast
;	AOP_STK for 
	ld	e,6(ix)
	ld	d,#0x00
;	genAssign (pointer)
;	AOP_STK for _HMMC_sloc1_1_0
;	isBitvar = 0
	ld	l,-19(ix)
	ld	h,-18(ix)
	ld	(hl),e
	inc	hl
	ld	(hl),d
;carwar.c:1093: buffer.NX = nx;
;	genPlus
;	AOP_STK for _HMMC_sloc1_1_0
;	genPlusIncr
	ld	a,c
	add	a,#0x08
	ld	-19(ix),a
	ld	a,b
	adc	a,#0x00
	ld	-18(ix),a
;	genCast
;	AOP_STK for 
	ld	e,7(ix)
	ld	d,#0x00
;	genAssign (pointer)
;	AOP_STK for _HMMC_sloc1_1_0
;	isBitvar = 0
	ld	l,-19(ix)
	ld	h,-18(ix)
	ld	(hl),e
	inc	hl
	ld	(hl),d
;carwar.c:1094: buffer.NY = ny;
;	genPlus
;	AOP_STK for _HMMC_sloc1_1_0
;	genPlusIncr
	ld	a,c
	add	a,#0x0A
	ld	-19(ix),a
	ld	a,b
	adc	a,#0x00
	ld	-18(ix),a
;	genCast
;	AOP_STK for 
	ld	e,8(ix)
	ld	d,#0x00
;	genAssign (pointer)
;	AOP_STK for _HMMC_sloc1_1_0
;	isBitvar = 0
	ld	l,-19(ix)
	ld	h,-18(ix)
	ld	(hl),e
	inc	hl
	ld	(hl),d
;carwar.c:1095: buffer.CLR = ((u8*)ram)[0];
;	genPlus
;	AOP_STK for _HMMC_sloc1_1_0
;	genPlusIncr
	ld	a,c
	add	a,#0x0C
	ld	-19(ix),a
	ld	a,b
	adc	a,#0x00
	ld	-18(ix),a
;	genCast
;	AOP_STK for 
	ld	e,9(ix)
	ld	d,10(ix)
;	genPointerGet
	ld	a,(de)
;	genAssign (pointer)
;	AOP_STK for _HMMC_sloc1_1_0
;	isBitvar = 0
	ld	l,-19(ix)
	ld	h,-18(ix)
	ld	(hl),a
;carwar.c:1096: buffer.ARG = 0;
;	genPlus
;	genPlusIncr
	ld	a,c
	add	a,#0x0D
	ld	e,a
	ld	a,b
	adc	a,#0x00
	ld	d,a
;	genAssign (pointer)
;	isBitvar = 0
	ld	a,#0x00
	ld	(de),a
;carwar.c:1097: buffer.CMD = 0xF0;
;	genPlus
;	genPlusIncr
	ld	a,c
	add	a,#0x0E
	ld	c,a
	ld	a,b
	adc	a,#0x00
	ld	b,a
;	genAssign (pointer)
;	isBitvar = 0
	ld	a,#0xF0
	ld	(bc),a
;carwar.c:1098: SetupHMMC((u16)&buffer.DX);
;	genAssign
;	AOP_STK for _HMMC_sloc0_1_0
	ld	c,-17(ix)
	ld	b,-16(ix)
;	genCast
;	genIpush
; _saveRegsForCall: sendSetSize: 0 deInUse: 0 bcInUse: 0 deSending: 0
	push	bc
;	genCall
	call	_SetupHMMC
	pop	af
;carwar.c:1150: _endasm;
;	genInline
	
	
		 ld l,9(ix)
		 ld h,10(ix)
	
		 di
	
	 SEND_NEXT_COLOR:
	
		 inc hl
	
		 ;
		 ;
		 ld a,(hl)
		 out (#0x99),a
		 ld a,#(0x80+44)
		 out (#0x99),a
	
	 WAIT_REG2:
	
		 ;
		 ;
		 ld a,#2
		 out (#0x99),a
		 ld a,#(0x80+15)
		 out (#0x99),a
	
		 ;
		 nop
		 in a,(#0x99)
		 ld b,a ;
		 rra ;
		 jr nc,COLOR_COPY_END
	
		 ;
		 ;
		 ld a,b ;
		 rla ;
		 jr nc,WAIT_REG2
		 jp SEND_NEXT_COLOR
	
	 COLOR_COPY_END:
	
		 ;
		 xor a
		 out (#0x99),a
		 ld a,#(0x80+15)
		 out (#0x99),a
	
		 ei
	
		
;	genLabel
;	genEndFunction
	ld	sp,ix
	pop	ix
	ret
_HMMC_end::
;carwar.c:1173: void Fill8(u8 page, u8 dx, u8 dy, u8 nx, u8 ny, u8 color)
;	genLabel
;	genFunction
;	---------------------------------
; Function Fill8
; ---------------------------------
_Fill8_start::
_Fill8:
	push	ix
	ld	ix,#0
	add	ix,sp
	ld	hl,#-19
	add	hl,sp
	ld	sp,hl
;carwar.c:1179: buffer.DX = dx;
;	genAddrOf
	ld	hl,#0x0004
	add	hl,sp
	ld	c,l
	ld	b,h
;	genPlus
;	AOP_STK for _Fill8_sloc0_1_0
;	genPlusIncr
	ld	a,c
	add	a,#0x04
	ld	-17(ix),a
	ld	a,b
	adc	a,#0x00
	ld	-16(ix),a
;	genCast
;	AOP_STK for 
	ld	e,5(ix)
	ld	d,#0x00
;	genAssign (pointer)
;	AOP_STK for _Fill8_sloc0_1_0
;	isBitvar = 0
	ld	l,-17(ix)
	ld	h,-16(ix)
	ld	(hl),e
	inc	hl
	ld	(hl),d
;carwar.c:1180: buffer.DY = dy /*+ (page * 512)*/;
;	genPlus
;	AOP_STK for _Fill8_sloc1_1_0
;	genPlusIncr
	ld	a,c
	add	a,#0x06
	ld	-19(ix),a
	ld	a,b
	adc	a,#0x00
	ld	-18(ix),a
;	genCast
;	AOP_STK for 
	ld	e,6(ix)
	ld	d,#0x00
;	genAssign (pointer)
;	AOP_STK for _Fill8_sloc1_1_0
;	isBitvar = 0
	ld	l,-19(ix)
	ld	h,-18(ix)
	ld	(hl),e
	inc	hl
	ld	(hl),d
;carwar.c:1181: buffer.NX = nx;
;	genPlus
;	AOP_STK for _Fill8_sloc1_1_0
;	genPlusIncr
	ld	a,c
	add	a,#0x08
	ld	-19(ix),a
	ld	a,b
	adc	a,#0x00
	ld	-18(ix),a
;	genCast
;	AOP_STK for 
	ld	e,7(ix)
	ld	d,#0x00
;	genAssign (pointer)
;	AOP_STK for _Fill8_sloc1_1_0
;	isBitvar = 0
	ld	l,-19(ix)
	ld	h,-18(ix)
	ld	(hl),e
	inc	hl
	ld	(hl),d
;carwar.c:1182: buffer.NY = ny;
;	genPlus
;	AOP_STK for _Fill8_sloc1_1_0
;	genPlusIncr
	ld	a,c
	add	a,#0x0A
	ld	-19(ix),a
	ld	a,b
	adc	a,#0x00
	ld	-18(ix),a
;	genCast
;	AOP_STK for 
	ld	e,8(ix)
	ld	d,#0x00
;	genAssign (pointer)
;	AOP_STK for _Fill8_sloc1_1_0
;	isBitvar = 0
	ld	l,-19(ix)
	ld	h,-18(ix)
	ld	(hl),e
	inc	hl
	ld	(hl),d
;carwar.c:1183: buffer.CLR = color;
;	genPlus
;	genPlusIncr
	ld	a,c
	add	a,#0x0C
	ld	e,a
	ld	a,b
	adc	a,#0x00
	ld	d,a
;	genAssign (pointer)
;	AOP_STK for 
;	isBitvar = 0
	ld	a,9(ix)
	ld	(de),a
;carwar.c:1184: buffer.ARG = 0;
;	genPlus
;	genPlusIncr
	ld	a,c
	add	a,#0x0D
	ld	e,a
	ld	a,b
	adc	a,#0x00
	ld	d,a
;	genAssign (pointer)
;	isBitvar = 0
	ld	a,#0x00
	ld	(de),a
;carwar.c:1185: buffer.CMD = 0xF0;
;	genPlus
;	genPlusIncr
	ld	a,c
	add	a,#0x0E
	ld	c,a
	ld	a,b
	adc	a,#0x00
	ld	b,a
;	genAssign (pointer)
;	isBitvar = 0
	ld	a,#0xF0
	ld	(bc),a
;carwar.c:1186: SetupHMMC((u16)&buffer.DX);
;	genAssign
;	AOP_STK for _Fill8_sloc0_1_0
	ld	c,-17(ix)
	ld	b,-16(ix)
;	genCast
;	genIpush
; _saveRegsForCall: sendSetSize: 0 deInUse: 0 bcInUse: 0 deSending: 0
	push	bc
;	genCall
	call	_SetupHMMC
	pop	af
;carwar.c:1233: _endasm;
;	genInline
	
	
		 di
	
	 FILL_SEND_NEXT_COLOR:
	
		 ;
		 ;
		 ld a,9(ix)
		 out (#0x99),a
		 ld a,#(0x80+44)
		 out (#0x99),a
	
	 FILL_WAIT_REG2:
	
		 ;
		 ;
		 ld a,#2
		 out (#0x99),a
		 ld a,#(0x80+15)
		 out (#0x99),a
	
		 ;
		 nop
		 in a,(#0x99)
		 ld b,a ;
		 rra ;
		 jr nc,FILL_COLOR_COPY_END
	
		 ;
		 ;
		 ld a,b ;
		 rla ;
		 jr nc,FILL_WAIT_REG2
		 jp FILL_SEND_NEXT_COLOR
	
	 FILL_COLOR_COPY_END:
	
		 ;
		 xor a
		 out (#0x99),a
		 ld a,#(0x80+15)
		 out (#0x99),a
	
		 ei
	
		
;	genLabel
;	genEndFunction
	ld	sp,ix
	pop	ix
	ret
_Fill8_end::
;carwar.c:1236: void SetupHMMC(u16 address)
;	genLabel
;	genFunction
;	---------------------------------
; Function SetupHMMC
; ---------------------------------
_SetupHMMC_start::
_SetupHMMC:
	push	ix
	ld	ix,#0
	add	ix,sp
;carwar.c:1240: WaitForVDP();
;	genCall
; _saveRegsForCall: sendSetSize: 0 deInUse: 0 bcInUse: 0 deSending: 0
	call	_WaitForVDP
;carwar.c:1266: _endasm;
;	genInline
	
	
		 ld l,4(ix)
		 ld h,5(ix)
		 ;
		 ld a,#36 ;
		 di
		 out (#0x99),a
		 ld a,#(0x80+17)
		 out (#0x99),a ;
		 ld c,#0x99 +#2 ;
		 outi
		 outi
		 outi
		 outi
		 outi
		 outi
		 outi
		 outi
		 outi
		 outi
		 ei ;
		 outi
	
		
;	genLabel
;	genEndFunction
	pop	ix
	ret
_SetupHMMC_end::
	.area _CODE
	.area _CABS
