
Hexadecimal

Area                               Addr   Size   Decimal Bytes (Attributes)
--------------------------------   ----   ----   ------- ----- ------------
.  .ABS.                           0000   0000 =      0. bytes (ABS,CON)

      Value  Global
   --------  --------------------------------
     0000    l__CABS
     0000    l__DATA
     0000    l__GSFINAL
     0000    l__GSINIT
     0000    l__HOME
     0000    l__OVERLAY
     2BB1    l__CODE
     4010    s__CODE
     C000    s__CABS
     C000    s__DATA
     C000    s__GSFINAL
     C000    s__GSINIT
     C000    s__HOME
     C000    s__OVERLAY

Hexadecimal

Area                               Addr   Size   Decimal Bytes (Attributes)
--------------------------------   ----   ----   ------- ----- ------------
_CODE                              4010   2BB1 =  11185. bytes (REL,CON)

      Value  Global
   --------  --------------------------------
     4010    _main
     4010    _main_start
     402B    _car1
     402B    _main_end
     491B    _car2
     520B    _car3
     5AFB    _car4
     642B    _MainLoop
     642B    _MainLoop_start
     6741    _MainLoop_end
     6741    _SetScreen8
     6741    _SetScreen8_start
     676E    _SetPage8
     676E    _SetPage8_start
     676E    _SetScreen8_end
     6786    _DrawPoint8
     6786    _DrawPoint8_start
     6786    _SetPage8_end
     67CE    _DrawLine8
     67CE    _DrawLine8_start
     67CE    _DrawPoint8_end
     67DB    _DrawLine8_end
     67DB    _waitRetrace
     67DB    _waitRetrace_start
     67E6    _WaitForVDP
     67E6    _WaitForVDP_start
     67E6    _waitRetrace_end
     67FE    _Joystick
     67FE    _Joystick_start
     67FE    _WaitForVDP_end
     6810    _Joystick_end
     6810    _Joytrig
     6810    _Joytrig_start
     6824    _GetKeyMatrixLine
     6824    _GetKeyMatrixLine_start
     6824    _Joytrig_end
     6836    _GetKeyMatrixLine_end
     6836    _SetTo50Hz
     6836    _SetTo50Hz_start
     6844    _SetTo50Hz_end
     6844    _SetTo60Hz
     6844    _SetTo60Hz_start
     6852    _SetTo60Hz_end
     6852    _WriteToVRAM8
     6852    _WriteToVRAM8_start
     6882    _VPDCommandLoop
     6882    _VPDCommandLoop_start
     6882    _WriteToVRAM8_end
     68BA    _RAMtoVRAM
     68BA    _RAMtoVRAM_start
     68BA    _VPDCommandLoop_end
     6985    _RAMtoVRAMTrans
     6985    _RAMtoVRAMTrans_start
     6985    _RAMtoVRAM_end
     6A50    _Fill8
     6A50    _Fill8_start
     6A50    _RAMtoVRAMTrans_end
     6B02    _Fill8_end
     6B02    _VPDCommand32
     6B02    _VPDCommand32_start
     6B40    _VPDCommand32_end
     6B40    _VPDCommand36
     6B40    _VPDCommand36_start
     6B76    _VPDCommand36_end
     6B76    __muluchar_rrx_s
     6B89    __mulschar_rrx_s
     6B90    __mulschar_rrx_hds
     6B9C    __mulint_rrx_s
     6BA8    __mulint_rrx_hds
     6BA8    __muluchar_rrx_hds






MODULES
	FILE carwar.o
		NAME carwar
LIBRARIES
	LIBRARY C:\Dev\program\msx\tools\SDCC\bin\..\lib\z80/z80.lib
		MODULE mul.o
USERBASEDEF
	_CODE = 0x4010
	_DATA = 0xc000
