;--------------------------------------------------------
; File Created by SDCC : free open source ANSI-C Compiler
; Version 3.0.0 #6037 (Oct 31 2010) (MINGW32)
; This file was generated Sun Feb 06 23:45:56 2011
;--------------------------------------------------------
	.module carwar
	.optsdcc -mz80
	
;--------------------------------------------------------
; Public variables in this module
;--------------------------------------------------------
	.globl _main
	.globl _buffer32
	.globl _buffer36
	.globl _players
	.globl _track01
	.globl _cars
	.globl _defaultColor
	.globl _trackTiles
	.globl _charTable
	.globl _shadow
	.globl _car4
	.globl _car3
	.globl _car2
	.globl _car1
	.globl _MainLoop
	.globl _InitializePlayer
	.globl _CheckCollision
;--------------------------------------------------------
; special function registers
;--------------------------------------------------------
_g_slotPort	=	0x00a8
;--------------------------------------------------------
;  ram data
;--------------------------------------------------------
	.area _DATA
_players	=	0xc000
_buffer36	=	0xc100
_buffer32	=	0xc200
;--------------------------------------------------------
; overlayable items in  ram 
;--------------------------------------------------------
	.area _OVERLAY
;--------------------------------------------------------
; external initialized ram data
;--------------------------------------------------------
;--------------------------------------------------------
; global & static initialisations
;--------------------------------------------------------
	.area _HOME
	.area _GSINIT
	.area _GSFINAL
	.area _GSINIT
;--------------------------------------------------------
; Home
;--------------------------------------------------------
	.area _HOME
	.area _HOME
;--------------------------------------------------------
; code
;--------------------------------------------------------
	.area _CODE
;carwar.c:177: void main(void)
;	---------------------------------
; Function main
; ---------------------------------
_main_start::
_main:
;carwar.c:183: __endasm;
	
		 di
		 ld sp, (#0xFC4A)
		 ei
		
;carwar.c:185: g_slotPort = (g_slotPort & 0xCF) | ((g_slotPort & 0x0C) << 2);
	in	a,(_g_slotPort)
	and	a,#0xCF
	ld	c,a
	in	a,(_g_slotPort)
	and	a,#0x0C
	add	a,a
	add	a,a
	ld	b,a
	ld	a,c
	or	a,b
	out	(_g_slotPort),a
;carwar.c:187: MainLoop();
	call	_MainLoop
	ret
_main_end::
_car1:
	.db #0x00	; 0
	.db #0x00	; 0
	.db #0x00	; 0
	.db #0x00	; 0
	.db #0x00	; 0
	.db #0x00	; 0
	.db #0x00	; 0
	.db #0x00	; 0
	.db #0x00	; 0
	.db #0x00	; 0
	.db #0x00	; 0
	.db #0x00	; 0
	.db #0x00	; 0
	.db #0x00	; 0
	.db #0x00	; 0
	.db #0x00	; 0
	.db #0x00	; 0
	.db #0x00	; 0
	.db #0x00	; 0
	.db #0x00	; 0
	.db #0x00	; 0
	.db #0x00	; 0
	.db #0x00	; 0
	.db #0x00	; 0
	.db #0x00	; 0
	.db #0x00	; 0
	.db #0x00	; 0
	.db #0x00	; 0
	.db #0x04	; 4
	.db #0x04	; 4
	.db #0x04	; 4
	.db #0x10	; 16
	.db #0x21	; 33
	.db #0x00	; 0
	.db #0x00	; 0
	.db #0x00	; 0
	.db #0x00	; 0
	.db #0x00	; 0
	.db #0x00	; 0
	.db #0x6D	; 109	m
	.db #0x49	; 73	I
	.db #0x04	; 4
	.db #0x21	; 33
	.db #0x04	; 4
	.db #0xFB	; 251
	.db #0x21	; 33
	.db #0x21	; 33
	.db #0x91	; 145
	.db #0x92	; 146
	.db #0xBC	; 188
	.db #0x6D	; 109	m
	.db #0x00	; 0
	.db #0x00	; 0
	.db #0x04	; 4
	.db #0x21	; 33
	.db #0x42	; 66	B
	.db #0x04	; 4
	.db #0xD6	; 214
	.db #0x63	; 99	c
	.db #0x42	; 66	B
	.db #0xDA	; 218
	.db #0xB6	; 182
	.db #0x49	; 73	I
	.db #0x6D	; 109	m
	.db #0x00	; 0
	.db #0x00	; 0
	.db #0x04	; 4
	.db #0x21	; 33
	.db #0x63	; 99	c
	.db #0x04	; 4
	.db #0x1C	; 28
	.db #0x42	; 66	B
	.db #0x42	; 66	B
	.db #0xDA	; 218
	.db #0x92	; 146
	.db #0xFC	; 252
	.db #0x6D	; 109	m
	.db #0x00	; 0
	.db #0x00	; 0
	.db #0x04	; 4
	.db #0x04	; 4
	.db #0x04	; 4
	.db #0x04	; 4
	.db #0x04	; 4
	.db #0x04	; 4
	.db #0x92	; 146
	.db #0xDA	; 218
	.db #0xDA	; 218
	.db #0xDA	; 218
	.db #0x91	; 145
	.db #0x00	; 0
	.db #0x00	; 0
	.db #0x04	; 4
	.db #0x04	; 4
	.db #0x04	; 4
	.db #0x04	; 4
	.db #0x04	; 4
	.db #0x49	; 73	I
	.db #0x6D	; 109	m
	.db #0x6D	; 109	m
	.db #0x04	; 4
	.db #0x04	; 4
	.db #0x6D	; 109	m
	.db #0x00	; 0
	.db #0x00	; 0
	.db #0x00	; 0
	.db #0x04	; 4
	.db #0x04	; 4
	.db #0x00	; 0
	.db #0x00	; 0
	.db #0x00	; 0
	.db #0x00	; 0
	.db #0x00	; 0
	.db #0x04	; 4
	.db #0x04	; 4
	.db #0x00	; 0
	.db #0x00	; 0
	.db #0x00	; 0
	.db #0x00	; 0
	.db #0x00	; 0
	.db #0x00	; 0
	.db #0x00	; 0
	.db #0x00	; 0
	.db #0x00	; 0
	.db #0x00	; 0
	.db #0x00	; 0
	.db #0x00	; 0
	.db #0x00	; 0
	.db #0x00	; 0
	.db #0x00	; 0
	.db #0x00	; 0
	.db #0x00	; 0
	.db #0x00	; 0
	.db #0x00	; 0
	.db #0x00	; 0
	.db #0x00	; 0
	.db #0x00	; 0
	.db #0x00	; 0
	.db #0x00	; 0
	.db #0x00	; 0
	.db #0x00	; 0
	.db #0x00	; 0
	.db #0x00	; 0
	.db #0x00	; 0
	.db #0x00	; 0
	.db #0x00	; 0
	.db #0x00	; 0
	.db #0x00	; 0
	.db #0x00	; 0
	.db #0x00	; 0
	.db #0x00	; 0
	.db #0x00	; 0
	.db #0x00	; 0
	.db #0x00	; 0
	.db #0x00	; 0
	.db #0x00	; 0
	.db #0x00	; 0
	.db #0x00	; 0
	.db #0x00	; 0
	.db #0x00	; 0
	.db #0x00	; 0
	.db #0x00	; 0
	.db #0x00	; 0
	.db #0x00	; 0
	.db #0x00	; 0
	.db #0x00	; 0
	.db #0x00	; 0
	.db #0x00	; 0
	.db #0x00	; 0
	.db #0x00	; 0
	.db #0x00	; 0
	.db #0x00	; 0
	.db #0x00	; 0
	.db #0x00	; 0
	.db #0x10	; 16
	.db #0x21	; 33
	.db #0x00	; 0
	.db #0x6D	; 109	m
	.db #0xB8	; 184
	.db #0x49	; 73	I
	.db #0x00	; 0
	.db #0x00	; 0
	.db #0x00	; 0
	.db #0x00	; 0
	.db #0x00	; 0
	.db #0x04	; 4
	.db #0x04	; 4
	.db #0xFB	; 251
	.db #0x21	; 33
	.db #0x21	; 33
	.db #0x21	; 33
	.db #0xB6	; 182
	.db #0x49	; 73	I
	.db #0x6D	; 109	m
	.db #0x00	; 0
	.db #0x00	; 0
	.db #0x04	; 4
	.db #0x04	; 4
	.db #0x04	; 4
	.db #0x04	; 4
	.db #0xD6	; 214
	.db #0x63	; 99	c
	.db #0x42	; 66	B
	.db #0x21	; 33
	.db #0x92	; 146
	.db #0xDA	; 218
	.db #0x6D	; 109	m
	.db #0x00	; 0
	.db #0x6D	; 109	m
	.db #0x04	; 4
	.db #0x21	; 33
	.db #0x21	; 33
	.db #0x04	; 4
	.db #0x04	; 4
	.db #0x1C	; 28
	.db #0x42	; 66	B
	.db #0x21	; 33
	.db #0xDA	; 218
	.db #0xDC	; 220
	.db #0x49	; 73	I
	.db #0x00	; 0
	.db #0x00	; 0
	.db #0x04	; 4
	.db #0x04	; 4
	.db #0x42	; 66	B
	.db #0x42	; 66	B
	.db #0x04	; 4
	.db #0x04	; 4
	.db #0x04	; 4
	.db #0x92	; 146
	.db #0x6D	; 109	m
	.db #0x49	; 73	I
	.db #0x04	; 4
	.db #0x00	; 0
	.db #0x00	; 0
	.db #0x04	; 4
	.db #0x04	; 4
	.db #0x04	; 4
	.db #0x04	; 4
	.db #0x04	; 4
	.db #0x04	; 4
	.db #0x6D	; 109	m
	.db #0x6D	; 109	m
	.db #0x49	; 73	I
	.db #0x04	; 4
	.db #0x04	; 4
	.db #0x00	; 0
	.db #0x00	; 0
	.db #0x00	; 0
	.db #0x04	; 4
	.db #0x04	; 4
	.db #0x04	; 4
	.db #0x00	; 0
	.db #0x00	; 0
	.db #0x00	; 0
	.db #0x00	; 0
	.db #0x00	; 0
	.db #0x00	; 0
	.db #0x00	; 0
	.db #0x00	; 0
	.db #0x00	; 0
	.db #0x00	; 0
	.db #0x00	; 0
	.db #0x00	; 0
	.db #0x00	; 0
	.db #0x00	; 0
	.db #0x00	; 0
	.db #0x00	; 0
	.db #0x00	; 0
	.db #0x00	; 0
	.db #0x00	; 0
	.db #0x00	; 0
	.db #0x00	; 0
	.db #0x00	; 0
	.db #0x00	; 0
	.db #0x00	; 0
	.db #0x00	; 0
	.db #0x00	; 0
	.db #0x00	; 0
	.db #0x00	; 0
	.db #0x00	; 0
	.db #0x00	; 0
	.db #0x00	; 0
	.db #0x00	; 0
	.db #0x00	; 0
	.db #0x00	; 0
	.db #0x00	; 0
	.db #0x00	; 0
	.db #0x00	; 0
	.db #0x00	; 0
	.db #0x00	; 0
	.db #0x00	; 0
	.db #0x00	; 0
	.db #0x49	; 73	I
	.db #0x6D	; 109	m
	.db #0x00	; 0
	.db #0x00	; 0
	.db #0x00	; 0
	.db #0x00	; 0
	.db #0x00	; 0
	.db #0x00	; 0
	.db #0x00	; 0
	.db #0x00	; 0
	.db #0x00	; 0
	.db #0x00	; 0
	.db #0x6D	; 109	m
	.db #0x6D	; 109	m
	.db #0xBC	; 188
	.db #0x49	; 73	I
	.db #0x00	; 0
	.db #0x00	; 0
	.db #0x00	; 0
	.db #0x00	; 0
	.db #0x00	; 0
	.db #0x00	; 0
	.db #0x00	; 0
	.db #0x00	; 0
	.db #0x21	; 33
	.db #0x21	; 33
	.db #0xB6	; 182
	.db #0xDA	; 218
	.db #0x91	; 145
	.db #0x49	; 73	I
	.db #0x00	; 0
	.db #0x00	; 0
	.db #0x00	; 0
	.db #0x00	; 0
	.db #0x00	; 0
	.db #0x10	; 16
	.db #0x04	; 4
	.db #0x41	; 65	A
	.db #0x62	; 98	b
	.db #0x41	; 65	A
	.db #0xDA	; 218
	.db #0xDA	; 218
	.db #0xFC	; 252
	.db #0x6D	; 109	m
	.db #0x00	; 0
	.db #0x00	; 0
	.db #0x00	; 0
	.db #0x00	; 0
	.db #0xB2	; 178
	.db #0xFB	; 251
	.db #0x04	; 4
	.db #0x04	; 4
	.db #0x63	; 99	c
	.db #0x04	; 4
	.db #0xDA	; 218
	.db #0x91	; 145
	.db #0x04	; 4
	.db #0x00	; 0
	.db #0x00	; 0
	.db #0x00	; 0
	.db #0x04	; 4
	.db #0x21	; 33
	.db #0x04	; 4
	.db #0x1C	; 28
	.db #0x04	; 4
	.db #0x04	; 4
	.db #0x04	; 4
	.db #0x91	; 145
	.db #0x04	; 4
	.db #0x00	; 0
	.db #0x00	; 0
	.db #0x00	; 0
	.db #0x04	; 4
	.db #0x21	; 33
	.db #0x41	; 65	A
	.db #0x63	; 99	c
	.db #0x42	; 66	B
	.db #0x04	; 4
	.db #0x04	; 4
	.db #0x6D	; 109	m
	.db #0x00	; 0
	.db #0x00	; 0
	.db #0x00	; 0
	.db #0x00	; 0
	.db #0x00	; 0
	.db #0x6D	; 109	m
	.db #0x04	; 4
	.db #0x04	; 4
	.db #0x42	; 66	B
	.db #0x04	; 4
	.db #0x04	; 4
	.db #0x04	; 4
	.db #0x49	; 73	I
	.db #0x00	; 0
	.db #0x00	; 0
	.db #0x00	; 0
	.db #0x00	; 0
	.db #0x00	; 0
	.db #0x00	; 0
	.db #0x04	; 4
	.db #0x04	; 4
	.db #0x04	; 4
	.db #0x04	; 4
	.db #0x04	; 4
	.db #0x00	; 0
	.db #0x00	; 0
	.db #0x00	; 0
	.db #0x00	; 0
	.db #0x00	; 0
	.db #0x00	; 0
	.db #0x00	; 0
	.db #0x00	; 0
	.db #0x00	; 0
	.db #0x04	; 4
	.db #0x04	; 4
	.db #0x04	; 4
	.db #0x00	; 0
	.db #0x00	; 0
	.db #0x00	; 0
	.db #0x00	; 0
	.db #0x00	; 0
	.db #0x00	; 0
	.db #0x00	; 0
	.db #0x00	; 0
	.db #0x00	; 0
	.db #0x00	; 0
	.db #0x00	; 0
	.db #0x00	; 0
	.db #0x00	; 0
	.db #0x00	; 0
	.db #0x00	; 0
	.db #0x00	; 0
	.db #0x00	; 0
	.db #0x00	; 0
	.db #0x00	; 0
	.db #0x00	; 0
	.db #0x00	; 0
	.db #0x00	; 0
	.db #0x00	; 0
	.db #0x00	; 0
	.db #0x00	; 0
	.db #0x00	; 0
	.db #0xB6	; 182
	.db #0xB8	; 184
	.db #0x00	; 0
	.db #0x00	; 0
	.db #0x00	; 0
	.db #0x00	; 0
	.db #0x00	; 0
	.db #0x00	; 0
	.db #0x00	; 0
	.db #0x00	; 0
	.db #0x00	; 0
	.db #0x00	; 0
	.db #0x92	; 146
	.db #0xDA	; 218
	.db #0x6D	; 109	m
	.db #0x6D	; 109	m
	.db #0xB8	; 184
	.db #0x00	; 0
	.db #0x00	; 0
	.db #0x00	; 0
	.db #0x00	; 0
	.db #0x00	; 0
	.db #0x00	; 0
	.db #0x00	; 0
	.db #0x00	; 0
	.db #0xDA	; 218
	.db #0xDA	; 218
	.db #0xDA	; 218
	.db #0xB6	; 182
	.db #0x91	; 145
	.db #0x49	; 73	I
	.db #0x00	; 0
	.db #0x00	; 0
	.db #0x00	; 0
	.db #0x00	; 0
	.db #0x00	; 0
	.db #0x00	; 0
	.db #0x21	; 33
	.db #0x21	; 33
	.db #0x42	; 66	B
	.db #0xDA	; 218
	.db #0xDA	; 218
	.db #0x6D	; 109	m
	.db #0x24	; 36
	.db #0x00	; 0
	.db #0x00	; 0
	.db #0x00	; 0
	.db #0x00	; 0
	.db #0x00	; 0
	.db #0x10	; 16
	.db #0x04	; 4
	.db #0x21	; 33
	.db #0x42	; 66	B
	.db #0x63	; 99	c
	.db #0x91	; 145
	.db #0x49	; 73	I
	.db #0x04	; 4
	.db #0x00	; 0
	.db #0x00	; 0
	.db #0x00	; 0
	.db #0x00	; 0
	.db #0x00	; 0
	.db #0xB2	; 178
	.db #0xFB	; 251
	.db #0x04	; 4
	.db #0x04	; 4
	.db #0x63	; 99	c
	.db #0x24	; 36
	.db #0x24	; 36
	.db #0x00	; 0
	.db #0x00	; 0
	.db #0x00	; 0
	.db #0x00	; 0
	.db #0x00	; 0
	.db #0x00	; 0
	.db #0x04	; 4
	.db #0x04	; 4
	.db #0x1C	; 28
	.db #0x04	; 4
	.db #0x04	; 4
	.db #0x04	; 4
	.db #0x04	; 4
	.db #0x00	; 0
	.db #0x00	; 0
	.db #0x00	; 0
	.db #0x00	; 0
	.db #0x00	; 0
	.db #0x04	; 4
	.db #0x21	; 33
	.db #0x42	; 66	B
	.db #0x63	; 99	c
	.db #0x04	; 4
	.db #0x04	; 4
	.db #0x04	; 4
	.db #0x00	; 0
	.db #0x00	; 0
	.db #0x00	; 0
	.db #0x00	; 0
	.db #0x00	; 0
	.db #0x00	; 0
	.db #0x04	; 4
	.db #0x04	; 4
	.db #0x21	; 33
	.db #0x21	; 33
	.db #0x21	; 33
	.db #0x04	; 4
	.db #0x04	; 4
	.db #0x00	; 0
	.db #0x00	; 0
	.db #0x00	; 0
	.db #0x00	; 0
	.db #0x00	; 0
	.db #0x00	; 0
	.db #0x6D	; 109	m
	.db #0x04	; 4
	.db #0x04	; 4
	.db #0x04	; 4
	.db #0x04	; 4
	.db #0x04	; 4
	.db #0x00	; 0
	.db #0x00	; 0
	.db #0x00	; 0
	.db #0x00	; 0
	.db #0x00	; 0
	.db #0x00	; 0
	.db #0x00	; 0
	.db #0x00	; 0
	.db #0x00	; 0
	.db #0x04	; 4
	.db #0x04	; 4
	.db #0x04	; 4
	.db #0x04	; 4
	.db #0x00	; 0
	.db #0x00	; 0
	.db #0x00	; 0
	.db #0x00	; 0
	.db #0x00	; 0
	.db #0x00	; 0
	.db #0x00	; 0
	.db #0x00	; 0
	.db #0x6D	; 109	m
	.db #0x98	; 152
	.db #0x24	; 36
	.db #0x49	; 73	I
	.db #0x98	; 152
	.db #0x6D	; 109	m
	.db #0x00	; 0
	.db #0x00	; 0
	.db #0x00	; 0
	.db #0x00	; 0
	.db #0x00	; 0
	.db #0x00	; 0
	.db #0x00	; 0
	.db #0xB6	; 182
	.db #0x92	; 146
	.db #0xDA	; 218
	.db #0xDA	; 218
	.db #0x92	; 146
	.db #0xB6	; 182
	.db #0x00	; 0
	.db #0x00	; 0
	.db #0x00	; 0
	.db #0x00	; 0
	.db #0x00	; 0
	.db #0x00	; 0
	.db #0x04	; 4
	.db #0x91	; 145
	.db #0xDA	; 218
	.db #0xDA	; 218
	.db #0xDA	; 218
	.db #0xDA	; 218
	.db #0x92	; 146
	.db #0x04	; 4
	.db #0x00	; 0
	.db #0x00	; 0
	.db #0x00	; 0
	.db #0x00	; 0
	.db #0x00	; 0
	.db #0x04	; 4
	.db #0x6D	; 109	m
	.db #0x21	; 33
	.db #0x41	; 65	A
	.db #0x42	; 66	B
	.db #0x63	; 99	c
	.db #0x6D	; 109	m
	.db #0x04	; 4
	.db #0x00	; 0
	.db #0x00	; 0
	.db #0x00	; 0
	.db #0x00	; 0
	.db #0x00	; 0
	.db #0x00	; 0
	.db #0x24	; 36
	.db #0x41	; 65	A
	.db #0x42	; 66	B
	.db #0x63	; 99	c
	.db #0x42	; 66	B
	.db #0x24	; 36
	.db #0x00	; 0
	.db #0x00	; 0
	.db #0x00	; 0
	.db #0x00	; 0
	.db #0x00	; 0
	.db #0x00	; 0
	.db #0x00	; 0
	.db #0x04	; 4
	.db #0x10	; 16
	.db #0xFB	; 251
	.db #0xD6	; 214
	.db #0x1C	; 28
	.db #0x04	; 4
	.db #0x00	; 0
	.db #0x00	; 0
	.db #0x00	; 0
	.db #0x00	; 0
	.db #0x00	; 0
	.db #0x00	; 0
	.db #0x00	; 0
	.db #0x04	; 4
	.db #0x04	; 4
	.db #0x04	; 4
	.db #0x04	; 4
	.db #0x04	; 4
	.db #0x04	; 4
	.db #0x00	; 0
	.db #0x00	; 0
	.db #0x00	; 0
	.db #0x00	; 0
	.db #0x00	; 0
	.db #0x00	; 0
	.db #0x00	; 0
	.db #0x04	; 4
	.db #0x21	; 33
	.db #0x42	; 66	B
	.db #0x63	; 99	c
	.db #0x21	; 33
	.db #0x04	; 4
	.db #0x00	; 0
	.db #0x00	; 0
	.db #0x00	; 0
	.db #0x00	; 0
	.db #0x00	; 0
	.db #0x00	; 0
	.db #0x04	; 4
	.db #0x04	; 4
	.db #0x04	; 4
	.db #0x21	; 33
	.db #0x21	; 33
	.db #0x04	; 4
	.db #0x04	; 4
	.db #0x04	; 4
	.db #0x00	; 0
	.db #0x00	; 0
	.db #0x00	; 0
	.db #0x00	; 0
	.db #0x00	; 0
	.db #0x04	; 4
	.db #0x04	; 4
	.db #0x04	; 4
	.db #0x04	; 4
	.db #0x04	; 4
	.db #0x04	; 4
	.db #0x04	; 4
	.db #0x04	; 4
	.db #0x00	; 0
	.db #0x00	; 0
	.db #0x00	; 0
	.db #0x00	; 0
	.db #0x00	; 0
	.db #0x00	; 0
	.db #0x04	; 4
	.db #0x6D	; 109	m
	.db #0x04	; 4
	.db #0x04	; 4
	.db #0x04	; 4
	.db #0x04	; 4
	.db #0x00	; 0
	.db #0x00	; 0
	.db #0x00	; 0
	.db #0x00	; 0
	.db #0x00	; 0
	.db #0x00	; 0
	.db #0x00	; 0
	.db #0x00	; 0
	.db #0x49	; 73	I
	.db #0x98	; 152
	.db #0x6D	; 109	m
	.db #0x00	; 0
	.db #0x00	; 0
	.db #0x00	; 0
	.db #0x00	; 0
	.db #0x00	; 0
	.db #0x00	; 0
	.db #0x00	; 0
	.db #0x00	; 0
	.db #0x6D	; 109	m
	.db #0x98	; 152
	.db #0x49	; 73	I
	.db #0xDA	; 218
	.db #0x92	; 146
	.db #0x00	; 0
	.db #0x00	; 0
	.db #0x00	; 0
	.db #0x00	; 0
	.db #0x00	; 0
	.db #0x00	; 0
	.db #0x00	; 0
	.db #0x00	; 0
	.db #0x92	; 146
	.db #0x92	; 146
	.db #0xDA	; 218
	.db #0xDA	; 218
	.db #0xDA	; 218
	.db #0x6D	; 109	m
	.db #0x00	; 0
	.db #0x00	; 0
	.db #0x00	; 0
	.db #0x00	; 0
	.db #0x00	; 0
	.db #0x00	; 0
	.db #0x00	; 0
	.db #0x04	; 4
	.db #0x91	; 145
	.db #0x6D	; 109	m
	.db #0x41	; 65	A
	.db #0x42	; 66	B
	.db #0x42	; 66	B
	.db #0x04	; 4
	.db #0x00	; 0
	.db #0x00	; 0
	.db #0x00	; 0
	.db #0x00	; 0
	.db #0x00	; 0
	.db #0x00	; 0
	.db #0x04	; 4
	.db #0x6D	; 109	m
	.db #0x41	; 65	A
	.db #0x42	; 66	B
	.db #0x63	; 99	c
	.db #0x1C	; 28
	.db #0x04	; 4
	.db #0x00	; 0
	.db #0x00	; 0
	.db #0x00	; 0
	.db #0x00	; 0
	.db #0x00	; 0
	.db #0x00	; 0
	.db #0x00	; 0
	.db #0x24	; 36
	.db #0x10	; 16
	.db #0xFB	; 251
	.db #0xD6	; 214
	.db #0x04	; 4
	.db #0x04	; 4
	.db #0x04	; 4
	.db #0x00	; 0
	.db #0x00	; 0
	.db #0x00	; 0
	.db #0x00	; 0
	.db #0x00	; 0
	.db #0x00	; 0
	.db #0x04	; 4
	.db #0x04	; 4
	.db #0x04	; 4
	.db #0x04	; 4
	.db #0x63	; 99	c
	.db #0x21	; 33
	.db #0x04	; 4
	.db #0x00	; 0
	.db #0x00	; 0
	.db #0x00	; 0
	.db #0x00	; 0
	.db #0x00	; 0
	.db #0x00	; 0
	.db #0x00	; 0
	.db #0x04	; 4
	.db #0x04	; 4
	.db #0x63	; 99	c
	.db #0x42	; 66	B
	.db #0x21	; 33
	.db #0x04	; 4
	.db #0x04	; 4
	.db #0x00	; 0
	.db #0x00	; 0
	.db #0x00	; 0
	.db #0x00	; 0
	.db #0x00	; 0
	.db #0x00	; 0
	.db #0x00	; 0
	.db #0x04	; 4
	.db #0x04	; 4
	.db #0x42	; 66	B
	.db #0x04	; 4
	.db #0x04	; 4
	.db #0x04	; 4
	.db #0x00	; 0
	.db #0x00	; 0
	.db #0x00	; 0
	.db #0x00	; 0
	.db #0x00	; 0
	.db #0x00	; 0
	.db #0x00	; 0
	.db #0x04	; 4
	.db #0x04	; 4
	.db #0x04	; 4
	.db #0x04	; 4
	.db #0x04	; 4
	.db #0x00	; 0
	.db #0x00	; 0
	.db #0x00	; 0
	.db #0x00	; 0
	.db #0x00	; 0
	.db #0x00	; 0
	.db #0x00	; 0
	.db #0x00	; 0
	.db #0x00	; 0
	.db #0x04	; 4
	.db #0x6D	; 109	m
	.db #0x00	; 0
	.db #0x00	; 0
	.db #0x00	; 0
	.db #0x00	; 0
	.db #0x00	; 0
	.db #0x00	; 0
	.db #0x00	; 0
	.db #0x00	; 0
	.db #0x00	; 0
	.db #0x00	; 0
	.db #0x00	; 0
	.db #0x00	; 0
	.db #0x00	; 0
	.db #0x00	; 0
	.db #0x00	; 0
	.db #0x00	; 0
	.db #0x00	; 0
	.db #0x00	; 0
	.db #0x00	; 0
	.db #0x00	; 0
	.db #0x49	; 73	I
	.db #0xBC	; 188
	.db #0x6D	; 109	m
	.db #0x6D	; 109	m
	.db #0x00	; 0
	.db #0x00	; 0
	.db #0x00	; 0
	.db #0x00	; 0
	.db #0x00	; 0
	.db #0x00	; 0
	.db #0x00	; 0
	.db #0x00	; 0
	.db #0x49	; 73	I
	.db #0xDA	; 218
	.db #0xDA	; 218
	.db #0xB6	; 182
	.db #0x21	; 33
	.db #0x49	; 73	I
	.db #0x00	; 0
	.db #0x00	; 0
	.db #0x00	; 0
	.db #0x00	; 0
	.db #0x00	; 0
	.db #0x00	; 0
	.db #0x00	; 0
	.db #0xFC	; 252
	.db #0xDA	; 218
	.db #0xDA	; 218
	.db #0x41	; 65	A
	.db #0x62	; 98	b
	.db #0x41	; 65	A
	.db #0x04	; 4
	.db #0x1C	; 28
	.db #0x00	; 0
	.db #0x00	; 0
	.db #0x00	; 0
	.db #0x00	; 0
	.db #0x00	; 0
	.db #0x6D	; 109	m
	.db #0xDA	; 218
	.db #0x49	; 73	I
	.db #0x63	; 99	c
	.db #0x04	; 4
	.db #0x04	; 4
	.db #0xFB	; 251
	.db #0x04	; 4
	.db #0x04	; 4
	.db #0x00	; 0
	.db #0x00	; 0
	.db #0x00	; 0
	.db #0x00	; 0
	.db #0x04	; 4
	.db #0x6D	; 109	m
	.db #0x04	; 4
	.db #0x04	; 4
	.db #0x04	; 4
	.db #0x10	; 16
	.db #0x04	; 4
	.db #0x21	; 33
	.db #0x04	; 4
	.db #0x04	; 4
	.db #0x00	; 0
	.db #0x00	; 0
	.db #0x00	; 0
	.db #0x00	; 0
	.db #0x04	; 4
	.db #0x49	; 73	I
	.db #0x04	; 4
	.db #0x04	; 4
	.db #0x21	; 33
	.db #0x63	; 99	c
	.db #0x41	; 65	A
	.db #0x21	; 33
	.db #0x04	; 4
	.db #0x04	; 4
	.db #0x00	; 0
	.db #0x00	; 0
	.db #0x00	; 0
	.db #0x00	; 0
	.db #0x00	; 0
	.db #0x04	; 4
	.db #0x04	; 4
	.db #0x41	; 65	A
	.db #0x42	; 66	B
	.db #0x04	; 4
	.db #0x04	; 4
	.db #0x04	; 4
	.db #0x04	; 4
	.db #0x00	; 0
	.db #0x00	; 0
	.db #0x00	; 0
	.db #0x00	; 0
	.db #0x00	; 0
	.db #0x00	; 0
	.db #0x04	; 4
	.db #0x04	; 4
	.db #0x04	; 4
	.db #0x04	; 4
	.db #0x04	; 4
	.db #0x04	; 4
	.db #0x00	; 0
	.db #0x00	; 0
	.db #0x00	; 0
	.db #0x00	; 0
	.db #0x00	; 0
	.db #0x00	; 0
	.db #0x00	; 0
	.db #0x00	; 0
	.db #0x04	; 4
	.db #0x04	; 4
	.db #0x04	; 4
	.db #0x6D	; 109	m
	.db #0x00	; 0
	.db #0x00	; 0
	.db #0x00	; 0
	.db #0x00	; 0
	.db #0x00	; 0
	.db #0x00	; 0
	.db #0x00	; 0
	.db #0x00	; 0
	.db #0x00	; 0
	.db #0x00	; 0
	.db #0x00	; 0
	.db #0x00	; 0
	.db #0x00	; 0
	.db #0x00	; 0
	.db #0x00	; 0
	.db #0x00	; 0
	.db #0x00	; 0
	.db #0x00	; 0
	.db #0x00	; 0
	.db #0x00	; 0
	.db #0x00	; 0
	.db #0x00	; 0
	.db #0x00	; 0
	.db #0x00	; 0
	.db #0x00	; 0
	.db #0x00	; 0
	.db #0x00	; 0
	.db #0x00	; 0
	.db #0x00	; 0
	.db #0x00	; 0
	.db #0x00	; 0
	.db #0x49	; 73	I
	.db #0x49	; 73	I
	.db #0x00	; 0
	.db #0x00	; 0
	.db #0x00	; 0
	.db #0x00	; 0
	.db #0x00	; 0
	.db #0x00	; 0
	.db #0x00	; 0
	.db #0x00	; 0
	.db #0x00	; 0
	.db #0x00	; 0
	.db #0x6D	; 109	m
	.db #0xBC	; 188
	.db #0x91	; 145
	.db #0x49	; 73	I
	.db #0x21	; 33
	.db #0x04	; 4
	.db #0x1C	; 28
	.db #0x00	; 0
	.db #0x00	; 0
	.db #0x00	; 0
	.db #0x00	; 0
	.db #0x00	; 0
	.db #0x6D	; 109	m
	.db #0x49	; 73	I
	.db #0xDA	; 218
	.db #0xDA	; 218
	.db #0x21	; 33
	.db #0x21	; 33
	.db #0xFB	; 251
	.db #0x04	; 4
	.db #0x04	; 4
	.db #0x00	; 0
	.db #0x00	; 0
	.db #0x00	; 0
	.db #0x00	; 0
	.db #0xFC	; 252
	.db #0xDA	; 218
	.db #0xDA	; 218
	.db #0x21	; 33
	.db #0x42	; 66	B
	.db #0x10	; 16
	.db #0x04	; 4
	.db #0x04	; 4
	.db #0x21	; 33
	.db #0x04	; 4
	.db #0x04	; 4
	.db #0x00	; 0
	.db #0x00	; 0
	.db #0x04	; 4
	.db #0x49	; 73	I
	.db #0x6D	; 109	m
	.db #0x21	; 33
	.db #0x42	; 66	B
	.db #0x04	; 4
	.db #0x04	; 4
	.db #0x04	; 4
	.db #0x42	; 66	B
	.db #0x21	; 33
	.db #0x04	; 4
	.db #0x04	; 4
	.db #0x00	; 0
	.db #0x04	; 4
	.db #0x04	; 4
	.db #0x6D	; 109	m
	.db #0x49	; 73	I
	.db #0x04	; 4
	.db #0x04	; 4
	.db #0x21	; 33
	.db #0x42	; 66	B
	.db #0x63	; 99	c
	.db #0x04	; 4
	.db #0x04	; 4
	.db #0x04	; 4
	.db #0x00	; 0
	.db #0x00	; 0
	.db #0x00	; 0
	.db #0x04	; 4
	.db #0x04	; 4
	.db #0x04	; 4
	.db #0x04	; 4
	.db #0x04	; 4
	.db #0x21	; 33
	.db #0x04	; 4
	.db #0x04	; 4
	.db #0x04	; 4
	.db #0x04	; 4
	.db #0x00	; 0
	.db #0x00	; 0
	.db #0x00	; 0
	.db #0x00	; 0
	.db #0x00	; 0
	.db #0x00	; 0
	.db #0x04	; 4
	.db #0x04	; 4
	.db #0x04	; 4
	.db #0x04	; 4
	.db #0x04	; 4
	.db #0x6D	; 109	m
	.db #0x00	; 0
	.db #0x00	; 0
	.db #0x00	; 0
	.db #0x00	; 0
	.db #0x00	; 0
	.db #0x00	; 0
	.db #0x00	; 0
	.db #0x00	; 0
	.db #0x00	; 0
	.db #0x04	; 4
	.db #0x04	; 4
	.db #0x04	; 4
	.db #0x00	; 0
	.db #0x00	; 0
	.db #0x00	; 0
	.db #0x00	; 0
	.db #0x00	; 0
	.db #0x00	; 0
	.db #0x00	; 0
	.db #0x00	; 0
	.db #0x00	; 0
	.db #0x00	; 0
	.db #0x00	; 0
	.db #0x00	; 0
	.db #0x00	; 0
	.db #0x00	; 0
	.db #0x00	; 0
	.db #0x00	; 0
	.db #0x00	; 0
	.db #0x00	; 0
	.db #0x00	; 0
	.db #0x00	; 0
	.db #0x00	; 0
	.db #0x00	; 0
	.db #0x00	; 0
	.db #0x00	; 0
	.db #0x00	; 0
	.db #0x00	; 0
	.db #0x00	; 0
	.db #0x00	; 0
	.db #0x00	; 0
	.db #0x00	; 0
	.db #0x00	; 0
	.db #0x00	; 0
	.db #0x00	; 0
	.db #0x00	; 0
	.db #0x00	; 0
	.db #0x00	; 0
	.db #0x00	; 0
	.db #0x00	; 0
	.db #0x00	; 0
	.db #0x00	; 0
	.db #0x00	; 0
	.db #0x00	; 0
	.db #0x00	; 0
	.db #0x00	; 0
	.db #0x00	; 0
	.db #0x00	; 0
	.db #0x00	; 0
	.db #0x21	; 33
	.db #0x1C	; 28
	.db #0x04	; 4
	.db #0x04	; 4
	.db #0x04	; 4
	.db #0x00	; 0
	.db #0x00	; 0
	.db #0x00	; 0
	.db #0x6D	; 109	m
	.db #0xBC	; 188
	.db #0x92	; 146
	.db #0x91	; 145
	.db #0x21	; 33
	.db #0x21	; 33
	.db #0xFB	; 251
	.db #0x04	; 4
	.db #0x21	; 33
	.db #0x04	; 4
	.db #0x04	; 4
	.db #0x00	; 0
	.db #0x00	; 0
	.db #0x49	; 73	I
	.db #0xDA	; 218
	.db #0xB6	; 182
	.db #0xDA	; 218
	.db #0x42	; 66	B
	.db #0x63	; 99	c
	.db #0xD6	; 214
	.db #0x04	; 4
	.db #0x42	; 66	B
	.db #0x21	; 33
	.db #0x04	; 4
	.db #0x00	; 0
	.db #0x00	; 0
	.db #0x6D	; 109	m
	.db #0xFC	; 252
	.db #0x92	; 146
	.db #0xDA	; 218
	.db #0x42	; 66	B
	.db #0x42	; 66	B
	.db #0x10	; 16
	.db #0x04	; 4
	.db #0x63	; 99	c
	.db #0x21	; 33
	.db #0x04	; 4
	.db #0x00	; 0
	.db #0x00	; 0
	.db #0x91	; 145
	.db #0xDA	; 218
	.db #0xDA	; 218
	.db #0xDA	; 218
	.db #0x92	; 146
	.db #0x04	; 4
	.db #0x04	; 4
	.db #0x04	; 4
	.db #0x04	; 4
	.db #0x04	; 4
	.db #0x6D	; 109	m
	.db #0x00	; 0
	.db #0x00	; 0
	.db #0x6D	; 109	m
	.db #0x24	; 36
	.db #0x24	; 36
	.db #0x6D	; 109	m
	.db #0x6D	; 109	m
	.db #0x49	; 73	I
	.db #0x04	; 4
	.db #0x04	; 4
	.db #0x24	; 36
	.db #0x24	; 36
	.db #0x04	; 4
	.db #0x00	; 0
	.db #0x00	; 0
	.db #0x00	; 0
	.db #0x04	; 4
	.db #0x04	; 4
	.db #0x00	; 0
	.db #0x00	; 0
	.db #0x00	; 0
	.db #0x00	; 0
	.db #0x00	; 0
	.db #0x04	; 4
	.db #0x04	; 4
	.db #0x00	; 0
	.db #0x00	; 0
	.db #0x00	; 0
	.db #0x00	; 0
	.db #0x00	; 0
	.db #0x00	; 0
	.db #0x00	; 0
	.db #0x00	; 0
	.db #0x00	; 0
	.db #0x00	; 0
	.db #0x00	; 0
	.db #0x00	; 0
	.db #0x00	; 0
	.db #0x00	; 0
	.db #0x00	; 0
	.db #0x00	; 0
	.db #0x00	; 0
	.db #0x00	; 0
	.db #0x00	; 0
	.db #0x00	; 0
	.db #0x00	; 0
	.db #0x00	; 0
	.db #0x00	; 0
	.db #0x00	; 0
	.db #0x00	; 0
	.db #0x00	; 0
	.db #0x00	; 0
	.db #0x00	; 0
	.db #0x00	; 0
	.db #0x00	; 0
	.db #0x00	; 0
	.db #0x00	; 0
	.db #0x00	; 0
	.db #0x00	; 0
	.db #0x00	; 0
	.db #0x00	; 0
	.db #0x00	; 0
	.db #0x00	; 0
	.db #0x00	; 0
	.db #0x00	; 0
	.db #0x00	; 0
	.db #0x00	; 0
	.db #0x00	; 0
	.db #0x00	; 0
	.db #0x00	; 0
	.db #0x00	; 0
	.db #0x00	; 0
	.db #0x00	; 0
	.db #0x04	; 4
	.db #0x04	; 4
	.db #0x04	; 4
	.db #0x00	; 0
	.db #0x00	; 0
	.db #0x00	; 0
	.db #0x00	; 0
	.db #0x00	; 0
	.db #0x00	; 0
	.db #0x00	; 0
	.db #0x00	; 0
	.db #0x21	; 33
	.db #0x1C	; 28
	.db #0x21	; 33
	.db #0x21	; 33
	.db #0x04	; 4
	.db #0x04	; 4
	.db #0x00	; 0
	.db #0x00	; 0
	.db #0x00	; 0
	.db #0x00	; 0
	.db #0x00	; 0
	.db #0x04	; 4
	.db #0x21	; 33
	.db #0x21	; 33
	.db #0xFB	; 251
	.db #0xAE	; 174
	.db #0x63	; 99	c
	.db #0x21	; 33
	.db #0x04	; 4
	.db #0x04	; 4
	.db #0x6D	; 109	m
	.db #0x00	; 0
	.db #0x00	; 0
	.db #0x92	; 146
	.db #0x91	; 145
	.db #0x42	; 66	B
	.db #0x63	; 99	c
	.db #0x04	; 4
	.db #0x1C	; 28
	.db #0x04	; 4
	.db #0x42	; 66	B
	.db #0x04	; 4
	.db #0x04	; 4
	.db #0x00	; 0
	.db #0x00	; 0
	.db #0xB6	; 182
	.db #0xB6	; 182
	.db #0xDA	; 218
	.db #0xB6	; 182
	.db #0x42	; 66	B
	.db #0x42	; 66	B
	.db #0x04	; 4
	.db #0x04	; 4
	.db #0x04	; 4
	.db #0x04	; 4
	.db #0x04	; 4
	.db #0x00	; 0
	.db #0x00	; 0
	.db #0xBC	; 188
	.db #0xDA	; 218
	.db #0xDA	; 218
	.db #0xDA	; 218
	.db #0xB6	; 182
	.db #0x04	; 4
	.db #0x04	; 4
	.db #0x04	; 4
	.db #0x04	; 4
	.db #0x04	; 4
	.db #0x00	; 0
	.db #0x00	; 0
	.db #0x00	; 0
	.db #0x6D	; 109	m
	.db #0x24	; 36
	.db #0xB6	; 182
	.db #0x92	; 146
	.db #0x92	; 146
	.db #0x6D	; 109	m
	.db #0x49	; 73	I
	.db #0x04	; 4
	.db #0x00	; 0
	.db #0x00	; 0
	.db #0x00	; 0
	.db #0x00	; 0
	.db #0x00	; 0
	.db #0x00	; 0
	.db #0x6D	; 109	m
	.db #0xFC	; 252
	.db #0x6D	; 109	m
	.db #0x04	; 4
	.db #0x49	; 73	I
	.db #0x00	; 0
	.db #0x00	; 0
	.db #0x00	; 0
	.db #0x00	; 0
	.db #0x00	; 0
	.db #0x00	; 0
	.db #0x00	; 0
	.db #0x00	; 0
	.db #0x00	; 0
	.db #0x49	; 73	I
	.db #0x04	; 4
	.db #0x00	; 0
	.db #0x00	; 0
	.db #0x00	; 0
	.db #0x00	; 0
	.db #0x00	; 0
	.db #0x00	; 0
	.db #0x00	; 0
	.db #0x00	; 0
	.db #0x00	; 0
	.db #0x00	; 0
	.db #0x00	; 0
	.db #0x00	; 0
	.db #0x00	; 0
	.db #0x00	; 0
	.db #0x00	; 0
	.db #0x00	; 0
	.db #0x00	; 0
	.db #0x00	; 0
	.db #0x00	; 0
	.db #0x00	; 0
	.db #0x00	; 0
	.db #0x00	; 0
	.db #0x00	; 0
	.db #0x00	; 0
	.db #0x00	; 0
	.db #0x00	; 0
	.db #0x00	; 0
	.db #0x00	; 0
	.db #0x00	; 0
	.db #0x00	; 0
	.db #0x00	; 0
	.db #0x00	; 0
	.db #0x00	; 0
	.db #0x00	; 0
	.db #0x00	; 0
	.db #0x00	; 0
	.db #0x00	; 0
	.db #0x00	; 0
	.db #0x00	; 0
	.db #0x00	; 0
	.db #0x04	; 4
	.db #0x04	; 4
	.db #0x04	; 4
	.db #0x04	; 4
	.db #0x00	; 0
	.db #0x00	; 0
	.db #0x00	; 0
	.db #0x00	; 0
	.db #0x00	; 0
	.db #0x00	; 0
	.db #0x00	; 0
	.db #0x00	; 0
	.db #0x04	; 4
	.db #0x1C	; 28
	.db #0x21	; 33
	.db #0x21	; 33
	.db #0x04	; 4
	.db #0x04	; 4
	.db #0x6D	; 109	m
	.db #0x00	; 0
	.db #0x00	; 0
	.db #0x00	; 0
	.db #0x00	; 0
	.db #0x00	; 0
	.db #0x04	; 4
	.db #0x42	; 66	B
	.db #0xB2	; 178
	.db #0xD6	; 214
	.db #0x42	; 66	B
	.db #0x21	; 33
	.db #0x04	; 4
	.db #0x04	; 4
	.db #0x00	; 0
	.db #0x00	; 0
	.db #0x00	; 0
	.db #0x00	; 0
	.db #0x6D	; 109	m
	.db #0x04	; 4
	.db #0x21	; 33
	.db #0x42	; 66	B
	.db #0x04	; 4
	.db #0x10	; 16
	.db #0x21	; 33
	.db #0x04	; 4
	.db #0x04	; 4
	.db #0x00	; 0
	.db #0x00	; 0
	.db #0x00	; 0
	.db #0x6D	; 109	m
	.db #0x92	; 146
	.db #0xB6	; 182
	.db #0x92	; 146
	.db #0x41	; 65	A
	.db #0x63	; 99	c
	.db #0x04	; 4
	.db #0x04	; 4
	.db #0x04	; 4
	.db #0x04	; 4
	.db #0x00	; 0
	.db #0x00	; 0
	.db #0x6D	; 109	m
	.db #0xFC	; 252
	.db #0x92	; 146
	.db #0xB6	; 182
	.db #0xDA	; 218
	.db #0x92	; 146
	.db #0x04	; 4
	.db #0x04	; 4
	.db #0x04	; 4
	.db #0x04	; 4
	.db #0x00	; 0
	.db #0x00	; 0
	.db #0x00	; 0
	.db #0x24	; 36
	.db #0x49	; 73	I
	.db #0xB6	; 182
	.db #0xDA	; 218
	.db #0xDA	; 218
	.db #0xDA	; 218
	.db #0x49	; 73	I
	.db #0x04	; 4
	.db #0x00	; 0
	.db #0x00	; 0
	.db #0x00	; 0
	.db #0x00	; 0
	.db #0x00	; 0
	.db #0x00	; 0
	.db #0x6D	; 109	m
	.db #0x49	; 73	I
	.db #0xFC	; 252
	.db #0xDA	; 218
	.db #0x49	; 73	I
	.db #0x24	; 36
	.db #0x00	; 0
	.db #0x00	; 0
	.db #0x00	; 0
	.db #0x00	; 0
	.db #0x00	; 0
	.db #0x00	; 0
	.db #0x00	; 0
	.db #0x00	; 0
	.db #0x6D	; 109	m
	.db #0x6D	; 109	m
	.db #0x04	; 4
	.db #0x04	; 4
	.db #0x00	; 0
	.db #0x00	; 0
	.db #0x00	; 0
	.db #0x00	; 0
	.db #0x00	; 0
	.db #0x00	; 0
	.db #0x00	; 0
	.db #0x00	; 0
	.db #0x00	; 0
	.db #0x00	; 0
	.db #0x24	; 36
	.db #0x00	; 0
	.db #0x00	; 0
	.db #0x00	; 0
	.db #0x00	; 0
	.db #0x00	; 0
	.db #0x00	; 0
	.db #0x00	; 0
	.db #0x00	; 0
	.db #0x00	; 0
	.db #0x00	; 0
	.db #0x00	; 0
	.db #0x00	; 0
	.db #0x00	; 0
	.db #0x00	; 0
	.db #0x00	; 0
	.db #0x00	; 0
	.db #0x00	; 0
	.db #0x00	; 0
	.db #0x00	; 0
	.db #0x00	; 0
	.db #0x00	; 0
	.db #0x00	; 0
	.db #0x00	; 0
	.db #0x00	; 0
	.db #0x00	; 0
	.db #0x00	; 0
	.db #0x00	; 0
	.db #0x04	; 4
	.db #0x04	; 4
	.db #0x04	; 4
	.db #0x6D	; 109	m
	.db #0x00	; 0
	.db #0x00	; 0
	.db #0x00	; 0
	.db #0x00	; 0
	.db #0x00	; 0
	.db #0x00	; 0
	.db #0x00	; 0
	.db #0x00	; 0
	.db #0x04	; 4
	.db #0x21	; 33
	.db #0x21	; 33
	.db #0x04	; 4
	.db #0x04	; 4
	.db #0x04	; 4
	.db #0x00	; 0
	.db #0x00	; 0
	.db #0x00	; 0
	.db #0x00	; 0
	.db #0x00	; 0
	.db #0x00	; 0
	.db #0x04	; 4
	.db #0x1C	; 28
	.db #0xFB	; 251
	.db #0x63	; 99	c
	.db #0x42	; 66	B
	.db #0x21	; 33
	.db #0x04	; 4
	.db #0x00	; 0
	.db #0x00	; 0
	.db #0x00	; 0
	.db #0x00	; 0
	.db #0x00	; 0
	.db #0x00	; 0
	.db #0x04	; 4
	.db #0x41	; 65	A
	.db #0xAE	; 174
	.db #0xD6	; 214
	.db #0x10	; 16
	.db #0x04	; 4
	.db #0x04	; 4
	.db #0x00	; 0
	.db #0x00	; 0
	.db #0x00	; 0
	.db #0x00	; 0
	.db #0x00	; 0
	.db #0x04	; 4
	.db #0x04	; 4
	.db #0x21	; 33
	.db #0x42	; 66	B
	.db #0x62	; 98	b
	.db #0x63	; 99	c
	.db #0x04	; 4
	.db #0x00	; 0
	.db #0x00	; 0
	.db #0x00	; 0
	.db #0x00	; 0
	.db #0x00	; 0
	.db #0x00	; 0
	.db #0x91	; 145
	.db #0xDA	; 218
	.db #0xDA	; 218
	.db #0xDA	; 218
	.db #0x42	; 66	B
	.db #0x04	; 4
	.db #0x04	; 4
	.db #0x00	; 0
	.db #0x00	; 0
	.db #0x00	; 0
	.db #0x00	; 0
	.db #0x00	; 0
	.db #0x24	; 36
	.db #0xB6	; 182
	.db #0xDA	; 218
	.db #0xDA	; 218
	.db #0xDA	; 218
	.db #0xDA	; 218
	.db #0x6D	; 109	m
	.db #0x00	; 0
	.db #0x00	; 0
	.db #0x00	; 0
	.db #0x00	; 0
	.db #0x00	; 0
	.db #0x00	; 0
	.db #0x04	; 4
	.db #0xFC	; 252
	.db #0x92	; 146
	.db #0xB6	; 182
	.db #0xB6	; 182
	.db #0xDA	; 218
	.db #0x24	; 36
	.db #0x00	; 0
	.db #0x00	; 0
	.db #0x00	; 0
	.db #0x00	; 0
	.db #0x00	; 0
	.db #0x00	; 0
	.db #0x00	; 0
	.db #0x24	; 36
	.db #0x6D	; 109	m
	.db #0x6D	; 109	m
	.db #0xFC	; 252
	.db #0xB6	; 182
	.db #0x04	; 4
	.db #0x00	; 0
	.db #0x00	; 0
	.db #0x00	; 0
	.db #0x00	; 0
	.db #0x00	; 0
	.db #0x00	; 0
	.db #0x00	; 0
	.db #0x00	; 0
	.db #0x24	; 36
	.db #0x49	; 73	I
	.db #0x24	; 36
	.db #0x00	; 0
	.db #0x00	; 0
	.db #0x00	; 0
	.db #0x00	; 0
	.db #0x00	; 0
	.db #0x00	; 0
	.db #0x00	; 0
	.db #0x00	; 0
	.db #0x00	; 0
	.db #0x00	; 0
	.db #0x00	; 0
	.db #0x00	; 0
	.db #0x00	; 0
	.db #0x00	; 0
	.db #0x00	; 0
	.db #0x00	; 0
	.db #0x00	; 0
	.db #0x00	; 0
	.db #0x00	; 0
	.db #0x00	; 0
	.db #0x00	; 0
	.db #0x00	; 0
	.db #0x00	; 0
	.db #0x04	; 4
	.db #0x04	; 4
	.db #0x04	; 4
	.db #0x04	; 4
	.db #0x6D	; 109	m
	.db #0x04	; 4
	.db #0x00	; 0
	.db #0x00	; 0
	.db #0x00	; 0
	.db #0x00	; 0
	.db #0x00	; 0
	.db #0x00	; 0
	.db #0x04	; 4
	.db #0x04	; 4
	.db #0x04	; 4
	.db #0x21	; 33
	.db #0x21	; 33
	.db #0x04	; 4
	.db #0x04	; 4
	.db #0x04	; 4
	.db #0x00	; 0
	.db #0x00	; 0
	.db #0x00	; 0
	.db #0x00	; 0
	.db #0x00	; 0
	.db #0x04	; 4
	.db #0x04	; 4
	.db #0x21	; 33
	.db #0x42	; 66	B
	.db #0x63	; 99	c
	.db #0x21	; 33
	.db #0x04	; 4
	.db #0x04	; 4
	.db #0x00	; 0
	.db #0x00	; 0
	.db #0x00	; 0
	.db #0x00	; 0
	.db #0x00	; 0
	.db #0x00	; 0
	.db #0x04	; 4
	.db #0x1C	; 28
	.db #0xFB	; 251
	.db #0xD6	; 214
	.db #0x10	; 16
	.db #0x04	; 4
	.db #0x00	; 0
	.db #0x00	; 0
	.db #0x00	; 0
	.db #0x00	; 0
	.db #0x00	; 0
	.db #0x00	; 0
	.db #0x00	; 0
	.db #0x04	; 4
	.db #0x41	; 65	A
	.db #0x42	; 66	B
	.db #0x62	; 98	b
	.db #0x63	; 99	c
	.db #0x04	; 4
	.db #0x00	; 0
	.db #0x00	; 0
	.db #0x00	; 0
	.db #0x00	; 0
	.db #0x00	; 0
	.db #0x00	; 0
	.db #0x00	; 0
	.db #0x04	; 4
	.db #0x21	; 33
	.db #0x42	; 66	B
	.db #0x63	; 99	c
	.db #0x42	; 66	B
	.db #0x04	; 4
	.db #0x00	; 0
	.db #0x00	; 0
	.db #0x00	; 0
	.db #0x00	; 0
	.db #0x00	; 0
	.db #0x00	; 0
	.db #0x04	; 4
	.db #0x6D	; 109	m
	.db #0xDA	; 218
	.db #0xDA	; 218
	.db #0xDA	; 218
	.db #0xDA	; 218
	.db #0x6D	; 109	m
	.db #0x04	; 4
	.db #0x00	; 0
	.db #0x00	; 0
	.db #0x00	; 0
	.db #0x00	; 0
	.db #0x00	; 0
	.db #0x04	; 4
	.db #0x91	; 145
	.db #0xB6	; 182
	.db #0xDA	; 218
	.db #0xDA	; 218
	.db #0xB6	; 182
	.db #0x92	; 146
	.db #0x04	; 4
	.db #0x00	; 0
	.db #0x00	; 0
	.db #0x00	; 0
	.db #0x00	; 0
	.db #0x00	; 0
	.db #0x00	; 0
	.db #0xB6	; 182
	.db #0xFC	; 252
	.db #0x24	; 36
	.db #0x24	; 36
	.db #0xFC	; 252
	.db #0xB6	; 182
	.db #0x00	; 0
	.db #0x00	; 0
	.db #0x00	; 0
	.db #0x00	; 0
	.db #0x00	; 0
	.db #0x00	; 0
	.db #0x00	; 0
	.db #0x24	; 36
	.db #0x6D	; 109	m
	.db #0x6D	; 109	m
	.db #0x6D	; 109	m
	.db #0x6D	; 109	m
	.db #0x24	; 36
	.db #0x00	; 0
	.db #0x00	; 0
	.db #0x00	; 0
	.db #0x00	; 0
	.db #0x00	; 0
	.db #0x00	; 0
	.db #0x00	; 0
	.db #0x00	; 0
	.db #0x00	; 0
	.db #0x00	; 0
	.db #0x00	; 0
	.db #0x00	; 0
	.db #0x00	; 0
	.db #0x00	; 0
	.db #0x00	; 0
	.db #0x00	; 0
	.db #0x00	; 0
	.db #0x00	; 0
	.db #0x00	; 0
	.db #0x00	; 0
	.db #0x00	; 0
	.db #0x04	; 4
	.db #0x04	; 4
	.db #0x6D	; 109	m
	.db #0x00	; 0
	.db #0x00	; 0
	.db #0x00	; 0
	.db #0x00	; 0
	.db #0x00	; 0
	.db #0x00	; 0
	.db #0x00	; 0
	.db #0x00	; 0
	.db #0x04	; 4
	.db #0x04	; 4
	.db #0x04	; 4
	.db #0x21	; 33
	.db #0x04	; 4
	.db #0x04	; 4
	.db #0x00	; 0
	.db #0x00	; 0
	.db #0x00	; 0
	.db #0x00	; 0
	.db #0x00	; 0
	.db #0x00	; 0
	.db #0x00	; 0
	.db #0x04	; 4
	.db #0x21	; 33
	.db #0x42	; 66	B
	.db #0x63	; 99	c
	.db #0x21	; 33
	.db #0x1C	; 28
	.db #0x04	; 4
	.db #0x00	; 0
	.db #0x00	; 0
	.db #0x00	; 0
	.db #0x00	; 0
	.db #0x00	; 0
	.db #0x00	; 0
	.db #0x04	; 4
	.db #0x21	; 33
	.db #0x1C	; 28
	.db #0xFB	; 251
	.db #0xD6	; 214
	.db #0x63	; 99	c
	.db #0x04	; 4
	.db #0x00	; 0
	.db #0x00	; 0
	.db #0x00	; 0
	.db #0x00	; 0
	.db #0x00	; 0
	.db #0x00	; 0
	.db #0x04	; 4
	.db #0x04	; 4
	.db #0x41	; 65	A
	.db #0x42	; 66	B
	.db #0x62	; 98	b
	.db #0x42	; 66	B
	.db #0x6D	; 109	m
	.db #0x24	; 36
	.db #0x00	; 0
	.db #0x00	; 0
	.db #0x00	; 0
	.db #0x00	; 0
	.db #0x00	; 0
	.db #0x00	; 0
	.db #0x04	; 4
	.db #0x21	; 33
	.db #0x42	; 66	B
	.db #0x63	; 99	c
	.db #0xDA	; 218
	.db #0xDA	; 218
	.db #0x6D	; 109	m
	.db #0x24	; 36
	.db #0x00	; 0
	.db #0x00	; 0
	.db #0x00	; 0
	.db #0x00	; 0
	.db #0x00	; 0
	.db #0x04	; 4
	.db #0x6D	; 109	m
	.db #0xDA	; 218
	.db #0xDA	; 218
	.db #0xDA	; 218
	.db #0xDA	; 218
	.db #0xDA	; 218
	.db #0x49	; 73	I
	.db #0x00	; 0
	.db #0x00	; 0
	.db #0x00	; 0
	.db #0x00	; 0
	.db #0x00	; 0
	.db #0x00	; 0
	.db #0x49	; 73	I
	.db #0x91	; 145
	.db #0x92	; 146
	.db #0x6D	; 109	m
	.db #0x24	; 36
	.db #0xFC	; 252
	.db #0x24	; 36
	.db #0x00	; 0
	.db #0x00	; 0
	.db #0x00	; 0
	.db #0x00	; 0
	.db #0x00	; 0
	.db #0x00	; 0
	.db #0x24	; 36
	.db #0x04	; 4
	.db #0xFC	; 252
	.db #0x6D	; 109	m
	.db #0x91	; 145
	.db #0x24	; 36
	.db #0x00	; 0
	.db #0x00	; 0
	.db #0x00	; 0
	.db #0x00	; 0
	.db #0x00	; 0
	.db #0x00	; 0
	.db #0x00	; 0
	.db #0x00	; 0
	.db #0x04	; 4
	.db #0x49	; 73	I
	.db #0x24	; 36
	.db #0x00	; 0
	.db #0x00	; 0
	.db #0x00	; 0
	.db #0x00	; 0
	.db #0x00	; 0
	.db #0x00	; 0
	.db #0x00	; 0
	.db #0x00	; 0
	.db #0x00	; 0
	.db #0x00	; 0
	.db #0x00	; 0
	.db #0x00	; 0
	.db #0x00	; 0
	.db #0x00	; 0
	.db #0x00	; 0
	.db #0x00	; 0
	.db #0x00	; 0
	.db #0x00	; 0
	.db #0x00	; 0
	.db #0x00	; 0
	.db #0x00	; 0
	.db #0x6D	; 109	m
	.db #0x00	; 0
	.db #0x00	; 0
	.db #0x00	; 0
	.db #0x00	; 0
	.db #0x00	; 0
	.db #0x00	; 0
	.db #0x00	; 0
	.db #0x00	; 0
	.db #0x00	; 0
	.db #0x00	; 0
	.db #0x00	; 0
	.db #0x04	; 4
	.db #0x04	; 4
	.db #0x21	; 33
	.db #0x21	; 33
	.db #0x10	; 16
	.db #0x00	; 0
	.db #0x00	; 0
	.db #0x00	; 0
	.db #0x00	; 0
	.db #0x00	; 0
	.db #0x00	; 0
	.db #0x00	; 0
	.db #0x04	; 4
	.db #0x04	; 4
	.db #0x21	; 33
	.db #0x42	; 66	B
	.db #0xD6	; 214
	.db #0xB2	; 178
	.db #0x63	; 99	c
	.db #0x04	; 4
	.db #0x00	; 0
	.db #0x00	; 0
	.db #0x00	; 0
	.db #0x00	; 0
	.db #0x00	; 0
	.db #0x04	; 4
	.db #0x04	; 4
	.db #0x21	; 33
	.db #0x1C	; 28
	.db #0x04	; 4
	.db #0x62	; 98	b
	.db #0x42	; 66	B
	.db #0x49	; 73	I
	.db #0x6D	; 109	m
	.db #0x00	; 0
	.db #0x00	; 0
	.db #0x00	; 0
	.db #0x00	; 0
	.db #0x04	; 4
	.db #0x04	; 4
	.db #0x04	; 4
	.db #0x21	; 33
	.db #0x42	; 66	B
	.db #0x42	; 66	B
	.db #0x92	; 146
	.db #0xB6	; 182
	.db #0x92	; 146
	.db #0x6D	; 109	m
	.db #0x00	; 0
	.db #0x00	; 0
	.db #0x00	; 0
	.db #0x00	; 0
	.db #0x04	; 4
	.db #0x04	; 4
	.db #0x04	; 4
	.db #0x21	; 33
	.db #0x92	; 146
	.db #0xDA	; 218
	.db #0xB6	; 182
	.db #0x92	; 146
	.db #0xBC	; 188
	.db #0x6D	; 109	m
	.db #0x00	; 0
	.db #0x00	; 0
	.db #0x00	; 0
	.db #0x00	; 0
	.db #0x04	; 4
	.db #0x04	; 4
	.db #0x49	; 73	I
	.db #0xDA	; 218
	.db #0xDA	; 218
	.db #0xDA	; 218
	.db #0x24	; 36
	.db #0x49	; 73	I
	.db #0x24	; 36
	.db #0x00	; 0
	.db #0x00	; 0
	.db #0x00	; 0
	.db #0x00	; 0
	.db #0x00	; 0
	.db #0x00	; 0
	.db #0x04	; 4
	.db #0x49	; 73	I
	.db #0xDA	; 218
	.db #0xFC	; 252
	.db #0x6D	; 109	m
	.db #0x24	; 36
	.db #0x00	; 0
	.db #0x00	; 0
	.db #0x00	; 0
	.db #0x00	; 0
	.db #0x00	; 0
	.db #0x00	; 0
	.db #0x00	; 0
	.db #0x00	; 0
	.db #0x04	; 4
	.db #0xB6	; 182
	.db #0x49	; 73	I
	.db #0x24	; 36
	.db #0x00	; 0
	.db #0x00	; 0
	.db #0x00	; 0
	.db #0x00	; 0
	.db #0x00	; 0
	.db #0x00	; 0
	.db #0x00	; 0
	.db #0x00	; 0
	.db #0x00	; 0
	.db #0x00	; 0
	.db #0x00	; 0
	.db #0x24	; 36
	.db #0x00	; 0
	.db #0x00	; 0
	.db #0x00	; 0
	.db #0x00	; 0
	.db #0x00	; 0
	.db #0x00	; 0
	.db #0x00	; 0
	.db #0x00	; 0
	.db #0x00	; 0
	.db #0x00	; 0
	.db #0x00	; 0
	.db #0x00	; 0
	.db #0x00	; 0
	.db #0x00	; 0
	.db #0x00	; 0
	.db #0x00	; 0
	.db #0x00	; 0
	.db #0x00	; 0
	.db #0x00	; 0
	.db #0x00	; 0
	.db #0x00	; 0
	.db #0x00	; 0
	.db #0x00	; 0
	.db #0x00	; 0
	.db #0x00	; 0
	.db #0x00	; 0
	.db #0x00	; 0
	.db #0x00	; 0
	.db #0x00	; 0
	.db #0x00	; 0
	.db #0x00	; 0
	.db #0x6D	; 109	m
	.db #0x04	; 4
	.db #0x04	; 4
	.db #0x04	; 4
	.db #0x04	; 4
	.db #0x10	; 16
	.db #0x00	; 0
	.db #0x00	; 0
	.db #0x00	; 0
	.db #0x00	; 0
	.db #0x00	; 0
	.db #0x00	; 0
	.db #0x24	; 36
	.db #0x04	; 4
	.db #0x21	; 33
	.db #0x21	; 33
	.db #0x04	; 4
	.db #0xFB	; 251
	.db #0x21	; 33
	.db #0x21	; 33
	.db #0x24	; 36
	.db #0x24	; 36
	.db #0x00	; 0
	.db #0x00	; 0
	.db #0x00	; 0
	.db #0x00	; 0
	.db #0x04	; 4
	.db #0x42	; 66	B
	.db #0x63	; 99	c
	.db #0x04	; 4
	.db #0xD6	; 214
	.db #0x42	; 66	B
	.db #0x42	; 66	B
	.db #0x91	; 145
	.db #0x92	; 146
	.db #0xBC	; 188
	.db #0x49	; 73	I
	.db #0x00	; 0
	.db #0x00	; 0
	.db #0x04	; 4
	.db #0x21	; 33
	.db #0x42	; 66	B
	.db #0x04	; 4
	.db #0x1C	; 28
	.db #0x42	; 66	B
	.db #0x42	; 66	B
	.db #0xDA	; 218
	.db #0xB6	; 182
	.db #0x24	; 36
	.db #0x49	; 73	I
	.db #0x00	; 0
	.db #0x00	; 0
	.db #0x04	; 4
	.db #0x04	; 4
	.db #0x04	; 4
	.db #0x04	; 4
	.db #0x04	; 4
	.db #0x04	; 4
	.db #0xB6	; 182
	.db #0xDA	; 218
	.db #0xDA	; 218
	.db #0xFC	; 252
	.db #0x6D	; 109	m
	.db #0x00	; 0
	.db #0x00	; 0
	.db #0x04	; 4
	.db #0x04	; 4
	.db #0x04	; 4
	.db #0x04	; 4
	.db #0x49	; 73	I
	.db #0x6D	; 109	m
	.db #0xB6	; 182
	.db #0xDA	; 218
	.db #0xDA	; 218
	.db #0x91	; 145
	.db #0x6D	; 109	m
	.db #0x00	; 0
	.db #0x00	; 0
	.db #0x00	; 0
	.db #0x04	; 4
	.db #0x04	; 4
	.db #0x00	; 0
	.db #0x00	; 0
	.db #0x49	; 73	I
	.db #0x49	; 73	I
	.db #0x24	; 36
	.db #0x24	; 36
	.db #0x6D	; 109	m
	.db #0x49	; 73	I
	.db #0x00	; 0
	.db #0x00	; 0
	.db #0x00	; 0
	.db #0x00	; 0
	.db #0x00	; 0
	.db #0x00	; 0
	.db #0x00	; 0
	.db #0x00	; 0
	.db #0x00	; 0
	.db #0x04	; 4
	.db #0x04	; 4
	.db #0x00	; 0
	.db #0x00	; 0
	.db #0x00	; 0
	.db #0x00	; 0
	.db #0x00	; 0
	.db #0x00	; 0
	.db #0x00	; 0
	.db #0x00	; 0
	.db #0x00	; 0
	.db #0x00	; 0
	.db #0x00	; 0
	.db #0x00	; 0
	.db #0x00	; 0
	.db #0x00	; 0
	.db #0x00	; 0
	.db #0x00	; 0
_car2:
	.db #0x00	; 0
	.db #0x00	; 0
	.db #0x00	; 0
	.db #0x00	; 0
	.db #0x00	; 0
	.db #0x00	; 0
	.db #0x00	; 0
	.db #0x00	; 0
	.db #0x00	; 0
	.db #0x00	; 0
	.db #0x00	; 0
	.db #0x00	; 0
	.db #0x00	; 0
	.db #0x00	; 0
	.db #0x00	; 0
	.db #0x00	; 0
	.db #0x42	; 66	B
	.db #0xDC	; 220
	.db #0x63	; 99	c
	.db #0x00	; 0
	.db #0x00	; 0
	.db #0x00	; 0
	.db #0x00	; 0
	.db #0x00	; 0
	.db #0x00	; 0
	.db #0x00	; 0
	.db #0x00	; 0
	.db #0x14	; 20
	.db #0x42	; 66	B
	.db #0x42	; 66	B
	.db #0xB8	; 184
	.db #0x63	; 99	c
	.db #0xBC	; 188
	.db #0xB8	; 184
	.db #0x98	; 152
	.db #0x74	; 116	t
	.db #0xBC	; 188
	.db #0x50	; 80	P
	.db #0x00	; 0
	.db #0xB2	; 178
	.db #0x74	; 116	t
	.db #0x42	; 66	B
	.db #0x41	; 65	A
	.db #0xB8	; 184
	.db #0x62	; 98	b
	.db #0xB8	; 184
	.db #0x04	; 4
	.db #0x04	; 4
	.db #0x04	; 4
	.db #0x04	; 4
	.db #0x74	; 116	t
	.db #0x00	; 0
	.db #0x00	; 0
	.db #0x74	; 116	t
	.db #0x42	; 66	B
	.db #0x21	; 33
	.db #0x74	; 116	t
	.db #0x42	; 66	B
	.db #0xB8	; 184
	.db #0x49	; 73	I
	.db #0x49	; 73	I
	.db #0x24	; 36
	.db #0x24	; 36
	.db #0x04	; 4
	.db #0x00	; 0
	.db #0x00	; 0
	.db #0x98	; 152
	.db #0x42	; 66	B
	.db #0x21	; 33
	.db #0x50	; 80	P
	.db #0x21	; 33
	.db #0x74	; 116	t
	.db #0x24	; 36
	.db #0x24	; 36
	.db #0x24	; 36
	.db #0x24	; 36
	.db #0xBC	; 188
	.db #0x00	; 0
	.db #0x00	; 0
	.db #0x18	; 24
	.db #0xBC	; 188
	.db #0xB8	; 184
	.db #0x74	; 116	t
	.db #0x74	; 116	t
	.db #0x74	; 116	t
	.db #0x98	; 152
	.db #0xBC	; 188
	.db #0xB8	; 184
	.db #0xFC	; 252
	.db #0x74	; 116	t
	.db #0x00	; 0
	.db #0x00	; 0
	.db #0x98	; 152
	.db #0x24	; 36
	.db #0x24	; 36
	.db #0x50	; 80	P
	.db #0x74	; 116	t
	.db #0x74	; 116	t
	.db #0x50	; 80	P
	.db #0x24	; 36
	.db #0x24	; 36
	.db #0x74	; 116	t
	.db #0x50	; 80	P
	.db #0x00	; 0
	.db #0x00	; 0
	.db #0x00	; 0
	.db #0x04	; 4
	.db #0x04	; 4
	.db #0x00	; 0
	.db #0x00	; 0
	.db #0x00	; 0
	.db #0x00	; 0
	.db #0x04	; 4
	.db #0x04	; 4
	.db #0x00	; 0
	.db #0x00	; 0
	.db #0x00	; 0
	.db #0x00	; 0
	.db #0x00	; 0
	.db #0x00	; 0
	.db #0x00	; 0
	.db #0x00	; 0
	.db #0x00	; 0
	.db #0x00	; 0
	.db #0x00	; 0
	.db #0x00	; 0
	.db #0x00	; 0
	.db #0x00	; 0
	.db #0x00	; 0
	.db #0x00	; 0
	.db #0x00	; 0
	.db #0x00	; 0
	.db #0x00	; 0
	.db #0x00	; 0
	.db #0x00	; 0
	.db #0x00	; 0
	.db #0x00	; 0
	.db #0x00	; 0
	.db #0x00	; 0
	.db #0x00	; 0
	.db #0x00	; 0
	.db #0x00	; 0
	.db #0x00	; 0
	.db #0x00	; 0
	.db #0x00	; 0
	.db #0x00	; 0
	.db #0x00	; 0
	.db #0x00	; 0
	.db #0x00	; 0
	.db #0x00	; 0
	.db #0x00	; 0
	.db #0x00	; 0
	.db #0x00	; 0
	.db #0x00	; 0
	.db #0x00	; 0
	.db #0x00	; 0
	.db #0x00	; 0
	.db #0x00	; 0
	.db #0x00	; 0
	.db #0x00	; 0
	.db #0x00	; 0
	.db #0x00	; 0
	.db #0x00	; 0
	.db #0x50	; 80	P
	.db #0x74	; 116	t
	.db #0xBC	; 188
	.db #0x00	; 0
	.db #0x00	; 0
	.db #0x00	; 0
	.db #0x00	; 0
	.db #0x00	; 0
	.db #0x42	; 66	B
	.db #0x98	; 152
	.db #0x63	; 99	c
	.db #0x50	; 80	P
	.db #0x74	; 116	t
	.db #0x98	; 152
	.db #0x04	; 4
	.db #0x04	; 4
	.db #0x50	; 80	P
	.db #0x00	; 0
	.db #0x00	; 0
	.db #0x00	; 0
	.db #0x74	; 116	t
	.db #0x42	; 66	B
	.db #0xDC	; 220
	.db #0x63	; 99	c
	.db #0x62	; 98	b
	.db #0x74	; 116	t
	.db #0x04	; 4
	.db #0x24	; 36
	.db #0x24	; 36
	.db #0x04	; 4
	.db #0x00	; 0
	.db #0x00	; 0
	.db #0x14	; 20
	.db #0x42	; 66	B
	.db #0x41	; 65	A
	.db #0x21	; 33
	.db #0xB8	; 184
	.db #0x62	; 98	b
	.db #0xBC	; 188
	.db #0x49	; 73	I
	.db #0x24	; 36
	.db #0x74	; 116	t
	.db #0xBC	; 188
	.db #0x74	; 116	t
	.db #0x00	; 0
	.db #0xB2	; 178
	.db #0x74	; 116	t
	.db #0x42	; 66	B
	.db #0x21	; 33
	.db #0x98	; 152
	.db #0x21	; 33
	.db #0xB8	; 184
	.db #0xBC	; 188
	.db #0xBC	; 188
	.db #0x98	; 152
	.db #0xFC	; 252
	.db #0x50	; 80	P
	.db #0x00	; 0
	.db #0x24	; 36
	.db #0x74	; 116	t
	.db #0x42	; 66	B
	.db #0x98	; 152
	.db #0x74	; 116	t
	.db #0x98	; 152
	.db #0x98	; 152
	.db #0x74	; 116	t
	.db #0x04	; 4
	.db #0x50	; 80	P
	.db #0x74	; 116	t
	.db #0x00	; 0
	.db #0x00	; 0
	.db #0x00	; 0
	.db #0x1C	; 28
	.db #0xBC	; 188
	.db #0xB8	; 184
	.db #0x98	; 152
	.db #0x50	; 80	P
	.db #0x74	; 116	t
	.db #0x50	; 80	P
	.db #0x04	; 4
	.db #0x04	; 4
	.db #0x00	; 0
	.db #0x00	; 0
	.db #0x00	; 0
	.db #0x00	; 0
	.db #0x24	; 36
	.db #0x98	; 152
	.db #0x04	; 4
	.db #0x50	; 80	P
	.db #0x00	; 0
	.db #0x00	; 0
	.db #0x00	; 0
	.db #0x00	; 0
	.db #0x00	; 0
	.db #0x00	; 0
	.db #0x00	; 0
	.db #0x00	; 0
	.db #0x00	; 0
	.db #0x00	; 0
	.db #0x00	; 0
	.db #0x04	; 4
	.db #0x04	; 4
	.db #0x00	; 0
	.db #0x00	; 0
	.db #0x00	; 0
	.db #0x00	; 0
	.db #0x00	; 0
	.db #0x00	; 0
	.db #0x00	; 0
	.db #0x00	; 0
	.db #0x00	; 0
	.db #0x00	; 0
	.db #0x00	; 0
	.db #0x00	; 0
	.db #0x00	; 0
	.db #0x00	; 0
	.db #0x00	; 0
	.db #0x00	; 0
	.db #0x00	; 0
	.db #0x00	; 0
	.db #0x00	; 0
	.db #0x00	; 0
	.db #0x00	; 0
	.db #0x00	; 0
	.db #0x00	; 0
	.db #0x00	; 0
	.db #0x00	; 0
	.db #0x00	; 0
	.db #0x00	; 0
	.db #0x00	; 0
	.db #0xB8	; 184
	.db #0xBC	; 188
	.db #0x00	; 0
	.db #0x00	; 0
	.db #0x00	; 0
	.db #0x00	; 0
	.db #0x00	; 0
	.db #0x00	; 0
	.db #0x00	; 0
	.db #0x00	; 0
	.db #0x00	; 0
	.db #0x00	; 0
	.db #0xB8	; 184
	.db #0x04	; 4
	.db #0x04	; 4
	.db #0x24	; 36
	.db #0x00	; 0
	.db #0x00	; 0
	.db #0x00	; 0
	.db #0x00	; 0
	.db #0x00	; 0
	.db #0x00	; 0
	.db #0x00	; 0
	.db #0x00	; 0
	.db #0x74	; 116	t
	.db #0x04	; 4
	.db #0x04	; 4
	.db #0x49	; 73	I
	.db #0x24	; 36
	.db #0x50	; 80	P
	.db #0x00	; 0
	.db #0x00	; 0
	.db #0x00	; 0
	.db #0x00	; 0
	.db #0x00	; 0
	.db #0x98	; 152
	.db #0x41	; 65	A
	.db #0x63	; 99	c
	.db #0xDC	; 220
	.db #0x49	; 73	I
	.db #0x24	; 36
	.db #0x04	; 4
	.db #0x04	; 4
	.db #0xFC	; 252
	.db #0x00	; 0
	.db #0x00	; 0
	.db #0x00	; 0
	.db #0xB8	; 184
	.db #0x63	; 99	c
	.db #0xDC	; 220
	.db #0x62	; 98	b
	.db #0x62	; 98	b
	.db #0xBC	; 188
	.db #0x04	; 4
	.db #0x04	; 4
	.db #0xBC	; 188
	.db #0x98	; 152
	.db #0x00	; 0
	.db #0x00	; 0
	.db #0x50	; 80	P
	.db #0x63	; 99	c
	.db #0x42	; 66	B
	.db #0x42	; 66	B
	.db #0xBC	; 188
	.db #0x41	; 65	A
	.db #0xB8	; 184
	.db #0x74	; 116	t
	.db #0x98	; 152
	.db #0xBC	; 188
	.db #0x04	; 4
	.db #0x00	; 0
	.db #0x00	; 0
	.db #0x18	; 24
	.db #0x74	; 116	t
	.db #0x42	; 66	B
	.db #0x42	; 66	B
	.db #0x21	; 33
	.db #0x98	; 152
	.db #0x74	; 116	t
	.db #0x74	; 116	t
	.db #0x50	; 80	P
	.db #0x04	; 4
	.db #0x00	; 0
	.db #0x00	; 0
	.db #0x00	; 0
	.db #0xB2	; 178
	.db #0x74	; 116	t
	.db #0x98	; 152
	.db #0x41	; 65	A
	.db #0x74	; 116	t
	.db #0x74	; 116	t
	.db #0x74	; 116	t
	.db #0x00	; 0
	.db #0x00	; 0
	.db #0x00	; 0
	.db #0x00	; 0
	.db #0x00	; 0
	.db #0x00	; 0
	.db #0x00	; 0
	.db #0x00	; 0
	.db #0x1C	; 28
	.db #0x74	; 116	t
	.db #0xBC	; 188
	.db #0x98	; 152
	.db #0x04	; 4
	.db #0x00	; 0
	.db #0x00	; 0
	.db #0x00	; 0
	.db #0x00	; 0
	.db #0x00	; 0
	.db #0x00	; 0
	.db #0x00	; 0
	.db #0x00	; 0
	.db #0x00	; 0
	.db #0x74	; 116	t
	.db #0x74	; 116	t
	.db #0x04	; 4
	.db #0x00	; 0
	.db #0x00	; 0
	.db #0x00	; 0
	.db #0x00	; 0
	.db #0x00	; 0
	.db #0x00	; 0
	.db #0x00	; 0
	.db #0x00	; 0
	.db #0x00	; 0
	.db #0x00	; 0
	.db #0x00	; 0
	.db #0x00	; 0
	.db #0x00	; 0
	.db #0x00	; 0
	.db #0x00	; 0
	.db #0x00	; 0
	.db #0x00	; 0
	.db #0x00	; 0
	.db #0x00	; 0
	.db #0x00	; 0
	.db #0x00	; 0
	.db #0x00	; 0
	.db #0x00	; 0
	.db #0x00	; 0
	.db #0x00	; 0
	.db #0x74	; 116	t
	.db #0x04	; 4
	.db #0x00	; 0
	.db #0x00	; 0
	.db #0x00	; 0
	.db #0x00	; 0
	.db #0x00	; 0
	.db #0x00	; 0
	.db #0x00	; 0
	.db #0x00	; 0
	.db #0x00	; 0
	.db #0x00	; 0
	.db #0xB8	; 184
	.db #0x04	; 4
	.db #0x24	; 36
	.db #0x04	; 4
	.db #0x24	; 36
	.db #0x00	; 0
	.db #0x00	; 0
	.db #0x00	; 0
	.db #0x00	; 0
	.db #0x00	; 0
	.db #0x00	; 0
	.db #0x00	; 0
	.db #0xBC	; 188
	.db #0x04	; 4
	.db #0x24	; 36
	.db #0x24	; 36
	.db #0x04	; 4
	.db #0xBC	; 188
	.db #0x00	; 0
	.db #0x00	; 0
	.db #0x00	; 0
	.db #0x00	; 0
	.db #0x00	; 0
	.db #0x00	; 0
	.db #0x00	; 0
	.db #0x98	; 152
	.db #0x04	; 4
	.db #0x49	; 73	I
	.db #0x24	; 36
	.db #0x04	; 4
	.db #0xFC	; 252
	.db #0x98	; 152
	.db #0x00	; 0
	.db #0x00	; 0
	.db #0x00	; 0
	.db #0x00	; 0
	.db #0x00	; 0
	.db #0x74	; 116	t
	.db #0xDC	; 220
	.db #0xBC	; 188
	.db #0x24	; 36
	.db #0x04	; 4
	.db #0x98	; 152
	.db #0xBC	; 188
	.db #0x04	; 4
	.db #0x00	; 0
	.db #0x00	; 0
	.db #0x00	; 0
	.db #0x00	; 0
	.db #0x50	; 80	P
	.db #0x74	; 116	t
	.db #0x62	; 98	b
	.db #0x63	; 99	c
	.db #0xBC	; 188
	.db #0xB8	; 184
	.db #0x74	; 116	t
	.db #0x04	; 4
	.db #0x00	; 0
	.db #0x00	; 0
	.db #0x00	; 0
	.db #0x00	; 0
	.db #0x00	; 0
	.db #0x98	; 152
	.db #0x74	; 116	t
	.db #0xDC	; 220
	.db #0xBC	; 188
	.db #0x63	; 99	c
	.db #0x41	; 65	A
	.db #0x74	; 116	t
	.db #0x00	; 0
	.db #0x00	; 0
	.db #0x00	; 0
	.db #0x00	; 0
	.db #0x00	; 0
	.db #0x74	; 116	t
	.db #0xB8	; 184
	.db #0x42	; 66	B
	.db #0x42	; 66	B
	.db #0x42	; 66	B
	.db #0xB8	; 184
	.db #0x74	; 116	t
	.db #0x50	; 80	P
	.db #0x00	; 0
	.db #0x00	; 0
	.db #0x00	; 0
	.db #0x00	; 0
	.db #0x00	; 0
	.db #0x50	; 80	P
	.db #0x18	; 24
	.db #0x63	; 99	c
	.db #0x42	; 66	B
	.db #0x42	; 66	B
	.db #0x21	; 33
	.db #0x98	; 152
	.db #0x00	; 0
	.db #0x00	; 0
	.db #0x00	; 0
	.db #0x00	; 0
	.db #0x00	; 0
	.db #0x00	; 0
	.db #0x00	; 0
	.db #0xB2	; 178
	.db #0x74	; 116	t
	.db #0x98	; 152
	.db #0x42	; 66	B
	.db #0x74	; 116	t
	.db #0x04	; 4
	.db #0x00	; 0
	.db #0x00	; 0
	.db #0x00	; 0
	.db #0x00	; 0
	.db #0x00	; 0
	.db #0x00	; 0
	.db #0x00	; 0
	.db #0x00	; 0
	.db #0x00	; 0
	.db #0x74	; 116	t
	.db #0x74	; 116	t
	.db #0x18	; 24
	.db #0x00	; 0
	.db #0x00	; 0
	.db #0x00	; 0
	.db #0x00	; 0
	.db #0x00	; 0
	.db #0x00	; 0
	.db #0x00	; 0
	.db #0x00	; 0
	.db #0x00	; 0
	.db #0xBC	; 188
	.db #0x74	; 116	t
	.db #0x04	; 4
	.db #0x04	; 4
	.db #0x74	; 116	t
	.db #0xBC	; 188
	.db #0x00	; 0
	.db #0x00	; 0
	.db #0x00	; 0
	.db #0x00	; 0
	.db #0x00	; 0
	.db #0x00	; 0
	.db #0x98	; 152
	.db #0xB8	; 184
	.db #0x04	; 4
	.db #0x24	; 36
	.db #0x24	; 36
	.db #0x04	; 4
	.db #0xFC	; 252
	.db #0x98	; 152
	.db #0x00	; 0
	.db #0x00	; 0
	.db #0x00	; 0
	.db #0x00	; 0
	.db #0x00	; 0
	.db #0xBC	; 188
	.db #0xBC	; 188
	.db #0x04	; 4
	.db #0x49	; 73	I
	.db #0x24	; 36
	.db #0x04	; 4
	.db #0xBC	; 188
	.db #0xBC	; 188
	.db #0x00	; 0
	.db #0x00	; 0
	.db #0x00	; 0
	.db #0x00	; 0
	.db #0x00	; 0
	.db #0x04	; 4
	.db #0x98	; 152
	.db #0x04	; 4
	.db #0x49	; 73	I
	.db #0x24	; 36
	.db #0x04	; 4
	.db #0x98	; 152
	.db #0x04	; 4
	.db #0x00	; 0
	.db #0x00	; 0
	.db #0x00	; 0
	.db #0x00	; 0
	.db #0x00	; 0
	.db #0x00	; 0
	.db #0x74	; 116	t
	.db #0xDC	; 220
	.db #0xBC	; 188
	.db #0xBC	; 188
	.db #0xB8	; 184
	.db #0x74	; 116	t
	.db #0x00	; 0
	.db #0x00	; 0
	.db #0x00	; 0
	.db #0x00	; 0
	.db #0x00	; 0
	.db #0x00	; 0
	.db #0x00	; 0
	.db #0x74	; 116	t
	.db #0x62	; 98	b
	.db #0x63	; 99	c
	.db #0x63	; 99	c
	.db #0x41	; 65	A
	.db #0x74	; 116	t
	.db #0x00	; 0
	.db #0x00	; 0
	.db #0x00	; 0
	.db #0x00	; 0
	.db #0x00	; 0
	.db #0x00	; 0
	.db #0x98	; 152
	.db #0x74	; 116	t
	.db #0xDC	; 220
	.db #0xBC	; 188
	.db #0xBC	; 188
	.db #0xB8	; 184
	.db #0x74	; 116	t
	.db #0x98	; 152
	.db #0x00	; 0
	.db #0x00	; 0
	.db #0x00	; 0
	.db #0x00	; 0
	.db #0x00	; 0
	.db #0xBC	; 188
	.db #0x98	; 152
	.db #0x42	; 66	B
	.db #0x42	; 66	B
	.db #0x42	; 66	B
	.db #0x21	; 33
	.db #0x98	; 152
	.db #0xBC	; 188
	.db #0x00	; 0
	.db #0x00	; 0
	.db #0x00	; 0
	.db #0x00	; 0
	.db #0x00	; 0
	.db #0x04	; 4
	.db #0xB8	; 184
	.db #0x63	; 99	c
	.db #0x42	; 66	B
	.db #0x42	; 66	B
	.db #0x41	; 65	A
	.db #0x74	; 116	t
	.db #0x04	; 4
	.db #0x00	; 0
	.db #0x00	; 0
	.db #0x00	; 0
	.db #0x00	; 0
	.db #0x00	; 0
	.db #0x00	; 0
	.db #0x18	; 24
	.db #0x74	; 116	t
	.db #0x98	; 152
	.db #0x98	; 152
	.db #0x74	; 116	t
	.db #0x18	; 24
	.db #0x00	; 0
	.db #0x00	; 0
	.db #0x00	; 0
	.db #0x00	; 0
	.db #0x00	; 0
	.db #0x00	; 0
	.db #0x00	; 0
	.db #0x00	; 0
	.db #0xB2	; 178
	.db #0x00	; 0
	.db #0x00	; 0
	.db #0x00	; 0
	.db #0x00	; 0
	.db #0x00	; 0
	.db #0x00	; 0
	.db #0x00	; 0
	.db #0x00	; 0
	.db #0x00	; 0
	.db #0x00	; 0
	.db #0x00	; 0
	.db #0x00	; 0
	.db #0x04	; 4
	.db #0x74	; 116	t
	.db #0x00	; 0
	.db #0x00	; 0
	.db #0x00	; 0
	.db #0x00	; 0
	.db #0x00	; 0
	.db #0x00	; 0
	.db #0x00	; 0
	.db #0x00	; 0
	.db #0x00	; 0
	.db #0x00	; 0
	.db #0x04	; 4
	.db #0x24	; 36
	.db #0x04	; 4
	.db #0xB8	; 184
	.db #0x00	; 0
	.db #0x00	; 0
	.db #0x00	; 0
	.db #0x00	; 0
	.db #0x00	; 0
	.db #0x00	; 0
	.db #0x00	; 0
	.db #0x00	; 0
	.db #0xBC	; 188
	.db #0x04	; 4
	.db #0x24	; 36
	.db #0x24	; 36
	.db #0x04	; 4
	.db #0xBC	; 188
	.db #0x00	; 0
	.db #0x00	; 0
	.db #0x00	; 0
	.db #0x00	; 0
	.db #0x00	; 0
	.db #0x00	; 0
	.db #0x98	; 152
	.db #0xFC	; 252
	.db #0x04	; 4
	.db #0x24	; 36
	.db #0x49	; 73	I
	.db #0x04	; 4
	.db #0x98	; 152
	.db #0x00	; 0
	.db #0x00	; 0
	.db #0x00	; 0
	.db #0x00	; 0
	.db #0x00	; 0
	.db #0x00	; 0
	.db #0x74	; 116	t
	.db #0xBC	; 188
	.db #0x98	; 152
	.db #0x04	; 4
	.db #0x24	; 36
	.db #0xBC	; 188
	.db #0xDC	; 220
	.db #0x74	; 116	t
	.db #0x00	; 0
	.db #0x00	; 0
	.db #0x00	; 0
	.db #0x00	; 0
	.db #0x00	; 0
	.db #0x04	; 4
	.db #0x50	; 80	P
	.db #0x74	; 116	t
	.db #0xB8	; 184
	.db #0xBC	; 188
	.db #0x63	; 99	c
	.db #0x62	; 98	b
	.db #0x74	; 116	t
	.db #0x50	; 80	P
	.db #0x00	; 0
	.db #0x00	; 0
	.db #0x00	; 0
	.db #0x00	; 0
	.db #0x00	; 0
	.db #0x04	; 4
	.db #0x74	; 116	t
	.db #0x41	; 65	A
	.db #0x63	; 99	c
	.db #0xBC	; 188
	.db #0xDC	; 220
	.db #0x74	; 116	t
	.db #0x98	; 152
	.db #0x50	; 80	P
	.db #0x00	; 0
	.db #0x00	; 0
	.db #0x00	; 0
	.db #0x00	; 0
	.db #0x00	; 0
	.db #0x50	; 80	P
	.db #0x74	; 116	t
	.db #0xB8	; 184
	.db #0x42	; 66	B
	.db #0x42	; 66	B
	.db #0x42	; 66	B
	.db #0xB8	; 184
	.db #0x74	; 116	t
	.db #0x00	; 0
	.db #0x00	; 0
	.db #0x00	; 0
	.db #0x00	; 0
	.db #0x00	; 0
	.db #0x00	; 0
	.db #0x98	; 152
	.db #0x21	; 33
	.db #0x42	; 66	B
	.db #0x42	; 66	B
	.db #0x63	; 99	c
	.db #0x18	; 24
	.db #0x00	; 0
	.db #0x00	; 0
	.db #0x00	; 0
	.db #0x00	; 0
	.db #0x00	; 0
	.db #0x00	; 0
	.db #0x00	; 0
	.db #0x04	; 4
	.db #0x74	; 116	t
	.db #0x42	; 66	B
	.db #0x98	; 152
	.db #0x74	; 116	t
	.db #0x00	; 0
	.db #0x00	; 0
	.db #0x00	; 0
	.db #0x00	; 0
	.db #0x00	; 0
	.db #0x00	; 0
	.db #0x00	; 0
	.db #0x00	; 0
	.db #0x00	; 0
	.db #0x04	; 4
	.db #0x18	; 24
	.db #0xB2	; 178
	.db #0x00	; 0
	.db #0x00	; 0
	.db #0x00	; 0
	.db #0x00	; 0
	.db #0x00	; 0
	.db #0x00	; 0
	.db #0x00	; 0
	.db #0x00	; 0
	.db #0x00	; 0
	.db #0xBC	; 188
	.db #0xB8	; 184
	.db #0x00	; 0
	.db #0x00	; 0
	.db #0x00	; 0
	.db #0x00	; 0
	.db #0x00	; 0
	.db #0x00	; 0
	.db #0x00	; 0
	.db #0x00	; 0
	.db #0x00	; 0
	.db #0x00	; 0
	.db #0x24	; 36
	.db #0x04	; 4
	.db #0x04	; 4
	.db #0xB8	; 184
	.db #0x00	; 0
	.db #0x00	; 0
	.db #0x00	; 0
	.db #0x00	; 0
	.db #0x00	; 0
	.db #0x00	; 0
	.db #0x00	; 0
	.db #0x04	; 4
	.db #0x74	; 116	t
	.db #0x24	; 36
	.db #0x49	; 73	I
	.db #0x04	; 4
	.db #0x04	; 4
	.db #0x74	; 116	t
	.db #0x00	; 0
	.db #0x00	; 0
	.db #0x00	; 0
	.db #0x00	; 0
	.db #0x00	; 0
	.db #0x00	; 0
	.db #0xFC	; 252
	.db #0x04	; 4
	.db #0x04	; 4
	.db #0x24	; 36
	.db #0x49	; 73	I
	.db #0xDC	; 220
	.db #0x63	; 99	c
	.db #0x41	; 65	A
	.db #0x98	; 152
	.db #0x00	; 0
	.db #0x00	; 0
	.db #0x00	; 0
	.db #0x00	; 0
	.db #0x98	; 152
	.db #0xBC	; 188
	.db #0x04	; 4
	.db #0x04	; 4
	.db #0xBC	; 188
	.db #0x62	; 98	b
	.db #0x62	; 98	b
	.db #0xDC	; 220
	.db #0x63	; 99	c
	.db #0xB8	; 184
	.db #0x00	; 0
	.db #0x00	; 0
	.db #0x00	; 0
	.db #0x04	; 4
	.db #0xBC	; 188
	.db #0x98	; 152
	.db #0x74	; 116	t
	.db #0xB8	; 184
	.db #0x41	; 65	A
	.db #0xBC	; 188
	.db #0x42	; 66	B
	.db #0x42	; 66	B
	.db #0x63	; 99	c
	.db #0x50	; 80	P
	.db #0x00	; 0
	.db #0x00	; 0
	.db #0x00	; 0
	.db #0x04	; 4
	.db #0x50	; 80	P
	.db #0x74	; 116	t
	.db #0x74	; 116	t
	.db #0x98	; 152
	.db #0x21	; 33
	.db #0x42	; 66	B
	.db #0x42	; 66	B
	.db #0x74	; 116	t
	.db #0x18	; 24
	.db #0x00	; 0
	.db #0x00	; 0
	.db #0x00	; 0
	.db #0x00	; 0
	.db #0x00	; 0
	.db #0x00	; 0
	.db #0x74	; 116	t
	.db #0x74	; 116	t
	.db #0x74	; 116	t
	.db #0x41	; 65	A
	.db #0x98	; 152
	.db #0x74	; 116	t
	.db #0x00	; 0
	.db #0x00	; 0
	.db #0x00	; 0
	.db #0x00	; 0
	.db #0x00	; 0
	.db #0x00	; 0
	.db #0x00	; 0
	.db #0x00	; 0
	.db #0x98	; 152
	.db #0xBC	; 188
	.db #0x1C	; 28
	.db #0x98	; 152
	.db #0x00	; 0
	.db #0x00	; 0
	.db #0x00	; 0
	.db #0x00	; 0
	.db #0x00	; 0
	.db #0x00	; 0
	.db #0x00	; 0
	.db #0x00	; 0
	.db #0x00	; 0
	.db #0x04	; 4
	.db #0x04	; 4
	.db #0x74	; 116	t
	.db #0xB2	; 178
	.db #0x00	; 0
	.db #0x00	; 0
	.db #0x00	; 0
	.db #0x00	; 0
	.db #0x00	; 0
	.db #0x00	; 0
	.db #0x00	; 0
	.db #0x00	; 0
	.db #0x00	; 0
	.db #0x00	; 0
	.db #0x00	; 0
	.db #0x00	; 0
	.db #0x00	; 0
	.db #0x00	; 0
	.db #0x00	; 0
	.db #0x00	; 0
	.db #0x00	; 0
	.db #0x00	; 0
	.db #0x00	; 0
	.db #0x00	; 0
	.db #0x00	; 0
	.db #0x00	; 0
	.db #0x00	; 0
	.db #0x00	; 0
	.db #0x00	; 0
	.db #0x00	; 0
	.db #0x00	; 0
	.db #0x00	; 0
	.db #0x00	; 0
	.db #0x00	; 0
	.db #0x00	; 0
	.db #0xDC	; 220
	.db #0x74	; 116	t
	.db #0x50	; 80	P
	.db #0x00	; 0
	.db #0x00	; 0
	.db #0x00	; 0
	.db #0x00	; 0
	.db #0x00	; 0
	.db #0x00	; 0
	.db #0x00	; 0
	.db #0x00	; 0
	.db #0x00	; 0
	.db #0x74	; 116	t
	.db #0x04	; 4
	.db #0x04	; 4
	.db #0x98	; 152
	.db #0x74	; 116	t
	.db #0x50	; 80	P
	.db #0x63	; 99	c
	.db #0x98	; 152
	.db #0x42	; 66	B
	.db #0x00	; 0
	.db #0x00	; 0
	.db #0x00	; 0
	.db #0x00	; 0
	.db #0x04	; 4
	.db #0x24	; 36
	.db #0x24	; 36
	.db #0x04	; 4
	.db #0x74	; 116	t
	.db #0x62	; 98	b
	.db #0x63	; 99	c
	.db #0xDC	; 220
	.db #0x42	; 66	B
	.db #0x50	; 80	P
	.db #0x00	; 0
	.db #0x00	; 0
	.db #0x74	; 116	t
	.db #0xBC	; 188
	.db #0x74	; 116	t
	.db #0x24	; 36
	.db #0x49	; 73	I
	.db #0xBC	; 188
	.db #0x62	; 98	b
	.db #0xB8	; 184
	.db #0x21	; 33
	.db #0x41	; 65	A
	.db #0x42	; 66	B
	.db #0x14	; 20
	.db #0x00	; 0
	.db #0x50	; 80	P
	.db #0xFC	; 252
	.db #0x98	; 152
	.db #0xBC	; 188
	.db #0xBC	; 188
	.db #0xB8	; 184
	.db #0x21	; 33
	.db #0x98	; 152
	.db #0x21	; 33
	.db #0x42	; 66	B
	.db #0x74	; 116	t
	.db #0x00	; 0
	.db #0x00	; 0
	.db #0x00	; 0
	.db #0x74	; 116	t
	.db #0x04	; 4
	.db #0x50	; 80	P
	.db #0x74	; 116	t
	.db #0x98	; 152
	.db #0x98	; 152
	.db #0x74	; 116	t
	.db #0x98	; 152
	.db #0x42	; 66	B
	.db #0x74	; 116	t
	.db #0x00	; 0
	.db #0x00	; 0
	.db #0x00	; 0
	.db #0x00	; 0
	.db #0x04	; 4
	.db #0x04	; 4
	.db #0x50	; 80	P
	.db #0x74	; 116	t
	.db #0x50	; 80	P
	.db #0x98	; 152
	.db #0xB8	; 184
	.db #0xBC	; 188
	.db #0x1C	; 28
	.db #0xB2	; 178
	.db #0x00	; 0
	.db #0x00	; 0
	.db #0x00	; 0
	.db #0x00	; 0
	.db #0x00	; 0
	.db #0x00	; 0
	.db #0x00	; 0
	.db #0x00	; 0
	.db #0x04	; 4
	.db #0x50	; 80	P
	.db #0x98	; 152
	.db #0x50	; 80	P
	.db #0x00	; 0
	.db #0x00	; 0
	.db #0x00	; 0
	.db #0x00	; 0
	.db #0x00	; 0
	.db #0x00	; 0
	.db #0x00	; 0
	.db #0x00	; 0
	.db #0x00	; 0
	.db #0x04	; 4
	.db #0x04	; 4
	.db #0x00	; 0
	.db #0x00	; 0
	.db #0x00	; 0
	.db #0x00	; 0
	.db #0x00	; 0
	.db #0x00	; 0
	.db #0x00	; 0
	.db #0x00	; 0
	.db #0x00	; 0
	.db #0x00	; 0
	.db #0x00	; 0
	.db #0x00	; 0
	.db #0x00	; 0
	.db #0x00	; 0
	.db #0x00	; 0
	.db #0x00	; 0
	.db #0x00	; 0
	.db #0x00	; 0
	.db #0x00	; 0
	.db #0x00	; 0
	.db #0x00	; 0
	.db #0x00	; 0
	.db #0x00	; 0
	.db #0x00	; 0
	.db #0x00	; 0
	.db #0x00	; 0
	.db #0x00	; 0
	.db #0x00	; 0
	.db #0x00	; 0
	.db #0x00	; 0
	.db #0x00	; 0
	.db #0x00	; 0
	.db #0x00	; 0
	.db #0x00	; 0
	.db #0x00	; 0
	.db #0x00	; 0
	.db #0x00	; 0
	.db #0x63	; 99	c
	.db #0xDC	; 220
	.db #0x42	; 66	B
	.db #0x00	; 0
	.db #0x00	; 0
	.db #0x00	; 0
	.db #0x00	; 0
	.db #0x50	; 80	P
	.db #0xBC	; 188
	.db #0x74	; 116	t
	.db #0x98	; 152
	.db #0xB8	; 184
	.db #0xBC	; 188
	.db #0x63	; 99	c
	.db #0xB8	; 184
	.db #0x42	; 66	B
	.db #0x42	; 66	B
	.db #0x14	; 20
	.db #0x00	; 0
	.db #0x00	; 0
	.db #0x74	; 116	t
	.db #0x04	; 4
	.db #0x04	; 4
	.db #0x04	; 4
	.db #0x04	; 4
	.db #0xB8	; 184
	.db #0x62	; 98	b
	.db #0xB8	; 184
	.db #0x41	; 65	A
	.db #0x42	; 66	B
	.db #0x74	; 116	t
	.db #0x00	; 0
	.db #0x00	; 0
	.db #0x04	; 4
	.db #0x24	; 36
	.db #0x24	; 36
	.db #0x49	; 73	I
	.db #0x49	; 73	I
	.db #0xB8	; 184
	.db #0x42	; 66	B
	.db #0x74	; 116	t
	.db #0x21	; 33
	.db #0x42	; 66	B
	.db #0x74	; 116	t
	.db #0x00	; 0
	.db #0x00	; 0
	.db #0xBC	; 188
	.db #0x24	; 36
	.db #0x24	; 36
	.db #0x24	; 36
	.db #0x24	; 36
	.db #0x74	; 116	t
	.db #0x21	; 33
	.db #0x50	; 80	P
	.db #0x21	; 33
	.db #0x42	; 66	B
	.db #0x98	; 152
	.db #0x00	; 0
	.db #0x00	; 0
	.db #0x74	; 116	t
	.db #0xFC	; 252
	.db #0xB8	; 184
	.db #0xBC	; 188
	.db #0x98	; 152
	.db #0x74	; 116	t
	.db #0x74	; 116	t
	.db #0x74	; 116	t
	.db #0xB8	; 184
	.db #0xBC	; 188
	.db #0x18	; 24
	.db #0xB2	; 178
	.db #0x00	; 0
	.db #0x50	; 80	P
	.db #0x74	; 116	t
	.db #0x04	; 4
	.db #0x04	; 4
	.db #0x50	; 80	P
	.db #0x74	; 116	t
	.db #0x74	; 116	t
	.db #0x50	; 80	P
	.db #0x04	; 4
	.db #0x04	; 4
	.db #0x98	; 152
	.db #0x00	; 0
	.db #0x00	; 0
	.db #0x00	; 0
	.db #0x00	; 0
	.db #0x04	; 4
	.db #0x04	; 4
	.db #0x00	; 0
	.db #0x00	; 0
	.db #0x00	; 0
	.db #0x00	; 0
	.db #0x04	; 4
	.db #0x04	; 4
	.db #0x00	; 0
	.db #0x00	; 0
	.db #0x00	; 0
	.db #0x00	; 0
	.db #0x00	; 0
	.db #0x00	; 0
	.db #0x00	; 0
	.db #0x00	; 0
	.db #0x00	; 0
	.db #0x00	; 0
	.db #0x00	; 0
	.db #0x00	; 0
	.db #0x00	; 0
	.db #0x00	; 0
	.db #0x00	; 0
	.db #0x00	; 0
	.db #0x00	; 0
	.db #0x00	; 0
	.db #0x00	; 0
	.db #0x00	; 0
	.db #0x00	; 0
	.db #0x00	; 0
	.db #0x00	; 0
	.db #0x00	; 0
	.db #0x00	; 0
	.db #0x00	; 0
	.db #0x00	; 0
	.db #0x00	; 0
	.db #0x00	; 0
	.db #0x00	; 0
	.db #0x00	; 0
	.db #0x00	; 0
	.db #0x00	; 0
	.db #0x00	; 0
	.db #0x00	; 0
	.db #0x00	; 0
	.db #0x00	; 0
	.db #0x00	; 0
	.db #0x00	; 0
	.db #0x00	; 0
	.db #0x00	; 0
	.db #0x00	; 0
	.db #0x00	; 0
	.db #0x00	; 0
	.db #0x00	; 0
	.db #0x00	; 0
	.db #0x00	; 0
	.db #0x63	; 99	c
	.db #0x98	; 152
	.db #0x42	; 66	B
	.db #0x42	; 66	B
	.db #0x14	; 20
	.db #0x00	; 0
	.db #0x00	; 0
	.db #0x00	; 0
	.db #0x00	; 0
	.db #0x00	; 0
	.db #0x50	; 80	P
	.db #0xB8	; 184
	.db #0xBC	; 188
	.db #0x63	; 99	c
	.db #0xDC	; 220
	.db #0x42	; 66	B
	.db #0x42	; 66	B
	.db #0x74	; 116	t
	.db #0x00	; 0
	.db #0x00	; 0
	.db #0x00	; 0
	.db #0xBC	; 188
	.db #0x74	; 116	t
	.db #0x98	; 152
	.db #0x04	; 4
	.db #0xDC	; 220
	.db #0x62	; 98	b
	.db #0x62	; 98	b
	.db #0xB8	; 184
	.db #0x42	; 66	B
	.db #0x74	; 116	t
	.db #0x50	; 80	P
	.db #0x00	; 0
	.db #0x74	; 116	t
	.db #0x74	; 116	t
	.db #0x04	; 4
	.db #0x04	; 4
	.db #0x49	; 73	I
	.db #0x49	; 73	I
	.db #0xB8	; 184
	.db #0x42	; 66	B
	.db #0x98	; 152
	.db #0x21	; 33
	.db #0x42	; 66	B
	.db #0x98	; 152
	.db #0xB2	; 178
	.db #0x50	; 80	P
	.db #0x04	; 4
	.db #0x24	; 36
	.db #0x24	; 36
	.db #0x24	; 36
	.db #0x24	; 36
	.db #0xB8	; 184
	.db #0x21	; 33
	.db #0x74	; 116	t
	.db #0xB8	; 184
	.db #0xBC	; 188
	.db #0x18	; 24
	.db #0x00	; 0
	.db #0x00	; 0
	.db #0xBC	; 188
	.db #0x24	; 36
	.db #0x24	; 36
	.db #0xBC	; 188
	.db #0xBC	; 188
	.db #0xBC	; 188
	.db #0x98	; 152
	.db #0x98	; 152
	.db #0x74	; 116	t
	.db #0x04	; 4
	.db #0x50	; 80	P
	.db #0x00	; 0
	.db #0x00	; 0
	.db #0x74	; 116	t
	.db #0xFC	; 252
	.db #0xB8	; 184
	.db #0x04	; 4
	.db #0x50	; 80	P
	.db #0x74	; 116	t
	.db #0x74	; 116	t
	.db #0x50	; 80	P
	.db #0x04	; 4
	.db #0x04	; 4
	.db #0x00	; 0
	.db #0x00	; 0
	.db #0x00	; 0
	.db #0x00	; 0
	.db #0x50	; 80	P
	.db #0x74	; 116	t
	.db #0x04	; 4
	.db #0x04	; 4
	.db #0x00	; 0
	.db #0x00	; 0
	.db #0x00	; 0
	.db #0x00	; 0
	.db #0x00	; 0
	.db #0x00	; 0
	.db #0x00	; 0
	.db #0x00	; 0
	.db #0x00	; 0
	.db #0x00	; 0
	.db #0x00	; 0
	.db #0x00	; 0
	.db #0x00	; 0
	.db #0x00	; 0
	.db #0x00	; 0
	.db #0x00	; 0
	.db #0x00	; 0
	.db #0x00	; 0
	.db #0x00	; 0
	.db #0x00	; 0
	.db #0x00	; 0
	.db #0x00	; 0
	.db #0x00	; 0
	.db #0x00	; 0
	.db #0x00	; 0
	.db #0x00	; 0
	.db #0x00	; 0
	.db #0x00	; 0
	.db #0x00	; 0
	.db #0x00	; 0
	.db #0x00	; 0
	.db #0x00	; 0
	.db #0x00	; 0
	.db #0x00	; 0
	.db #0x00	; 0
	.db #0x00	; 0
	.db #0x00	; 0
	.db #0x00	; 0
	.db #0x00	; 0
	.db #0x50	; 80	P
	.db #0x14	; 20
	.db #0x74	; 116	t
	.db #0x00	; 0
	.db #0x00	; 0
	.db #0x00	; 0
	.db #0x00	; 0
	.db #0x00	; 0
	.db #0x00	; 0
	.db #0x00	; 0
	.db #0x00	; 0
	.db #0x00	; 0
	.db #0x74	; 116	t
	.db #0x42	; 66	B
	.db #0x42	; 66	B
	.db #0x42	; 66	B
	.db #0x74	; 116	t
	.db #0x00	; 0
	.db #0x00	; 0
	.db #0x00	; 0
	.db #0x00	; 0
	.db #0x00	; 0
	.db #0x00	; 0
	.db #0x00	; 0
	.db #0x63	; 99	c
	.db #0xB8	; 184
	.db #0xBC	; 188
	.db #0x74	; 116	t
	.db #0x42	; 66	B
	.db #0x21	; 33
	.db #0x98	; 152
	.db #0xB2	; 178
	.db #0x00	; 0
	.db #0x00	; 0
	.db #0x00	; 0
	.db #0x00	; 0
	.db #0x50	; 80	P
	.db #0x62	; 98	b
	.db #0x62	; 98	b
	.db #0x98	; 152
	.db #0xBC	; 188
	.db #0x74	; 116	t
	.db #0x21	; 33
	.db #0xBC	; 188
	.db #0x1C	; 28
	.db #0x00	; 0
	.db #0x00	; 0
	.db #0x00	; 0
	.db #0x74	; 116	t
	.db #0xB8	; 184
	.db #0xBC	; 188
	.db #0x62	; 98	b
	.db #0x42	; 66	B
	.db #0x74	; 116	t
	.db #0xB8	; 184
	.db #0xBC	; 188
	.db #0x04	; 4
	.db #0x00	; 0
	.db #0x00	; 0
	.db #0x00	; 0
	.db #0xB8	; 184
	.db #0xB8	; 184
	.db #0x04	; 4
	.db #0x49	; 73	I
	.db #0xBC	; 188
	.db #0x42	; 66	B
	.db #0x21	; 33
	.db #0x74	; 116	t
	.db #0x04	; 4
	.db #0x00	; 0
	.db #0x00	; 0
	.db #0x00	; 0
	.db #0x74	; 116	t
	.db #0xFC	; 252
	.db #0x04	; 4
	.db #0x24	; 36
	.db #0x49	; 73	I
	.db #0x24	; 36
	.db #0xBC	; 188
	.db #0xB8	; 184
	.db #0x74	; 116	t
	.db #0x00	; 0
	.db #0x00	; 0
	.db #0x00	; 0
	.db #0x00	; 0
	.db #0x50	; 80	P
	.db #0x04	; 4
	.db #0x24	; 36
	.db #0x24	; 36
	.db #0x24	; 36
	.db #0x98	; 152
	.db #0xBC	; 188
	.db #0x74	; 116	t
	.db #0x00	; 0
	.db #0x00	; 0
	.db #0x00	; 0
	.db #0x00	; 0
	.db #0x00	; 0
	.db #0x00	; 0
	.db #0x04	; 4
	.db #0x04	; 4
	.db #0x24	; 36
	.db #0xFC	; 252
	.db #0xBC	; 188
	.db #0x04	; 4
	.db #0x00	; 0
	.db #0x00	; 0
	.db #0x00	; 0
	.db #0x00	; 0
	.db #0x00	; 0
	.db #0x00	; 0
	.db #0x00	; 0
	.db #0x00	; 0
	.db #0x04	; 4
	.db #0x74	; 116	t
	.db #0x74	; 116	t
	.db #0x04	; 4
	.db #0x00	; 0
	.db #0x00	; 0
	.db #0x00	; 0
	.db #0x00	; 0
	.db #0x00	; 0
	.db #0x00	; 0
	.db #0x00	; 0
	.db #0x00	; 0
	.db #0x00	; 0
	.db #0x00	; 0
	.db #0x00	; 0
	.db #0x00	; 0
	.db #0x00	; 0
	.db #0x00	; 0
	.db #0x00	; 0
	.db #0x00	; 0
	.db #0x00	; 0
	.db #0x00	; 0
	.db #0x00	; 0
	.db #0x00	; 0
	.db #0x00	; 0
	.db #0x00	; 0
	.db #0x00	; 0
	.db #0x00	; 0
	.db #0x00	; 0
	.db #0x00	; 0
	.db #0x18	; 24
	.db #0x74	; 116	t
	.db #0x00	; 0
	.db #0x00	; 0
	.db #0x00	; 0
	.db #0x00	; 0
	.db #0x00	; 0
	.db #0x00	; 0
	.db #0x00	; 0
	.db #0x00	; 0
	.db #0x00	; 0
	.db #0x50	; 80	P
	.db #0x74	; 116	t
	.db #0x41	; 65	A
	.db #0x42	; 66	B
	.db #0x98	; 152
	.db #0x74	; 116	t
	.db #0x00	; 0
	.db #0x00	; 0
	.db #0x00	; 0
	.db #0x00	; 0
	.db #0x00	; 0
	.db #0x00	; 0
	.db #0x00	; 0
	.db #0xBC	; 188
	.db #0x98	; 152
	.db #0xB8	; 184
	.db #0x42	; 66	B
	.db #0x42	; 66	B
	.db #0x63	; 99	c
	.db #0x18	; 24
	.db #0x00	; 0
	.db #0x00	; 0
	.db #0x00	; 0
	.db #0x00	; 0
	.db #0x00	; 0
	.db #0x24	; 36
	.db #0x74	; 116	t
	.db #0xB8	; 184
	.db #0xBC	; 188
	.db #0xBC	; 188
	.db #0xBC	; 188
	.db #0xDC	; 220
	.db #0xB8	; 184
	.db #0x00	; 0
	.db #0x00	; 0
	.db #0x00	; 0
	.db #0x00	; 0
	.db #0x00	; 0
	.db #0x50	; 80	P
	.db #0x74	; 116	t
	.db #0x41	; 65	A
	.db #0x63	; 99	c
	.db #0xBC	; 188
	.db #0xDC	; 220
	.db #0x98	; 152
	.db #0xBC	; 188
	.db #0x00	; 0
	.db #0x00	; 0
	.db #0x00	; 0
	.db #0x00	; 0
	.db #0x00	; 0
	.db #0x98	; 152
	.db #0x74	; 116	t
	.db #0xB8	; 184
	.db #0x42	; 66	B
	.db #0x63	; 99	c
	.db #0x62	; 98	b
	.db #0x74	; 116	t
	.db #0x04	; 4
	.db #0x00	; 0
	.db #0x00	; 0
	.db #0x00	; 0
	.db #0x00	; 0
	.db #0xBC	; 188
	.db #0xBC	; 188
	.db #0x04	; 4
	.db #0x24	; 36
	.db #0xBC	; 188
	.db #0xDC	; 220
	.db #0x74	; 116	t
	.db #0x74	; 116	t
	.db #0x00	; 0
	.db #0x00	; 0
	.db #0x00	; 0
	.db #0x00	; 0
	.db #0x00	; 0
	.db #0x98	; 152
	.db #0xBC	; 188
	.db #0x04	; 4
	.db #0x24	; 36
	.db #0x49	; 73	I
	.db #0x04	; 4
	.db #0x50	; 80	P
	.db #0x00	; 0
	.db #0x00	; 0
	.db #0x00	; 0
	.db #0x00	; 0
	.db #0x00	; 0
	.db #0x50	; 80	P
	.db #0x98	; 152
	.db #0x04	; 4
	.db #0x24	; 36
	.db #0x24	; 36
	.db #0x49	; 73	I
	.db #0x04	; 4
	.db #0xBC	; 188
	.db #0x00	; 0
	.db #0x00	; 0
	.db #0x00	; 0
	.db #0x00	; 0
	.db #0x00	; 0
	.db #0x04	; 4
	.db #0x50	; 80	P
	.db #0x74	; 116	t
	.db #0x24	; 36
	.db #0x24	; 36
	.db #0x04	; 4
	.db #0xFC	; 252
	.db #0xBC	; 188
	.db #0x00	; 0
	.db #0x00	; 0
	.db #0x00	; 0
	.db #0x00	; 0
	.db #0x00	; 0
	.db #0x00	; 0
	.db #0x00	; 0
	.db #0x50	; 80	P
	.db #0x74	; 116	t
	.db #0x74	; 116	t
	.db #0x74	; 116	t
	.db #0xFC	; 252
	.db #0x04	; 4
	.db #0x00	; 0
	.db #0x00	; 0
	.db #0x00	; 0
	.db #0x00	; 0
	.db #0x00	; 0
	.db #0x00	; 0
	.db #0x00	; 0
	.db #0x14	; 20
	.db #0x74	; 116	t
	.db #0x98	; 152
	.db #0x74	; 116	t
	.db #0x74	; 116	t
	.db #0x14	; 20
	.db #0x00	; 0
	.db #0x00	; 0
	.db #0x00	; 0
	.db #0x00	; 0
	.db #0x00	; 0
	.db #0x00	; 0
	.db #0x00	; 0
	.db #0xB8	; 184
	.db #0x63	; 99	c
	.db #0x42	; 66	B
	.db #0x42	; 66	B
	.db #0x41	; 65	A
	.db #0x74	; 116	t
	.db #0x00	; 0
	.db #0x00	; 0
	.db #0x00	; 0
	.db #0x00	; 0
	.db #0x00	; 0
	.db #0x00	; 0
	.db #0xBC	; 188
	.db #0x98	; 152
	.db #0xDC	; 220
	.db #0xBC	; 188
	.db #0xBC	; 188
	.db #0xB8	; 184
	.db #0x74	; 116	t
	.db #0xBC	; 188
	.db #0x00	; 0
	.db #0x00	; 0
	.db #0x00	; 0
	.db #0x00	; 0
	.db #0x00	; 0
	.db #0x98	; 152
	.db #0x74	; 116	t
	.db #0xDC	; 220
	.db #0xBC	; 188
	.db #0xBC	; 188
	.db #0xB8	; 184
	.db #0x74	; 116	t
	.db #0x98	; 152
	.db #0x00	; 0
	.db #0x00	; 0
	.db #0x00	; 0
	.db #0x00	; 0
	.db #0x00	; 0
	.db #0x24	; 36
	.db #0x74	; 116	t
	.db #0x62	; 98	b
	.db #0x63	; 99	c
	.db #0x63	; 99	c
	.db #0x41	; 65	A
	.db #0x50	; 80	P
	.db #0x04	; 4
	.db #0x00	; 0
	.db #0x00	; 0
	.db #0x00	; 0
	.db #0x00	; 0
	.db #0x00	; 0
	.db #0x00	; 0
	.db #0x74	; 116	t
	.db #0xDC	; 220
	.db #0xBC	; 188
	.db #0xBC	; 188
	.db #0xB8	; 184
	.db #0x74	; 116	t
	.db #0x00	; 0
	.db #0x00	; 0
	.db #0x00	; 0
	.db #0x00	; 0
	.db #0x00	; 0
	.db #0x00	; 0
	.db #0x00	; 0
	.db #0x98	; 152
	.db #0x04	; 4
	.db #0x49	; 73	I
	.db #0x24	; 36
	.db #0x04	; 4
	.db #0x98	; 152
	.db #0x00	; 0
	.db #0x00	; 0
	.db #0x00	; 0
	.db #0x00	; 0
	.db #0x00	; 0
	.db #0x00	; 0
	.db #0xBC	; 188
	.db #0xBC	; 188
	.db #0x04	; 4
	.db #0x49	; 73	I
	.db #0x24	; 36
	.db #0x04	; 4
	.db #0xBC	; 188
	.db #0xBC	; 188
	.db #0x00	; 0
	.db #0x00	; 0
	.db #0x00	; 0
	.db #0x00	; 0
	.db #0x00	; 0
	.db #0x98	; 152
	.db #0xB8	; 184
	.db #0x04	; 4
	.db #0x24	; 36
	.db #0x24	; 36
	.db #0x04	; 4
	.db #0xBC	; 188
	.db #0x98	; 152
	.db #0x00	; 0
	.db #0x00	; 0
	.db #0x00	; 0
	.db #0x00	; 0
	.db #0x00	; 0
	.db #0x24	; 36
	.db #0xFC	; 252
	.db #0x74	; 116	t
	.db #0x24	; 36
	.db #0x24	; 36
	.db #0x74	; 116	t
	.db #0xFC	; 252
	.db #0x04	; 4
	.db #0x00	; 0
	.db #0x00	; 0
	.db #0x00	; 0
	.db #0x00	; 0
	.db #0x00	; 0
	.db #0x00	; 0
	.db #0x00	; 0
	.db #0x50	; 80	P
	.db #0x74	; 116	t
	.db #0x74	; 116	t
	.db #0x50	; 80	P
	.db #0x00	; 0
	.db #0x00	; 0
	.db #0x00	; 0
	.db #0x00	; 0
	.db #0x00	; 0
	.db #0x00	; 0
	.db #0x00	; 0
	.db #0x00	; 0
	.db #0x00	; 0
	.db #0x00	; 0
	.db #0x74	; 116	t
	.db #0x18	; 24
	.db #0x00	; 0
	.db #0x00	; 0
	.db #0x00	; 0
	.db #0x00	; 0
	.db #0x00	; 0
	.db #0x00	; 0
	.db #0x00	; 0
	.db #0x00	; 0
	.db #0x00	; 0
	.db #0x74	; 116	t
	.db #0x98	; 152
	.db #0x42	; 66	B
	.db #0x41	; 65	A
	.db #0x74	; 116	t
	.db #0x50	; 80	P
	.db #0x00	; 0
	.db #0x00	; 0
	.db #0x00	; 0
	.db #0x00	; 0
	.db #0x00	; 0
	.db #0x00	; 0
	.db #0x18	; 24
	.db #0x63	; 99	c
	.db #0x42	; 66	B
	.db #0x42	; 66	B
	.db #0xB8	; 184
	.db #0x98	; 152
	.db #0xBC	; 188
	.db #0x00	; 0
	.db #0x00	; 0
	.db #0x00	; 0
	.db #0x00	; 0
	.db #0x00	; 0
	.db #0x00	; 0
	.db #0xB8	; 184
	.db #0xDC	; 220
	.db #0xBC	; 188
	.db #0xBC	; 188
	.db #0xBC	; 188
	.db #0xB8	; 184
	.db #0x74	; 116	t
	.db #0x00	; 0
	.db #0x00	; 0
	.db #0x00	; 0
	.db #0x00	; 0
	.db #0x00	; 0
	.db #0x00	; 0
	.db #0x50	; 80	P
	.db #0x98	; 152
	.db #0xDC	; 220
	.db #0xBC	; 188
	.db #0x63	; 99	c
	.db #0x41	; 65	A
	.db #0x74	; 116	t
	.db #0x50	; 80	P
	.db #0x00	; 0
	.db #0x00	; 0
	.db #0x00	; 0
	.db #0x00	; 0
	.db #0x00	; 0
	.db #0x24	; 36
	.db #0xB8	; 184
	.db #0x62	; 98	b
	.db #0x63	; 99	c
	.db #0x42	; 66	B
	.db #0xB8	; 184
	.db #0x74	; 116	t
	.db #0x98	; 152
	.db #0x00	; 0
	.db #0x00	; 0
	.db #0x00	; 0
	.db #0x00	; 0
	.db #0x00	; 0
	.db #0x00	; 0
	.db #0x74	; 116	t
	.db #0x74	; 116	t
	.db #0xDC	; 220
	.db #0xBC	; 188
	.db #0x24	; 36
	.db #0x04	; 4
	.db #0xBC	; 188
	.db #0xBC	; 188
	.db #0x00	; 0
	.db #0x00	; 0
	.db #0x00	; 0
	.db #0x00	; 0
	.db #0x00	; 0
	.db #0x00	; 0
	.db #0x98	; 152
	.db #0x04	; 4
	.db #0x49	; 73	I
	.db #0x24	; 36
	.db #0x04	; 4
	.db #0x50	; 80	P
	.db #0x98	; 152
	.db #0x50	; 80	P
	.db #0x00	; 0
	.db #0x00	; 0
	.db #0x00	; 0
	.db #0x00	; 0
	.db #0x00	; 0
	.db #0xBC	; 188
	.db #0x04	; 4
	.db #0x49	; 73	I
	.db #0x24	; 36
	.db #0x24	; 36
	.db #0x04	; 4
	.db #0xFC	; 252
	.db #0x04	; 4
	.db #0x00	; 0
	.db #0x00	; 0
	.db #0x00	; 0
	.db #0x00	; 0
	.db #0x00	; 0
	.db #0x50	; 80	P
	.db #0xFC	; 252
	.db #0x04	; 4
	.db #0x24	; 36
	.db #0x24	; 36
	.db #0x74	; 116	t
	.db #0x50	; 80	P
	.db #0x00	; 0
	.db #0x00	; 0
	.db #0x00	; 0
	.db #0x00	; 0
	.db #0x00	; 0
	.db #0x00	; 0
	.db #0x24	; 36
	.db #0xB8	; 184
	.db #0x74	; 116	t
	.db #0x74	; 116	t
	.db #0x74	; 116	t
	.db #0x50	; 80	P
	.db #0x00	; 0
	.db #0x00	; 0
	.db #0x00	; 0
	.db #0x00	; 0
	.db #0x00	; 0
	.db #0x00	; 0
	.db #0x00	; 0
	.db #0xB2	; 178
	.db #0x14	; 20
	.db #0x00	; 0
	.db #0x00	; 0
	.db #0x00	; 0
	.db #0x00	; 0
	.db #0x00	; 0
	.db #0x00	; 0
	.db #0x00	; 0
	.db #0x00	; 0
	.db #0x00	; 0
	.db #0x00	; 0
	.db #0x74	; 116	t
	.db #0x42	; 66	B
	.db #0x42	; 66	B
	.db #0x42	; 66	B
	.db #0x74	; 116	t
	.db #0x00	; 0
	.db #0x00	; 0
	.db #0x00	; 0
	.db #0x00	; 0
	.db #0x00	; 0
	.db #0x00	; 0
	.db #0x00	; 0
	.db #0x98	; 152
	.db #0x21	; 33
	.db #0x42	; 66	B
	.db #0x74	; 116	t
	.db #0xBC	; 188
	.db #0xB8	; 184
	.db #0x63	; 99	c
	.db #0x00	; 0
	.db #0x00	; 0
	.db #0x00	; 0
	.db #0x00	; 0
	.db #0x00	; 0
	.db #0x1C	; 28
	.db #0xBC	; 188
	.db #0x21	; 33
	.db #0x74	; 116	t
	.db #0xBC	; 188
	.db #0x98	; 152
	.db #0x62	; 98	b
	.db #0x62	; 98	b
	.db #0x50	; 80	P
	.db #0x00	; 0
	.db #0x00	; 0
	.db #0x00	; 0
	.db #0x00	; 0
	.db #0x00	; 0
	.db #0x04	; 4
	.db #0xBC	; 188
	.db #0xB8	; 184
	.db #0x74	; 116	t
	.db #0x42	; 66	B
	.db #0x62	; 98	b
	.db #0xBC	; 188
	.db #0xB8	; 184
	.db #0x74	; 116	t
	.db #0x00	; 0
	.db #0x00	; 0
	.db #0x00	; 0
	.db #0x00	; 0
	.db #0x00	; 0
	.db #0x04	; 4
	.db #0x74	; 116	t
	.db #0x21	; 33
	.db #0x42	; 66	B
	.db #0xBC	; 188
	.db #0x49	; 73	I
	.db #0x04	; 4
	.db #0xB8	; 184
	.db #0x74	; 116	t
	.db #0x00	; 0
	.db #0x00	; 0
	.db #0x00	; 0
	.db #0x00	; 0
	.db #0x00	; 0
	.db #0x74	; 116	t
	.db #0xB8	; 184
	.db #0xBC	; 188
	.db #0x24	; 36
	.db #0x49	; 73	I
	.db #0x24	; 36
	.db #0x04	; 4
	.db #0xFC	; 252
	.db #0x50	; 80	P
	.db #0x00	; 0
	.db #0x00	; 0
	.db #0x00	; 0
	.db #0x00	; 0
	.db #0x00	; 0
	.db #0x74	; 116	t
	.db #0xBC	; 188
	.db #0x98	; 152
	.db #0x24	; 36
	.db #0x24	; 36
	.db #0x24	; 36
	.db #0x74	; 116	t
	.db #0x74	; 116	t
	.db #0x00	; 0
	.db #0x00	; 0
	.db #0x00	; 0
	.db #0x00	; 0
	.db #0x00	; 0
	.db #0x00	; 0
	.db #0x04	; 4
	.db #0xBC	; 188
	.db #0xFC	; 252
	.db #0x24	; 36
	.db #0x04	; 4
	.db #0x04	; 4
	.db #0x00	; 0
	.db #0x00	; 0
	.db #0x00	; 0
	.db #0x00	; 0
	.db #0x00	; 0
	.db #0x00	; 0
	.db #0x00	; 0
	.db #0x00	; 0
	.db #0x04	; 4
	.db #0x74	; 116	t
	.db #0x74	; 116	t
	.db #0x04	; 4
	.db #0x00	; 0
	.db #0x00	; 0
	.db #0x00	; 0
	.db #0x00	; 0
	.db #0x00	; 0
	.db #0x00	; 0
	.db #0x00	; 0
	.db #0x00	; 0
	.db #0x00	; 0
	.db #0x00	; 0
	.db #0x00	; 0
	.db #0x00	; 0
	.db #0x00	; 0
	.db #0x00	; 0
	.db #0x00	; 0
	.db #0x00	; 0
	.db #0x00	; 0
	.db #0x00	; 0
	.db #0x00	; 0
	.db #0x00	; 0
	.db #0x00	; 0
	.db #0x00	; 0
	.db #0x00	; 0
	.db #0x00	; 0
	.db #0x00	; 0
	.db #0x00	; 0
	.db #0x00	; 0
	.db #0x00	; 0
	.db #0x00	; 0
	.db #0x00	; 0
	.db #0x14	; 20
	.db #0x42	; 66	B
	.db #0x42	; 66	B
	.db #0x98	; 152
	.db #0x63	; 99	c
	.db #0x00	; 0
	.db #0x00	; 0
	.db #0x00	; 0
	.db #0x00	; 0
	.db #0x00	; 0
	.db #0x00	; 0
	.db #0x00	; 0
	.db #0xB2	; 178
	.db #0x74	; 116	t
	.db #0x42	; 66	B
	.db #0x42	; 66	B
	.db #0xDC	; 220
	.db #0x63	; 99	c
	.db #0xBC	; 188
	.db #0xB8	; 184
	.db #0x50	; 80	P
	.db #0x00	; 0
	.db #0x00	; 0
	.db #0x00	; 0
	.db #0x00	; 0
	.db #0x50	; 80	P
	.db #0x74	; 116	t
	.db #0x42	; 66	B
	.db #0xB8	; 184
	.db #0x62	; 98	b
	.db #0x62	; 98	b
	.db #0xDC	; 220
	.db #0x04	; 4
	.db #0x98	; 152
	.db #0x74	; 116	t
	.db #0xBC	; 188
	.db #0x00	; 0
	.db #0x00	; 0
	.db #0x98	; 152
	.db #0x42	; 66	B
	.db #0x21	; 33
	.db #0x98	; 152
	.db #0x42	; 66	B
	.db #0xB8	; 184
	.db #0x49	; 73	I
	.db #0x49	; 73	I
	.db #0x04	; 4
	.db #0x04	; 4
	.db #0x74	; 116	t
	.db #0x74	; 116	t
	.db #0x00	; 0
	.db #0x18	; 24
	.db #0xBC	; 188
	.db #0xB8	; 184
	.db #0x74	; 116	t
	.db #0x21	; 33
	.db #0xB8	; 184
	.db #0x24	; 36
	.db #0x24	; 36
	.db #0x24	; 36
	.db #0x24	; 36
	.db #0x04	; 4
	.db #0x50	; 80	P
	.db #0x00	; 0
	.db #0x50	; 80	P
	.db #0x04	; 4
	.db #0x74	; 116	t
	.db #0x98	; 152
	.db #0x98	; 152
	.db #0xBC	; 188
	.db #0xBC	; 188
	.db #0xBC	; 188
	.db #0x24	; 36
	.db #0x24	; 36
	.db #0xBC	; 188
	.db #0x00	; 0
	.db #0x00	; 0
	.db #0x00	; 0
	.db #0x04	; 4
	.db #0x04	; 4
	.db #0x50	; 80	P
	.db #0x74	; 116	t
	.db #0x74	; 116	t
	.db #0x04	; 4
	.db #0x74	; 116	t
	.db #0x98	; 152
	.db #0xFC	; 252
	.db #0x74	; 116	t
	.db #0x00	; 0
	.db #0x00	; 0
	.db #0x00	; 0
	.db #0x00	; 0
	.db #0x00	; 0
	.db #0x00	; 0
	.db #0x00	; 0
	.db #0x00	; 0
	.db #0x04	; 4
	.db #0x04	; 4
	.db #0xB8	; 184
	.db #0x50	; 80	P
	.db #0x00	; 0
	.db #0x00	; 0
	.db #0x00	; 0
	.db #0x00	; 0
	.db #0x00	; 0
	.db #0x00	; 0
	.db #0x00	; 0
	.db #0x00	; 0
	.db #0x00	; 0
	.db #0x00	; 0
	.db #0x00	; 0
	.db #0x00	; 0
	.db #0x00	; 0
	.db #0x00	; 0
	.db #0x00	; 0
	.db #0x00	; 0
	.db #0x00	; 0
	.db #0x00	; 0
	.db #0x00	; 0
	.db #0x00	; 0
	.db #0x00	; 0
	.db #0x00	; 0
	.db #0x00	; 0
	.db #0x00	; 0
	.db #0x00	; 0
	.db #0x00	; 0
	.db #0x00	; 0
	.db #0x00	; 0
_car3:
	.db #0x00	; 0
	.db #0x00	; 0
	.db #0x00	; 0
	.db #0x00	; 0
	.db #0x00	; 0
	.db #0x00	; 0
	.db #0x00	; 0
	.db #0x00	; 0
	.db #0x00	; 0
	.db #0x00	; 0
	.db #0x00	; 0
	.db #0x00	; 0
	.db #0x00	; 0
	.db #0x00	; 0
	.db #0x00	; 0
	.db #0x00	; 0
	.db #0x00	; 0
	.db #0x00	; 0
	.db #0x00	; 0
	.db #0x00	; 0
	.db #0x00	; 0
	.db #0x00	; 0
	.db #0x00	; 0
	.db #0x00	; 0
	.db #0x00	; 0
	.db #0x00	; 0
	.db #0x00	; 0
	.db #0x14	; 20
	.db #0x08	; 8
	.db #0x0C	; 12
	.db #0x65	; 101	e
	.db #0x14	; 20
	.db #0x14	; 20
	.db #0x65	; 101	e
	.db #0x10	; 16
	.db #0x10	; 16
	.db #0xB8	; 184
	.db #0x00	; 0
	.db #0x00	; 0
	.db #0x00	; 0
	.db #0x14	; 20
	.db #0x20	; 32
	.db #0x14	; 20
	.db #0xAE	; 174
	.db #0x1C	; 28
	.db #0x1C	; 28
	.db #0xAE	; 174
	.db #0x14	; 20
	.db #0x14	; 20
	.db #0x14	; 20
	.db #0x04	; 4
	.db #0x00	; 0
	.db #0x00	; 0
	.db #0x1C	; 28
	.db #0x20	; 32
	.db #0x1C	; 28
	.db #0x14	; 20
	.db #0x1C	; 28
	.db #0x1C	; 28
	.db #0xD2	; 210
	.db #0x14	; 20
	.db #0x18	; 24
	.db #0x1C	; 28
	.db #0x10	; 16
	.db #0x00	; 0
	.db #0x00	; 0
	.db #0x0C	; 12
	.db #0x14	; 20
	.db #0x14	; 20
	.db #0x14	; 20
	.db #0x14	; 20
	.db #0x1C	; 28
	.db #0x14	; 20
	.db #0x10	; 16
	.db #0x14	; 20
	.db #0x14	; 20
	.db #0x14	; 20
	.db #0x00	; 0
	.db #0x00	; 0
	.db #0x9C	; 156
	.db #0x18	; 24
	.db #0x1C	; 28
	.db #0x14	; 20
	.db #0x14	; 20
	.db #0x14	; 20
	.db #0x14	; 20
	.db #0x1C	; 28
	.db #0x18	; 24
	.db #0xFC	; 252
	.db #0x18	; 24
	.db #0x00	; 0
	.db #0x00	; 0
	.db #0x18	; 24
	.db #0x14	; 20
	.db #0x24	; 36
	.db #0x24	; 36
	.db #0x0C	; 12
	.db #0x10	; 16
	.db #0x0C	; 12
	.db #0x24	; 36
	.db #0x24	; 36
	.db #0x18	; 24
	.db #0x04	; 4
	.db #0x00	; 0
	.db #0x00	; 0
	.db #0x00	; 0
	.db #0x00	; 0
	.db #0x04	; 4
	.db #0x04	; 4
	.db #0x00	; 0
	.db #0x00	; 0
	.db #0x00	; 0
	.db #0x04	; 4
	.db #0x04	; 4
	.db #0x00	; 0
	.db #0x00	; 0
	.db #0x00	; 0
	.db #0x00	; 0
	.db #0x00	; 0
	.db #0x00	; 0
	.db #0x00	; 0
	.db #0x00	; 0
	.db #0x00	; 0
	.db #0x00	; 0
	.db #0x00	; 0
	.db #0x00	; 0
	.db #0x00	; 0
	.db #0x00	; 0
	.db #0x00	; 0
	.db #0x00	; 0
	.db #0x00	; 0
	.db #0x00	; 0
	.db #0x00	; 0
	.db #0x00	; 0
	.db #0x00	; 0
	.db #0x00	; 0
	.db #0x00	; 0
	.db #0x00	; 0
	.db #0x00	; 0
	.db #0x00	; 0
	.db #0x00	; 0
	.db #0x00	; 0
	.db #0x00	; 0
	.db #0x00	; 0
	.db #0x00	; 0
	.db #0x00	; 0
	.db #0x00	; 0
	.db #0x00	; 0
	.db #0x00	; 0
	.db #0x00	; 0
	.db #0x00	; 0
	.db #0x00	; 0
	.db #0x00	; 0
	.db #0x00	; 0
	.db #0x00	; 0
	.db #0x00	; 0
	.db #0x00	; 0
	.db #0x00	; 0
	.db #0x00	; 0
	.db #0x00	; 0
	.db #0x00	; 0
	.db #0x00	; 0
	.db #0x65	; 101	e
	.db #0x10	; 16
	.db #0x10	; 16
	.db #0xB8	; 184
	.db #0x04	; 4
	.db #0x00	; 0
	.db #0x00	; 0
	.db #0x00	; 0
	.db #0x00	; 0
	.db #0x00	; 0
	.db #0x65	; 101	e
	.db #0x14	; 20
	.db #0x14	; 20
	.db #0xAE	; 174
	.db #0x14	; 20
	.db #0x14	; 20
	.db #0x14	; 20
	.db #0x10	; 16
	.db #0x0C	; 12
	.db #0x00	; 0
	.db #0x00	; 0
	.db #0x08	; 8
	.db #0x14	; 20
	.db #0xAE	; 174
	.db #0x1C	; 28
	.db #0x1C	; 28
	.db #0xD2	; 210
	.db #0x14	; 20
	.db #0x18	; 24
	.db #0x1C	; 28
	.db #0x14	; 20
	.db #0x0C	; 12
	.db #0x00	; 0
	.db #0x00	; 0
	.db #0x14	; 20
	.db #0x20	; 32
	.db #0x1C	; 28
	.db #0x14	; 20
	.db #0x1C	; 28
	.db #0x1C	; 28
	.db #0x14	; 20
	.db #0x10	; 16
	.db #0x14	; 20
	.db #0xFC	; 252
	.db #0x18	; 24
	.db #0x00	; 0
	.db #0x00	; 0
	.db #0x1C	; 28
	.db #0x14	; 20
	.db #0x14	; 20
	.db #0x14	; 20
	.db #0x14	; 20
	.db #0x14	; 20
	.db #0x14	; 20
	.db #0x1C	; 28
	.db #0x18	; 24
	.db #0x18	; 24
	.db #0x04	; 4
	.db #0x00	; 0
	.db #0x00	; 0
	.db #0x0C	; 12
	.db #0x18	; 24
	.db #0x1C	; 28
	.db #0x14	; 20
	.db #0x14	; 20
	.db #0x10	; 16
	.db #0x0C	; 12
	.db #0x24	; 36
	.db #0x24	; 36
	.db #0x04	; 4
	.db #0x00	; 0
	.db #0x00	; 0
	.db #0x00	; 0
	.db #0x9C	; 156
	.db #0x14	; 20
	.db #0x24	; 36
	.db #0x24	; 36
	.db #0x0C	; 12
	.db #0x00	; 0
	.db #0x00	; 0
	.db #0x00	; 0
	.db #0x04	; 4
	.db #0x04	; 4
	.db #0x00	; 0
	.db #0x00	; 0
	.db #0x00	; 0
	.db #0x00	; 0
	.db #0x00	; 0
	.db #0x00	; 0
	.db #0x04	; 4
	.db #0x04	; 4
	.db #0x00	; 0
	.db #0x00	; 0
	.db #0x00	; 0
	.db #0x00	; 0
	.db #0x00	; 0
	.db #0x00	; 0
	.db #0x00	; 0
	.db #0x00	; 0
	.db #0x00	; 0
	.db #0x00	; 0
	.db #0x00	; 0
	.db #0x00	; 0
	.db #0x00	; 0
	.db #0x00	; 0
	.db #0x00	; 0
	.db #0x00	; 0
	.db #0x00	; 0
	.db #0x00	; 0
	.db #0x00	; 0
	.db #0x00	; 0
	.db #0x00	; 0
	.db #0x00	; 0
	.db #0x00	; 0
	.db #0x00	; 0
	.db #0x00	; 0
	.db #0x00	; 0
	.db #0x00	; 0
	.db #0x00	; 0
	.db #0x00	; 0
	.db #0x00	; 0
	.db #0x00	; 0
	.db #0x00	; 0
	.db #0x00	; 0
	.db #0x00	; 0
	.db #0x00	; 0
	.db #0x00	; 0
	.db #0x00	; 0
	.db #0x00	; 0
	.db #0x00	; 0
	.db #0x00	; 0
	.db #0x00	; 0
	.db #0x00	; 0
	.db #0x00	; 0
	.db #0x00	; 0
	.db #0x00	; 0
	.db #0x00	; 0
	.db #0x00	; 0
	.db #0x00	; 0
	.db #0x00	; 0
	.db #0x00	; 0
	.db #0x00	; 0
	.db #0x00	; 0
	.db #0x0C	; 12
	.db #0x10	; 16
	.db #0xB8	; 184
	.db #0x24	; 36
	.db #0x00	; 0
	.db #0x00	; 0
	.db #0x00	; 0
	.db #0x00	; 0
	.db #0x00	; 0
	.db #0x00	; 0
	.db #0x00	; 0
	.db #0x0C	; 12
	.db #0x8A	; 138
	.db #0x18	; 24
	.db #0x10	; 16
	.db #0x14	; 20
	.db #0x0C	; 12
	.db #0x0C	; 12
	.db #0x00	; 0
	.db #0x00	; 0
	.db #0x00	; 0
	.db #0x00	; 0
	.db #0x00	; 0
	.db #0x0C	; 12
	.db #0x10	; 16
	.db #0x14	; 20
	.db #0xB2	; 178
	.db #0x10	; 16
	.db #0x14	; 20
	.db #0x14	; 20
	.db #0x0C	; 12
	.db #0x00	; 0
	.db #0x00	; 0
	.db #0x00	; 0
	.db #0x00	; 0
	.db #0x08	; 8
	.db #0xB2	; 178
	.db #0x14	; 20
	.db #0x14	; 20
	.db #0x8A	; 138
	.db #0x14	; 20
	.db #0x18	; 24
	.db #0x14	; 20
	.db #0xBC	; 188
	.db #0x24	; 36
	.db #0x00	; 0
	.db #0x00	; 0
	.db #0x18	; 24
	.db #0x20	; 32
	.db #0x14	; 20
	.db #0xB2	; 178
	.db #0x10	; 16
	.db #0x10	; 16
	.db #0x14	; 20
	.db #0x1C	; 28
	.db #0x24	; 36
	.db #0x04	; 4
	.db #0x00	; 0
	.db #0x00	; 0
	.db #0x00	; 0
	.db #0x18	; 24
	.db #0x0C	; 12
	.db #0x20	; 32
	.db #0x1C	; 28
	.db #0x10	; 16
	.db #0x14	; 20
	.db #0x14	; 20
	.db #0x0C	; 12
	.db #0x04	; 4
	.db #0x04	; 4
	.db #0x00	; 0
	.db #0x00	; 0
	.db #0x00	; 0
	.db #0x00	; 0
	.db #0x18	; 24
	.db #0x0C	; 12
	.db #0x10	; 16
	.db #0x14	; 20
	.db #0x10	; 16
	.db #0x0C	; 12
	.db #0x00	; 0
	.db #0x00	; 0
	.db #0x00	; 0
	.db #0x00	; 0
	.db #0x00	; 0
	.db #0x00	; 0
	.db #0x00	; 0
	.db #0x9C	; 156
	.db #0x18	; 24
	.db #0x0C	; 12
	.db #0x24	; 36
	.db #0x04	; 4
	.db #0x00	; 0
	.db #0x00	; 0
	.db #0x00	; 0
	.db #0x00	; 0
	.db #0x00	; 0
	.db #0x00	; 0
	.db #0x00	; 0
	.db #0x00	; 0
	.db #0x00	; 0
	.db #0x00	; 0
	.db #0x04	; 4
	.db #0x04	; 4
	.db #0x00	; 0
	.db #0x00	; 0
	.db #0x00	; 0
	.db #0x00	; 0
	.db #0x00	; 0
	.db #0x00	; 0
	.db #0x00	; 0
	.db #0x00	; 0
	.db #0x00	; 0
	.db #0x00	; 0
	.db #0x00	; 0
	.db #0x00	; 0
	.db #0x00	; 0
	.db #0x00	; 0
	.db #0x00	; 0
	.db #0x00	; 0
	.db #0x00	; 0
	.db #0x00	; 0
	.db #0x00	; 0
	.db #0x00	; 0
	.db #0x00	; 0
	.db #0x00	; 0
	.db #0x00	; 0
	.db #0x00	; 0
	.db #0x98	; 152
	.db #0x10	; 16
	.db #0x0C	; 12
	.db #0x0C	; 12
	.db #0x00	; 0
	.db #0x00	; 0
	.db #0x00	; 0
	.db #0x00	; 0
	.db #0x00	; 0
	.db #0x00	; 0
	.db #0x00	; 0
	.db #0x00	; 0
	.db #0x10	; 16
	.db #0x18	; 24
	.db #0x14	; 20
	.db #0x14	; 20
	.db #0x14	; 20
	.db #0x0C	; 12
	.db #0x00	; 0
	.db #0x00	; 0
	.db #0x00	; 0
	.db #0x00	; 0
	.db #0x00	; 0
	.db #0x00	; 0
	.db #0x00	; 0
	.db #0x08	; 8
	.db #0x8A	; 138
	.db #0x14	; 20
	.db #0x14	; 20
	.db #0x18	; 24
	.db #0x10	; 16
	.db #0x98	; 152
	.db #0x00	; 0
	.db #0x00	; 0
	.db #0x00	; 0
	.db #0x00	; 0
	.db #0x00	; 0
	.db #0x08	; 8
	.db #0x0C	; 12
	.db #0x14	; 20
	.db #0xD6	; 214
	.db #0xB2	; 178
	.db #0x8A	; 138
	.db #0x1C	; 28
	.db #0x10	; 16
	.db #0x00	; 0
	.db #0x00	; 0
	.db #0x00	; 0
	.db #0x00	; 0
	.db #0x00	; 0
	.db #0x0C	; 12
	.db #0x10	; 16
	.db #0x14	; 20
	.db #0x18	; 24
	.db #0x1C	; 28
	.db #0x14	; 20
	.db #0x08	; 8
	.db #0x04	; 4
	.db #0x00	; 0
	.db #0x00	; 0
	.db #0x00	; 0
	.db #0x00	; 0
	.db #0x14	; 20
	.db #0x0C	; 12
	.db #0x14	; 20
	.db #0xB2	; 178
	.db #0x1C	; 28
	.db #0x14	; 20
	.db #0x14	; 20
	.db #0x08	; 8
	.db #0x04	; 4
	.db #0x00	; 0
	.db #0x00	; 0
	.db #0x00	; 0
	.db #0x00	; 0
	.db #0x04	; 4
	.db #0x10	; 16
	.db #0x14	; 20
	.db #0x10	; 16
	.db #0xB2	; 178
	.db #0x14	; 20
	.db #0x0C	; 12
	.db #0x00	; 0
	.db #0x00	; 0
	.db #0x00	; 0
	.db #0x00	; 0
	.db #0x00	; 0
	.db #0x00	; 0
	.db #0x04	; 4
	.db #0x10	; 16
	.db #0x20	; 32
	.db #0x10	; 16
	.db #0x0C	; 12
	.db #0x14	; 20
	.db #0x0C	; 12
	.db #0x14	; 20
	.db #0x00	; 0
	.db #0x00	; 0
	.db #0x00	; 0
	.db #0x00	; 0
	.db #0x00	; 0
	.db #0x00	; 0
	.db #0x18	; 24
	.db #0x1C	; 28
	.db #0x20	; 32
	.db #0x10	; 16
	.db #0x9C	; 156
	.db #0x14	; 20
	.db #0x04	; 4
	.db #0x00	; 0
	.db #0x00	; 0
	.db #0x00	; 0
	.db #0x00	; 0
	.db #0x00	; 0
	.db #0x00	; 0
	.db #0x00	; 0
	.db #0x00	; 0
	.db #0x1C	; 28
	.db #0x18	; 24
	.db #0x00	; 0
	.db #0x04	; 4
	.db #0x00	; 0
	.db #0x00	; 0
	.db #0x00	; 0
	.db #0x00	; 0
	.db #0x00	; 0
	.db #0x00	; 0
	.db #0x00	; 0
	.db #0x00	; 0
	.db #0x00	; 0
	.db #0x00	; 0
	.db #0x00	; 0
	.db #0x00	; 0
	.db #0x00	; 0
	.db #0x00	; 0
	.db #0x00	; 0
	.db #0x00	; 0
	.db #0x00	; 0
	.db #0x00	; 0
	.db #0x00	; 0
	.db #0x00	; 0
	.db #0x00	; 0
	.db #0x00	; 0
	.db #0x0C	; 12
	.db #0x0C	; 12
	.db #0x0C	; 12
	.db #0x0C	; 12
	.db #0x00	; 0
	.db #0x00	; 0
	.db #0x00	; 0
	.db #0x00	; 0
	.db #0x00	; 0
	.db #0x00	; 0
	.db #0x00	; 0
	.db #0x00	; 0
	.db #0x98	; 152
	.db #0x10	; 16
	.db #0x14	; 20
	.db #0x14	; 20
	.db #0x10	; 16
	.db #0x98	; 152
	.db #0x00	; 0
	.db #0x00	; 0
	.db #0x00	; 0
	.db #0x00	; 0
	.db #0x00	; 0
	.db #0x00	; 0
	.db #0x10	; 16
	.db #0x18	; 24
	.db #0x14	; 20
	.db #0x14	; 20
	.db #0x18	; 24
	.db #0x14	; 20
	.db #0x1C	; 28
	.db #0x10	; 16
	.db #0x00	; 0
	.db #0x00	; 0
	.db #0x00	; 0
	.db #0x00	; 0
	.db #0x00	; 0
	.db #0x0C	; 12
	.db #0x08	; 8
	.db #0x8A	; 138
	.db #0xD6	; 214
	.db #0xB2	; 178
	.db #0x8A	; 138
	.db #0x08	; 8
	.db #0x0C	; 12
	.db #0x00	; 0
	.db #0x00	; 0
	.db #0x00	; 0
	.db #0x00	; 0
	.db #0x00	; 0
	.db #0x04	; 4
	.db #0x08	; 8
	.db #0x14	; 20
	.db #0x18	; 24
	.db #0x1C	; 28
	.db #0x14	; 20
	.db #0x08	; 8
	.db #0x04	; 4
	.db #0x00	; 0
	.db #0x00	; 0
	.db #0x00	; 0
	.db #0x00	; 0
	.db #0x00	; 0
	.db #0x00	; 0
	.db #0x0C	; 12
	.db #0x14	; 20
	.db #0x18	; 24
	.db #0x1C	; 28
	.db #0x14	; 20
	.db #0x0C	; 12
	.db #0x00	; 0
	.db #0x00	; 0
	.db #0x00	; 0
	.db #0x00	; 0
	.db #0x00	; 0
	.db #0x00	; 0
	.db #0x14	; 20
	.db #0x0C	; 12
	.db #0x14	; 20
	.db #0xB2	; 178
	.db #0xB2	; 178
	.db #0x14	; 20
	.db #0x0C	; 12
	.db #0x14	; 20
	.db #0x00	; 0
	.db #0x00	; 0
	.db #0x00	; 0
	.db #0x00	; 0
	.db #0x00	; 0
	.db #0x14	; 20
	.db #0x10	; 16
	.db #0x14	; 20
	.db #0x10	; 16
	.db #0x0C	; 12
	.db #0x14	; 20
	.db #0x10	; 16
	.db #0x14	; 20
	.db #0x00	; 0
	.db #0x00	; 0
	.db #0x00	; 0
	.db #0x00	; 0
	.db #0x00	; 0
	.db #0x04	; 4
	.db #0x9C	; 156
	.db #0x10	; 16
	.db #0x20	; 32
	.db #0x20	; 32
	.db #0x10	; 16
	.db #0x9C	; 156
	.db #0x04	; 4
	.db #0x00	; 0
	.db #0x00	; 0
	.db #0x00	; 0
	.db #0x00	; 0
	.db #0x00	; 0
	.db #0x00	; 0
	.db #0x00	; 0
	.db #0x18	; 24
	.db #0x1C	; 28
	.db #0x1C	; 28
	.db #0x18	; 24
	.db #0x00	; 0
	.db #0x00	; 0
	.db #0x00	; 0
	.db #0x00	; 0
	.db #0x00	; 0
	.db #0x00	; 0
	.db #0x00	; 0
	.db #0x00	; 0
	.db #0x00	; 0
	.db #0x00	; 0
	.db #0x00	; 0
	.db #0x00	; 0
	.db #0x00	; 0
	.db #0x00	; 0
	.db #0x00	; 0
	.db #0x00	; 0
	.db #0x00	; 0
	.db #0x00	; 0
	.db #0x00	; 0
	.db #0x00	; 0
	.db #0x00	; 0
	.db #0x00	; 0
	.db #0x00	; 0
	.db #0x0C	; 12
	.db #0x0C	; 12
	.db #0x0C	; 12
	.db #0x24	; 36
	.db #0x00	; 0
	.db #0x00	; 0
	.db #0x00	; 0
	.db #0x00	; 0
	.db #0x00	; 0
	.db #0x00	; 0
	.db #0x00	; 0
	.db #0x24	; 36
	.db #0x0C	; 12
	.db #0x0C	; 12
	.db #0x14	; 20
	.db #0x10	; 16
	.db #0x98	; 152
	.db #0x00	; 0
	.db #0x00	; 0
	.db #0x00	; 0
	.db #0x00	; 0
	.db #0x00	; 0
	.db #0x00	; 0
	.db #0x00	; 0
	.db #0x98	; 152
	.db #0x10	; 16
	.db #0x14	; 20
	.db #0x18	; 24
	.db #0x14	; 20
	.db #0x1C	; 28
	.db #0x10	; 16
	.db #0x00	; 0
	.db #0x00	; 0
	.db #0x00	; 0
	.db #0x00	; 0
	.db #0x00	; 0
	.db #0x10	; 16
	.db #0x18	; 24
	.db #0x14	; 20
	.db #0x14	; 20
	.db #0xB2	; 178
	.db #0x8A	; 138
	.db #0x08	; 8
	.db #0x0C	; 12
	.db #0x00	; 0
	.db #0x00	; 0
	.db #0x00	; 0
	.db #0x00	; 0
	.db #0x00	; 0
	.db #0x00	; 0
	.db #0x0C	; 12
	.db #0x08	; 8
	.db #0x8A	; 138
	.db #0x18	; 24
	.db #0x1C	; 28
	.db #0x14	; 20
	.db #0x08	; 8
	.db #0x00	; 0
	.db #0x00	; 0
	.db #0x00	; 0
	.db #0x00	; 0
	.db #0x00	; 0
	.db #0x00	; 0
	.db #0x04	; 4
	.db #0x08	; 8
	.db #0x14	; 20
	.db #0x18	; 24
	.db #0x1C	; 28
	.db #0x14	; 20
	.db #0x0C	; 12
	.db #0x14	; 20
	.db #0x00	; 0
	.db #0x00	; 0
	.db #0x00	; 0
	.db #0x00	; 0
	.db #0x00	; 0
	.db #0x00	; 0
	.db #0x0C	; 12
	.db #0x14	; 20
	.db #0xB2	; 178
	.db #0xB2	; 178
	.db #0x14	; 20
	.db #0x0C	; 12
	.db #0x14	; 20
	.db #0x00	; 0
	.db #0x00	; 0
	.db #0x00	; 0
	.db #0x00	; 0
	.db #0x00	; 0
	.db #0x14	; 20
	.db #0x0C	; 12
	.db #0x14	; 20
	.db #0x10	; 16
	.db #0x0C	; 12
	.db #0x14	; 20
	.db #0x10	; 16
	.db #0x04	; 4
	.db #0x00	; 0
	.db #0x00	; 0
	.db #0x00	; 0
	.db #0x00	; 0
	.db #0x00	; 0
	.db #0x00	; 0
	.db #0x14	; 20
	.db #0x10	; 16
	.db #0x10	; 16
	.db #0x20	; 32
	.db #0x20	; 32
	.db #0x10	; 16
	.db #0x9C	; 156
	.db #0x00	; 0
	.db #0x00	; 0
	.db #0x00	; 0
	.db #0x00	; 0
	.db #0x00	; 0
	.db #0x00	; 0
	.db #0x04	; 4
	.db #0x9C	; 156
	.db #0x18	; 24
	.db #0x1C	; 28
	.db #0x1C	; 28
	.db #0x18	; 24
	.db #0x00	; 0
	.db #0x00	; 0
	.db #0x00	; 0
	.db #0x00	; 0
	.db #0x00	; 0
	.db #0x00	; 0
	.db #0x00	; 0
	.db #0x00	; 0
	.db #0x00	; 0
	.db #0x00	; 0
	.db #0x00	; 0
	.db #0x00	; 0
	.db #0x00	; 0
	.db #0x00	; 0
	.db #0x00	; 0
	.db #0x00	; 0
	.db #0x00	; 0
	.db #0x00	; 0
	.db #0x00	; 0
	.db #0x00	; 0
	.db #0x00	; 0
	.db #0x00	; 0
	.db #0x00	; 0
	.db #0x00	; 0
	.db #0x00	; 0
	.db #0x00	; 0
	.db #0x00	; 0
	.db #0x00	; 0
	.db #0x00	; 0
	.db #0x00	; 0
	.db #0x00	; 0
	.db #0x00	; 0
	.db #0x24	; 36
	.db #0xB8	; 184
	.db #0x10	; 16
	.db #0x0C	; 12
	.db #0x00	; 0
	.db #0x00	; 0
	.db #0x00	; 0
	.db #0x00	; 0
	.db #0x00	; 0
	.db #0x00	; 0
	.db #0x00	; 0
	.db #0x00	; 0
	.db #0x00	; 0
	.db #0x0C	; 12
	.db #0x14	; 20
	.db #0x10	; 16
	.db #0x18	; 24
	.db #0x8A	; 138
	.db #0x0C	; 12
	.db #0x00	; 0
	.db #0x00	; 0
	.db #0x00	; 0
	.db #0x00	; 0
	.db #0x00	; 0
	.db #0x00	; 0
	.db #0x0C	; 12
	.db #0x14	; 20
	.db #0x14	; 20
	.db #0x10	; 16
	.db #0xB2	; 178
	.db #0x14	; 20
	.db #0x10	; 16
	.db #0x0C	; 12
	.db #0x00	; 0
	.db #0x00	; 0
	.db #0x00	; 0
	.db #0x00	; 0
	.db #0x24	; 36
	.db #0xBC	; 188
	.db #0x14	; 20
	.db #0x18	; 24
	.db #0x14	; 20
	.db #0x8A	; 138
	.db #0x14	; 20
	.db #0x14	; 20
	.db #0xB2	; 178
	.db #0x08	; 8
	.db #0x00	; 0
	.db #0x00	; 0
	.db #0x00	; 0
	.db #0x00	; 0
	.db #0x24	; 36
	.db #0x24	; 36
	.db #0x1C	; 28
	.db #0x14	; 20
	.db #0x10	; 16
	.db #0x10	; 16
	.db #0xB2	; 178
	.db #0x14	; 20
	.db #0x20	; 32
	.db #0x18	; 24
	.db #0x00	; 0
	.db #0x00	; 0
	.db #0x00	; 0
	.db #0x04	; 4
	.db #0x04	; 4
	.db #0x0C	; 12
	.db #0x14	; 20
	.db #0x14	; 20
	.db #0x10	; 16
	.db #0x1C	; 28
	.db #0x20	; 32
	.db #0x0C	; 12
	.db #0x18	; 24
	.db #0x00	; 0
	.db #0x00	; 0
	.db #0x00	; 0
	.db #0x00	; 0
	.db #0x00	; 0
	.db #0x00	; 0
	.db #0x0C	; 12
	.db #0x10	; 16
	.db #0x14	; 20
	.db #0x10	; 16
	.db #0x0C	; 12
	.db #0x18	; 24
	.db #0x00	; 0
	.db #0x00	; 0
	.db #0x00	; 0
	.db #0x00	; 0
	.db #0x00	; 0
	.db #0x00	; 0
	.db #0x00	; 0
	.db #0x00	; 0
	.db #0x04	; 4
	.db #0x04	; 4
	.db #0x0C	; 12
	.db #0x18	; 24
	.db #0x9C	; 156
	.db #0x00	; 0
	.db #0x00	; 0
	.db #0x00	; 0
	.db #0x00	; 0
	.db #0x00	; 0
	.db #0x00	; 0
	.db #0x00	; 0
	.db #0x00	; 0
	.db #0x00	; 0
	.db #0x04	; 4
	.db #0x04	; 4
	.db #0x00	; 0
	.db #0x00	; 0
	.db #0x00	; 0
	.db #0x00	; 0
	.db #0x00	; 0
	.db #0x00	; 0
	.db #0x00	; 0
	.db #0x00	; 0
	.db #0x00	; 0
	.db #0x00	; 0
	.db #0x00	; 0
	.db #0x00	; 0
	.db #0x00	; 0
	.db #0x00	; 0
	.db #0x00	; 0
	.db #0x00	; 0
	.db #0x00	; 0
	.db #0x00	; 0
	.db #0x00	; 0
	.db #0x00	; 0
	.db #0x00	; 0
	.db #0x00	; 0
	.db #0x00	; 0
	.db #0x00	; 0
	.db #0x00	; 0
	.db #0x00	; 0
	.db #0x00	; 0
	.db #0x00	; 0
	.db #0x00	; 0
	.db #0x00	; 0
	.db #0x00	; 0
	.db #0x00	; 0
	.db #0x00	; 0
	.db #0x98	; 152
	.db #0x0C	; 12
	.db #0x00	; 0
	.db #0x00	; 0
	.db #0x00	; 0
	.db #0x00	; 0
	.db #0x00	; 0
	.db #0x00	; 0
	.db #0x00	; 0
	.db #0x00	; 0
	.db #0x00	; 0
	.db #0x00	; 0
	.db #0x04	; 4
	.db #0x14	; 20
	.db #0x10	; 16
	.db #0x10	; 16
	.db #0x65	; 101	e
	.db #0x10	; 16
	.db #0x0C	; 12
	.db #0x00	; 0
	.db #0x00	; 0
	.db #0x00	; 0
	.db #0x00	; 0
	.db #0x00	; 0
	.db #0x10	; 16
	.db #0x1C	; 28
	.db #0x18	; 24
	.db #0x14	; 20
	.db #0xAE	; 174
	.db #0x1C	; 28
	.db #0x1C	; 28
	.db #0x65	; 101	e
	.db #0x0C	; 12
	.db #0x08	; 8
	.db #0x14	; 20
	.db #0x00	; 0
	.db #0x00	; 0
	.db #0x14	; 20
	.db #0x14	; 20
	.db #0x14	; 20
	.db #0x14	; 20
	.db #0xD2	; 210
	.db #0x1C	; 28
	.db #0x1C	; 28
	.db #0xAE	; 174
	.db #0x14	; 20
	.db #0x20	; 32
	.db #0x14	; 20
	.db #0x00	; 0
	.db #0x00	; 0
	.db #0x18	; 24
	.db #0xFC	; 252
	.db #0x18	; 24
	.db #0x10	; 16
	.db #0x14	; 20
	.db #0x1C	; 28
	.db #0x14	; 20
	.db #0x14	; 20
	.db #0x1C	; 28
	.db #0x20	; 32
	.db #0x1C	; 28
	.db #0x00	; 0
	.db #0x00	; 0
	.db #0x04	; 4
	.db #0x18	; 24
	.db #0x24	; 36
	.db #0x1C	; 28
	.db #0x14	; 20
	.db #0x14	; 20
	.db #0x14	; 20
	.db #0x14	; 20
	.db #0x14	; 20
	.db #0x14	; 20
	.db #0x0C	; 12
	.db #0x00	; 0
	.db #0x00	; 0
	.db #0x00	; 0
	.db #0x04	; 4
	.db #0x04	; 4
	.db #0x0C	; 12
	.db #0x10	; 16
	.db #0x0C	; 12
	.db #0x24	; 36
	.db #0x1C	; 28
	.db #0x18	; 24
	.db #0x9C	; 156
	.db #0x00	; 0
	.db #0x00	; 0
	.db #0x00	; 0
	.db #0x00	; 0
	.db #0x00	; 0
	.db #0x00	; 0
	.db #0x00	; 0
	.db #0x00	; 0
	.db #0x00	; 0
	.db #0x04	; 4
	.db #0x24	; 36
	.db #0x14	; 20
	.db #0x18	; 24
	.db #0x00	; 0
	.db #0x00	; 0
	.db #0x00	; 0
	.db #0x00	; 0
	.db #0x00	; 0
	.db #0x00	; 0
	.db #0x00	; 0
	.db #0x00	; 0
	.db #0x00	; 0
	.db #0x00	; 0
	.db #0x04	; 4
	.db #0x00	; 0
	.db #0x00	; 0
	.db #0x00	; 0
	.db #0x00	; 0
	.db #0x00	; 0
	.db #0x00	; 0
	.db #0x00	; 0
	.db #0x00	; 0
	.db #0x00	; 0
	.db #0x00	; 0
	.db #0x00	; 0
	.db #0x00	; 0
	.db #0x00	; 0
	.db #0x00	; 0
	.db #0x00	; 0
	.db #0x00	; 0
	.db #0x00	; 0
	.db #0x00	; 0
	.db #0x00	; 0
	.db #0x00	; 0
	.db #0x00	; 0
	.db #0x00	; 0
	.db #0x00	; 0
	.db #0x00	; 0
	.db #0x00	; 0
	.db #0x00	; 0
	.db #0x00	; 0
	.db #0x00	; 0
	.db #0x00	; 0
	.db #0x00	; 0
	.db #0x00	; 0
	.db #0x00	; 0
	.db #0x00	; 0
	.db #0x00	; 0
	.db #0x00	; 0
	.db #0x00	; 0
	.db #0x00	; 0
	.db #0x00	; 0
	.db #0x00	; 0
	.db #0x00	; 0
	.db #0x00	; 0
	.db #0x00	; 0
	.db #0x00	; 0
	.db #0x00	; 0
	.db #0x00	; 0
	.db #0xB8	; 184
	.db #0x10	; 16
	.db #0x10	; 16
	.db #0x65	; 101	e
	.db #0x14	; 20
	.db #0x14	; 20
	.db #0x65	; 101	e
	.db #0x0C	; 12
	.db #0x08	; 8
	.db #0x14	; 20
	.db #0x00	; 0
	.db #0x00	; 0
	.db #0x04	; 4
	.db #0x14	; 20
	.db #0x14	; 20
	.db #0x14	; 20
	.db #0xAE	; 174
	.db #0x1C	; 28
	.db #0x1C	; 28
	.db #0xAE	; 174
	.db #0x14	; 20
	.db #0x20	; 32
	.db #0x14	; 20
	.db #0x00	; 0
	.db #0x00	; 0
	.db #0x10	; 16
	.db #0x1C	; 28
	.db #0x18	; 24
	.db #0x14	; 20
	.db #0xD2	; 210
	.db #0x1C	; 28
	.db #0x1C	; 28
	.db #0x14	; 20
	.db #0x1C	; 28
	.db #0x20	; 32
	.db #0x1C	; 28
	.db #0x00	; 0
	.db #0x00	; 0
	.db #0x14	; 20
	.db #0x14	; 20
	.db #0x14	; 20
	.db #0x10	; 16
	.db #0x14	; 20
	.db #0x1C	; 28
	.db #0x14	; 20
	.db #0x14	; 20
	.db #0x14	; 20
	.db #0x14	; 20
	.db #0x0C	; 12
	.db #0x00	; 0
	.db #0x00	; 0
	.db #0x18	; 24
	.db #0xFC	; 252
	.db #0x18	; 24
	.db #0x1C	; 28
	.db #0x14	; 20
	.db #0x14	; 20
	.db #0x14	; 20
	.db #0x14	; 20
	.db #0x1C	; 28
	.db #0x18	; 24
	.db #0x9C	; 156
	.db #0x00	; 0
	.db #0x00	; 0
	.db #0x04	; 4
	.db #0x18	; 24
	.db #0x24	; 36
	.db #0x24	; 36
	.db #0x0C	; 12
	.db #0x10	; 16
	.db #0x0C	; 12
	.db #0x24	; 36
	.db #0x24	; 36
	.db #0x14	; 20
	.db #0x18	; 24
	.db #0x00	; 0
	.db #0x00	; 0
	.db #0x00	; 0
	.db #0x00	; 0
	.db #0x04	; 4
	.db #0x04	; 4
	.db #0x00	; 0
	.db #0x00	; 0
	.db #0x00	; 0
	.db #0x04	; 4
	.db #0x04	; 4
	.db #0x00	; 0
	.db #0x00	; 0
	.db #0x00	; 0
	.db #0x00	; 0
	.db #0x00	; 0
	.db #0x00	; 0
	.db #0x00	; 0
	.db #0x00	; 0
	.db #0x00	; 0
	.db #0x00	; 0
	.db #0x00	; 0
	.db #0x00	; 0
	.db #0x00	; 0
	.db #0x00	; 0
	.db #0x00	; 0
	.db #0x00	; 0
	.db #0x00	; 0
	.db #0x00	; 0
	.db #0x00	; 0
	.db #0x00	; 0
	.db #0x00	; 0
	.db #0x00	; 0
	.db #0x00	; 0
	.db #0x00	; 0
	.db #0x00	; 0
	.db #0x00	; 0
	.db #0x00	; 0
	.db #0x00	; 0
	.db #0x00	; 0
	.db #0x00	; 0
	.db #0x00	; 0
	.db #0x00	; 0
	.db #0x00	; 0
	.db #0x00	; 0
	.db #0x00	; 0
	.db #0x00	; 0
	.db #0x00	; 0
	.db #0x00	; 0
	.db #0x00	; 0
	.db #0x00	; 0
	.db #0x00	; 0
	.db #0x00	; 0
	.db #0x00	; 0
	.db #0x00	; 0
	.db #0x00	; 0
	.db #0x00	; 0
	.db #0x00	; 0
	.db #0x00	; 0
	.db #0x00	; 0
	.db #0x08	; 8
	.db #0x08	; 8
	.db #0x14	; 20
	.db #0x5C	; 92
	.db #0x00	; 0
	.db #0x00	; 0
	.db #0x00	; 0
	.db #0x00	; 0
	.db #0x00	; 0
	.db #0x00	; 0
	.db #0x65	; 101	e
	.db #0x14	; 20
	.db #0x14	; 20
	.db #0x65	; 101	e
	.db #0x0C	; 12
	.db #0x20	; 32
	.db #0x14	; 20
	.db #0x00	; 0
	.db #0x00	; 0
	.db #0x00	; 0
	.db #0xB8	; 184
	.db #0x10	; 16
	.db #0x10	; 16
	.db #0xAE	; 174
	.db #0x1C	; 28
	.db #0x1C	; 28
	.db #0xAE	; 174
	.db #0x14	; 20
	.db #0x20	; 32
	.db #0x1C	; 28
	.db #0x0C	; 12
	.db #0x00	; 0
	.db #0x04	; 4
	.db #0x14	; 20
	.db #0x14	; 20
	.db #0x14	; 20
	.db #0xD2	; 210
	.db #0x1C	; 28
	.db #0x1C	; 28
	.db #0x14	; 20
	.db #0x1C	; 28
	.db #0x14	; 20
	.db #0x0C	; 12
	.db #0x0C	; 12
	.db #0x00	; 0
	.db #0x00	; 0
	.db #0x10	; 16
	.db #0x1C	; 28
	.db #0x18	; 24
	.db #0x10	; 16
	.db #0x14	; 20
	.db #0x1C	; 28
	.db #0x14	; 20
	.db #0x14	; 20
	.db #0x1C	; 28
	.db #0x18	; 24
	.db #0x9C	; 156
	.db #0x00	; 0
	.db #0x00	; 0
	.db #0x14	; 20
	.db #0x14	; 20
	.db #0x14	; 20
	.db #0x1C	; 28
	.db #0x14	; 20
	.db #0x14	; 20
	.db #0x14	; 20
	.db #0x04	; 4
	.db #0x24	; 36
	.db #0x14	; 20
	.db #0x18	; 24
	.db #0x00	; 0
	.db #0x00	; 0
	.db #0x18	; 24
	.db #0xFC	; 252
	.db #0x18	; 24
	.db #0x0C	; 12
	.db #0x0C	; 12
	.db #0x10	; 16
	.db #0x0C	; 12
	.db #0x04	; 4
	.db #0x04	; 4
	.db #0x00	; 0
	.db #0x00	; 0
	.db #0x00	; 0
	.db #0x00	; 0
	.db #0x04	; 4
	.db #0x18	; 24
	.db #0x24	; 36
	.db #0x04	; 4
	.db #0x0C	; 12
	.db #0x00	; 0
	.db #0x00	; 0
	.db #0x00	; 0
	.db #0x00	; 0
	.db #0x00	; 0
	.db #0x00	; 0
	.db #0x00	; 0
	.db #0x00	; 0
	.db #0x00	; 0
	.db #0x00	; 0
	.db #0x04	; 4
	.db #0x04	; 4
	.db #0x00	; 0
	.db #0x00	; 0
	.db #0x00	; 0
	.db #0x00	; 0
	.db #0x00	; 0
	.db #0x00	; 0
	.db #0x00	; 0
	.db #0x00	; 0
	.db #0x00	; 0
	.db #0x00	; 0
	.db #0x00	; 0
	.db #0x00	; 0
	.db #0x00	; 0
	.db #0x00	; 0
	.db #0x00	; 0
	.db #0x00	; 0
	.db #0x00	; 0
	.db #0x00	; 0
	.db #0x00	; 0
	.db #0x00	; 0
	.db #0x00	; 0
	.db #0x00	; 0
	.db #0x00	; 0
	.db #0x00	; 0
	.db #0x00	; 0
	.db #0x00	; 0
	.db #0x00	; 0
	.db #0x00	; 0
	.db #0x10	; 16
	.db #0x18	; 24
	.db #0x00	; 0
	.db #0x00	; 0
	.db #0x00	; 0
	.db #0x00	; 0
	.db #0x00	; 0
	.db #0x00	; 0
	.db #0x00	; 0
	.db #0x00	; 0
	.db #0x00	; 0
	.db #0x00	; 0
	.db #0x0C	; 12
	.db #0x14	; 20
	.db #0x0C	; 12
	.db #0x1C	; 28
	.db #0x00	; 0
	.db #0x00	; 0
	.db #0x00	; 0
	.db #0x00	; 0
	.db #0x00	; 0
	.db #0x00	; 0
	.db #0x00	; 0
	.db #0x0C	; 12
	.db #0x0C	; 12
	.db #0x14	; 20
	.db #0x20	; 32
	.db #0x0C	; 12
	.db #0x0C	; 12
	.db #0x18	; 24
	.db #0x00	; 0
	.db #0x00	; 0
	.db #0x00	; 0
	.db #0x00	; 0
	.db #0x00	; 0
	.db #0x0C	; 12
	.db #0x0C	; 12
	.db #0x14	; 20
	.db #0x18	; 24
	.db #0xB2	; 178
	.db #0x20	; 32
	.db #0x10	; 16
	.db #0x10	; 16
	.db #0x10	; 16
	.db #0x00	; 0
	.db #0x00	; 0
	.db #0x00	; 0
	.db #0x14	; 20
	.db #0x14	; 20
	.db #0x8A	; 138
	.db #0x18	; 24
	.db #0x18	; 24
	.db #0x1C	; 28
	.db #0x14	; 20
	.db #0x0C	; 12
	.db #0x14	; 20
	.db #0x10	; 16
	.db #0x00	; 0
	.db #0x00	; 0
	.db #0x00	; 0
	.db #0x18	; 24
	.db #0x14	; 20
	.db #0x18	; 24
	.db #0xD6	; 214
	.db #0x1C	; 28
	.db #0x14	; 20
	.db #0x0C	; 12
	.db #0x10	; 16
	.db #0x24	; 36
	.db #0x00	; 0
	.db #0x00	; 0
	.db #0x00	; 0
	.db #0xFC	; 252
	.db #0x10	; 16
	.db #0x14	; 20
	.db #0x18	; 24
	.db #0x1C	; 28
	.db #0x8A	; 138
	.db #0x0C	; 12
	.db #0x0C	; 12
	.db #0x24	; 36
	.db #0x04	; 4
	.db #0x00	; 0
	.db #0x00	; 0
	.db #0x00	; 0
	.db #0x04	; 4
	.db #0x10	; 16
	.db #0x14	; 20
	.db #0x18	; 24
	.db #0x14	; 20
	.db #0x1C	; 28
	.db #0x14	; 20
	.db #0x00	; 0
	.db #0x00	; 0
	.db #0x00	; 0
	.db #0x00	; 0
	.db #0x00	; 0
	.db #0x00	; 0
	.db #0x00	; 0
	.db #0x10	; 16
	.db #0x10	; 16
	.db #0x10	; 16
	.db #0x14	; 20
	.db #0x1C	; 28
	.db #0x14	; 20
	.db #0x00	; 0
	.db #0x00	; 0
	.db #0x00	; 0
	.db #0x00	; 0
	.db #0x00	; 0
	.db #0x00	; 0
	.db #0x00	; 0
	.db #0x00	; 0
	.db #0x0C	; 12
	.db #0x04	; 4
	.db #0xFC	; 252
	.db #0x24	; 36
	.db #0x00	; 0
	.db #0x00	; 0
	.db #0x00	; 0
	.db #0x00	; 0
	.db #0x00	; 0
	.db #0x00	; 0
	.db #0x00	; 0
	.db #0x00	; 0
	.db #0x00	; 0
	.db #0x00	; 0
	.db #0x00	; 0
	.db #0x04	; 4
	.db #0x04	; 4
	.db #0x00	; 0
	.db #0x00	; 0
	.db #0x00	; 0
	.db #0x00	; 0
	.db #0x00	; 0
	.db #0x00	; 0
	.db #0x00	; 0
	.db #0x00	; 0
	.db #0x00	; 0
	.db #0x00	; 0
	.db #0x10	; 16
	.db #0x18	; 24
	.db #0x1C	; 28
	.db #0x1C	; 28
	.db #0x18	; 24
	.db #0x00	; 0
	.db #0x00	; 0
	.db #0x00	; 0
	.db #0x00	; 0
	.db #0x00	; 0
	.db #0x00	; 0
	.db #0x00	; 0
	.db #0x14	; 20
	.db #0x0C	; 12
	.db #0x14	; 20
	.db #0x0C	; 12
	.db #0x0C	; 12
	.db #0x14	; 20
	.db #0x00	; 0
	.db #0x00	; 0
	.db #0x00	; 0
	.db #0x00	; 0
	.db #0x00	; 0
	.db #0x00	; 0
	.db #0x00	; 0
	.db #0x14	; 20
	.db #0x10	; 16
	.db #0x10	; 16
	.db #0x20	; 32
	.db #0x20	; 32
	.db #0x10	; 16
	.db #0x10	; 16
	.db #0x00	; 0
	.db #0x00	; 0
	.db #0x00	; 0
	.db #0x00	; 0
	.db #0x00	; 0
	.db #0x00	; 0
	.db #0x04	; 4
	.db #0x0C	; 12
	.db #0x14	; 20
	.db #0xB2	; 178
	.db #0xB2	; 178
	.db #0x14	; 20
	.db #0x0C	; 12
	.db #0x14	; 20
	.db #0x00	; 0
	.db #0x00	; 0
	.db #0x00	; 0
	.db #0x00	; 0
	.db #0x00	; 0
	.db #0x0C	; 12
	.db #0x14	; 20
	.db #0x18	; 24
	.db #0x1C	; 28
	.db #0x14	; 20
	.db #0x0C	; 12
	.db #0x14	; 20
	.db #0x04	; 4
	.db #0x00	; 0
	.db #0x00	; 0
	.db #0x00	; 0
	.db #0x00	; 0
	.db #0x0C	; 12
	.db #0x14	; 20
	.db #0x8A	; 138
	.db #0x18	; 24
	.db #0x1C	; 28
	.db #0x14	; 20
	.db #0x0C	; 12
	.db #0x04	; 4
	.db #0x00	; 0
	.db #0x00	; 0
	.db #0x00	; 0
	.db #0x00	; 0
	.db #0x00	; 0
	.db #0x14	; 20
	.db #0x18	; 24
	.db #0x14	; 20
	.db #0xD6	; 214
	.db #0xB2	; 178
	.db #0x8A	; 138
	.db #0x14	; 20
	.db #0x00	; 0
	.db #0x00	; 0
	.db #0x00	; 0
	.db #0x00	; 0
	.db #0x00	; 0
	.db #0x00	; 0
	.db #0x04	; 4
	.db #0x18	; 24
	.db #0x14	; 20
	.db #0x18	; 24
	.db #0x1C	; 28
	.db #0x14	; 20
	.db #0x1C	; 28
	.db #0x0C	; 12
	.db #0x00	; 0
	.db #0x00	; 0
	.db #0x00	; 0
	.db #0x00	; 0
	.db #0x00	; 0
	.db #0xFC	; 252
	.db #0x10	; 16
	.db #0x14	; 20
	.db #0x18	; 24
	.db #0x14	; 20
	.db #0x1C	; 28
	.db #0x04	; 4
	.db #0x00	; 0
	.db #0x00	; 0
	.db #0x00	; 0
	.db #0x00	; 0
	.db #0x00	; 0
	.db #0x00	; 0
	.db #0x04	; 4
	.db #0x0C	; 12
	.db #0x10	; 16
	.db #0x14	; 20
	.db #0x10	; 16
	.db #0xFC	; 252
	.db #0x04	; 4
	.db #0x00	; 0
	.db #0x00	; 0
	.db #0x00	; 0
	.db #0x00	; 0
	.db #0x00	; 0
	.db #0x00	; 0
	.db #0x00	; 0
	.db #0x00	; 0
	.db #0x00	; 0
	.db #0x10	; 16
	.db #0x0C	; 12
	.db #0x04	; 4
	.db #0x00	; 0
	.db #0x00	; 0
	.db #0x00	; 0
	.db #0x00	; 0
	.db #0x00	; 0
	.db #0x00	; 0
	.db #0x00	; 0
	.db #0x00	; 0
	.db #0x00	; 0
	.db #0x18	; 24
	.db #0x1C	; 28
	.db #0x1C	; 28
	.db #0x18	; 24
	.db #0x00	; 0
	.db #0x00	; 0
	.db #0x00	; 0
	.db #0x00	; 0
	.db #0x00	; 0
	.db #0x00	; 0
	.db #0x00	; 0
	.db #0x00	; 0
	.db #0x10	; 16
	.db #0x14	; 20
	.db #0x0C	; 12
	.db #0x0C	; 12
	.db #0x14	; 20
	.db #0x10	; 16
	.db #0x00	; 0
	.db #0x00	; 0
	.db #0x00	; 0
	.db #0x00	; 0
	.db #0x00	; 0
	.db #0x00	; 0
	.db #0x14	; 20
	.db #0x0C	; 12
	.db #0x10	; 16
	.db #0x20	; 32
	.db #0x20	; 32
	.db #0x10	; 16
	.db #0x0C	; 12
	.db #0x14	; 20
	.db #0x00	; 0
	.db #0x00	; 0
	.db #0x00	; 0
	.db #0x00	; 0
	.db #0x00	; 0
	.db #0x14	; 20
	.db #0x10	; 16
	.db #0x14	; 20
	.db #0xB2	; 178
	.db #0xB2	; 178
	.db #0x14	; 20
	.db #0x10	; 16
	.db #0x14	; 20
	.db #0x00	; 0
	.db #0x00	; 0
	.db #0x00	; 0
	.db #0x00	; 0
	.db #0x00	; 0
	.db #0x04	; 4
	.db #0x0C	; 12
	.db #0x14	; 20
	.db #0x18	; 24
	.db #0x1C	; 28
	.db #0x14	; 20
	.db #0x0C	; 12
	.db #0x04	; 4
	.db #0x00	; 0
	.db #0x00	; 0
	.db #0x00	; 0
	.db #0x00	; 0
	.db #0x00	; 0
	.db #0x00	; 0
	.db #0x0C	; 12
	.db #0x14	; 20
	.db #0x18	; 24
	.db #0x1C	; 28
	.db #0x14	; 20
	.db #0x0C	; 12
	.db #0x00	; 0
	.db #0x00	; 0
	.db #0x00	; 0
	.db #0x00	; 0
	.db #0x00	; 0
	.db #0x00	; 0
	.db #0x0C	; 12
	.db #0x14	; 20
	.db #0x8A	; 138
	.db #0xD6	; 214
	.db #0xB2	; 178
	.db #0x8A	; 138
	.db #0x14	; 20
	.db #0x0C	; 12
	.db #0x00	; 0
	.db #0x00	; 0
	.db #0x00	; 0
	.db #0x00	; 0
	.db #0x00	; 0
	.db #0x14	; 20
	.db #0x18	; 24
	.db #0x14	; 20
	.db #0x18	; 24
	.db #0x1C	; 28
	.db #0x14	; 20
	.db #0x1C	; 28
	.db #0x14	; 20
	.db #0x00	; 0
	.db #0x00	; 0
	.db #0x00	; 0
	.db #0x00	; 0
	.db #0x00	; 0
	.db #0x04	; 4
	.db #0x18	; 24
	.db #0x14	; 20
	.db #0x14	; 20
	.db #0x18	; 24
	.db #0x14	; 20
	.db #0x1C	; 28
	.db #0x04	; 4
	.db #0x00	; 0
	.db #0x00	; 0
	.db #0x00	; 0
	.db #0x00	; 0
	.db #0x00	; 0
	.db #0x00	; 0
	.db #0xFC	; 252
	.db #0x10	; 16
	.db #0x14	; 20
	.db #0x14	; 20
	.db #0x10	; 16
	.db #0xFC	; 252
	.db #0x00	; 0
	.db #0x00	; 0
	.db #0x00	; 0
	.db #0x00	; 0
	.db #0x00	; 0
	.db #0x00	; 0
	.db #0x00	; 0
	.db #0x04	; 4
	.db #0x0C	; 12
	.db #0x10	; 16
	.db #0x10	; 16
	.db #0x0C	; 12
	.db #0x04	; 4
	.db #0x00	; 0
	.db #0x00	; 0
	.db #0x00	; 0
	.db #0x00	; 0
	.db #0x00	; 0
	.db #0x00	; 0
	.db #0x00	; 0
	.db #0x00	; 0
	.db #0x18	; 24
	.db #0x1C	; 28
	.db #0x1C	; 28
	.db #0x18	; 24
	.db #0x10	; 16
	.db #0x00	; 0
	.db #0x00	; 0
	.db #0x00	; 0
	.db #0x00	; 0
	.db #0x00	; 0
	.db #0x00	; 0
	.db #0x00	; 0
	.db #0x00	; 0
	.db #0x14	; 20
	.db #0x0C	; 12
	.db #0x0C	; 12
	.db #0x14	; 20
	.db #0x0C	; 12
	.db #0x14	; 20
	.db #0x00	; 0
	.db #0x00	; 0
	.db #0x00	; 0
	.db #0x00	; 0
	.db #0x00	; 0
	.db #0x00	; 0
	.db #0x10	; 16
	.db #0x10	; 16
	.db #0x20	; 32
	.db #0x20	; 32
	.db #0x10	; 16
	.db #0x10	; 16
	.db #0x14	; 20
	.db #0x00	; 0
	.db #0x00	; 0
	.db #0x00	; 0
	.db #0x00	; 0
	.db #0x00	; 0
	.db #0x14	; 20
	.db #0x0C	; 12
	.db #0x14	; 20
	.db #0xB2	; 178
	.db #0xB2	; 178
	.db #0x14	; 20
	.db #0x0C	; 12
	.db #0x04	; 4
	.db #0x00	; 0
	.db #0x00	; 0
	.db #0x00	; 0
	.db #0x00	; 0
	.db #0x00	; 0
	.db #0x04	; 4
	.db #0x14	; 20
	.db #0x0C	; 12
	.db #0x14	; 20
	.db #0x1C	; 28
	.db #0x18	; 24
	.db #0x14	; 20
	.db #0x0C	; 12
	.db #0x00	; 0
	.db #0x00	; 0
	.db #0x00	; 0
	.db #0x00	; 0
	.db #0x00	; 0
	.db #0x00	; 0
	.db #0x04	; 4
	.db #0x0C	; 12
	.db #0x14	; 20
	.db #0x1C	; 28
	.db #0x18	; 24
	.db #0x8A	; 138
	.db #0x14	; 20
	.db #0x0C	; 12
	.db #0x00	; 0
	.db #0x00	; 0
	.db #0x00	; 0
	.db #0x00	; 0
	.db #0x00	; 0
	.db #0x00	; 0
	.db #0x14	; 20
	.db #0x8A	; 138
	.db #0xB2	; 178
	.db #0xD6	; 214
	.db #0x14	; 20
	.db #0x18	; 24
	.db #0x14	; 20
	.db #0x00	; 0
	.db #0x00	; 0
	.db #0x00	; 0
	.db #0x00	; 0
	.db #0x00	; 0
	.db #0x0C	; 12
	.db #0x1C	; 28
	.db #0x14	; 20
	.db #0x1C	; 28
	.db #0x18	; 24
	.db #0x14	; 20
	.db #0x18	; 24
	.db #0x04	; 4
	.db #0x00	; 0
	.db #0x00	; 0
	.db #0x00	; 0
	.db #0x00	; 0
	.db #0x00	; 0
	.db #0x00	; 0
	.db #0x24	; 36
	.db #0x1C	; 28
	.db #0x14	; 20
	.db #0x18	; 24
	.db #0x14	; 20
	.db #0x10	; 16
	.db #0xFC	; 252
	.db #0x00	; 0
	.db #0x00	; 0
	.db #0x00	; 0
	.db #0x00	; 0
	.db #0x00	; 0
	.db #0x00	; 0
	.db #0x04	; 4
	.db #0xFC	; 252
	.db #0x10	; 16
	.db #0x14	; 20
	.db #0x10	; 16
	.db #0x0C	; 12
	.db #0x04	; 4
	.db #0x00	; 0
	.db #0x00	; 0
	.db #0x00	; 0
	.db #0x00	; 0
	.db #0x00	; 0
	.db #0x00	; 0
	.db #0x00	; 0
	.db #0x04	; 4
	.db #0x0C	; 12
	.db #0x10	; 16
	.db #0x00	; 0
	.db #0x00	; 0
	.db #0x00	; 0
	.db #0x00	; 0
	.db #0x00	; 0
	.db #0x00	; 0
	.db #0x00	; 0
	.db #0x00	; 0
	.db #0x00	; 0
	.db #0x18	; 24
	.db #0x10	; 16
	.db #0x00	; 0
	.db #0x00	; 0
	.db #0x00	; 0
	.db #0x00	; 0
	.db #0x00	; 0
	.db #0x00	; 0
	.db #0x00	; 0
	.db #0x00	; 0
	.db #0x00	; 0
	.db #0x00	; 0
	.db #0x1C	; 28
	.db #0x0C	; 12
	.db #0x14	; 20
	.db #0x0C	; 12
	.db #0x00	; 0
	.db #0x00	; 0
	.db #0x00	; 0
	.db #0x00	; 0
	.db #0x00	; 0
	.db #0x00	; 0
	.db #0x00	; 0
	.db #0x00	; 0
	.db #0x18	; 24
	.db #0x0C	; 12
	.db #0x0C	; 12
	.db #0x20	; 32
	.db #0x14	; 20
	.db #0x0C	; 12
	.db #0x0C	; 12
	.db #0x00	; 0
	.db #0x00	; 0
	.db #0x00	; 0
	.db #0x00	; 0
	.db #0x00	; 0
	.db #0x10	; 16
	.db #0x10	; 16
	.db #0x10	; 16
	.db #0x20	; 32
	.db #0xB2	; 178
	.db #0x18	; 24
	.db #0x14	; 20
	.db #0x0C	; 12
	.db #0x0C	; 12
	.db #0x00	; 0
	.db #0x00	; 0
	.db #0x00	; 0
	.db #0x00	; 0
	.db #0x10	; 16
	.db #0x14	; 20
	.db #0x0C	; 12
	.db #0x14	; 20
	.db #0x1C	; 28
	.db #0x18	; 24
	.db #0x18	; 24
	.db #0x8A	; 138
	.db #0x14	; 20
	.db #0x14	; 20
	.db #0x00	; 0
	.db #0x00	; 0
	.db #0x00	; 0
	.db #0x00	; 0
	.db #0x24	; 36
	.db #0x10	; 16
	.db #0x0C	; 12
	.db #0x14	; 20
	.db #0x1C	; 28
	.db #0xD6	; 214
	.db #0x18	; 24
	.db #0x14	; 20
	.db #0x18	; 24
	.db #0x00	; 0
	.db #0x00	; 0
	.db #0x00	; 0
	.db #0x00	; 0
	.db #0x04	; 4
	.db #0x04	; 4
	.db #0x0C	; 12
	.db #0x0C	; 12
	.db #0x8A	; 138
	.db #0x1C	; 28
	.db #0x18	; 24
	.db #0x14	; 20
	.db #0x10	; 16
	.db #0xFC	; 252
	.db #0x00	; 0
	.db #0x00	; 0
	.db #0x00	; 0
	.db #0x00	; 0
	.db #0x00	; 0
	.db #0x00	; 0
	.db #0x14	; 20
	.db #0x1C	; 28
	.db #0x14	; 20
	.db #0x18	; 24
	.db #0x14	; 20
	.db #0x10	; 16
	.db #0x04	; 4
	.db #0x00	; 0
	.db #0x00	; 0
	.db #0x00	; 0
	.db #0x00	; 0
	.db #0x00	; 0
	.db #0x00	; 0
	.db #0x14	; 20
	.db #0x1C	; 28
	.db #0x14	; 20
	.db #0x10	; 16
	.db #0x10	; 16
	.db #0x10	; 16
	.db #0x00	; 0
	.db #0x00	; 0
	.db #0x00	; 0
	.db #0x00	; 0
	.db #0x00	; 0
	.db #0x00	; 0
	.db #0x00	; 0
	.db #0x00	; 0
	.db #0x24	; 36
	.db #0xFC	; 252
	.db #0x04	; 4
	.db #0x0C	; 12
	.db #0x00	; 0
	.db #0x00	; 0
	.db #0x00	; 0
	.db #0x00	; 0
	.db #0x00	; 0
	.db #0x00	; 0
	.db #0x00	; 0
	.db #0x00	; 0
	.db #0x00	; 0
	.db #0x04	; 4
	.db #0x04	; 4
	.db #0x00	; 0
	.db #0x00	; 0
	.db #0x00	; 0
	.db #0x00	; 0
	.db #0x00	; 0
	.db #0x00	; 0
	.db #0x00	; 0
	.db #0x00	; 0
	.db #0x00	; 0
	.db #0x00	; 0
	.db #0x00	; 0
	.db #0x00	; 0
	.db #0x00	; 0
	.db #0x00	; 0
	.db #0x00	; 0
	.db #0x00	; 0
	.db #0x00	; 0
	.db #0x00	; 0
	.db #0x00	; 0
	.db #0x00	; 0
	.db #0x14	; 20
	.db #0x08	; 8
	.db #0x0C	; 12
	.db #0x00	; 0
	.db #0x00	; 0
	.db #0x00	; 0
	.db #0x00	; 0
	.db #0x00	; 0
	.db #0x00	; 0
	.db #0x00	; 0
	.db #0x00	; 0
	.db #0x00	; 0
	.db #0x08	; 8
	.db #0x14	; 20
	.db #0x20	; 32
	.db #0x14	; 20
	.db #0x65	; 101	e
	.db #0x14	; 20
	.db #0x14	; 20
	.db #0x00	; 0
	.db #0x00	; 0
	.db #0x00	; 0
	.db #0x00	; 0
	.db #0x00	; 0
	.db #0x00	; 0
	.db #0x0C	; 12
	.db #0x1C	; 28
	.db #0x20	; 32
	.db #0x1C	; 28
	.db #0xAE	; 174
	.db #0x1C	; 28
	.db #0x1C	; 28
	.db #0x65	; 101	e
	.db #0x10	; 16
	.db #0x10	; 16
	.db #0xB8	; 184
	.db #0x00	; 0
	.db #0x00	; 0
	.db #0x0C	; 12
	.db #0x14	; 20
	.db #0x14	; 20
	.db #0x14	; 20
	.db #0x1C	; 28
	.db #0x1C	; 28
	.db #0xD2	; 210
	.db #0x14	; 20
	.db #0x14	; 20
	.db #0x14	; 20
	.db #0x04	; 4
	.db #0x00	; 0
	.db #0x00	; 0
	.db #0x9C	; 156
	.db #0x18	; 24
	.db #0x1C	; 28
	.db #0x14	; 20
	.db #0x14	; 20
	.db #0x1C	; 28
	.db #0x14	; 20
	.db #0x14	; 20
	.db #0x18	; 24
	.db #0x1C	; 28
	.db #0x10	; 16
	.db #0x00	; 0
	.db #0x00	; 0
	.db #0x18	; 24
	.db #0x14	; 20
	.db #0x24	; 36
	.db #0x24	; 36
	.db #0x14	; 20
	.db #0x14	; 20
	.db #0x14	; 20
	.db #0x10	; 16
	.db #0x14	; 20
	.db #0x14	; 20
	.db #0x14	; 20
	.db #0x00	; 0
	.db #0x00	; 0
	.db #0x00	; 0
	.db #0x00	; 0
	.db #0x04	; 4
	.db #0x04	; 4
	.db #0x0C	; 12
	.db #0x10	; 16
	.db #0x0C	; 12
	.db #0x1C	; 28
	.db #0x18	; 24
	.db #0xFC	; 252
	.db #0x18	; 24
	.db #0x00	; 0
	.db #0x00	; 0
	.db #0x00	; 0
	.db #0x00	; 0
	.db #0x00	; 0
	.db #0x00	; 0
	.db #0x00	; 0
	.db #0x00	; 0
	.db #0x04	; 4
	.db #0x24	; 36
	.db #0x18	; 24
	.db #0x04	; 4
	.db #0x00	; 0
	.db #0x00	; 0
	.db #0x00	; 0
	.db #0x00	; 0
	.db #0x00	; 0
	.db #0x00	; 0
	.db #0x00	; 0
	.db #0x00	; 0
	.db #0x00	; 0
	.db #0x04	; 4
	.db #0x04	; 4
	.db #0x00	; 0
	.db #0x00	; 0
	.db #0x00	; 0
	.db #0x00	; 0
	.db #0x00	; 0
	.db #0x00	; 0
	.db #0x00	; 0
	.db #0x00	; 0
	.db #0x00	; 0
	.db #0x00	; 0
	.db #0x00	; 0
	.db #0x00	; 0
	.db #0x00	; 0
	.db #0x00	; 0
	.db #0x00	; 0
	.db #0x00	; 0
	.db #0x00	; 0
_car4:
	.db #0x00	; 0
	.db #0x00	; 0
	.db #0x00	; 0
	.db #0x00	; 0
	.db #0x00	; 0
	.db #0x00	; 0
	.db #0x00	; 0
	.db #0x00	; 0
	.db #0x00	; 0
	.db #0x00	; 0
	.db #0x00	; 0
	.db #0x00	; 0
	.db #0x00	; 0
	.db #0x00	; 0
	.db #0x04	; 4
	.db #0x04	; 4
	.db #0x04	; 4
	.db #0x64	; 100	d
	.db #0x64	; 100	d
	.db #0x89	; 137
	.db #0x89	; 137
	.db #0x64	; 100	d
	.db #0x04	; 4
	.db #0x04	; 4
	.db #0x00	; 0
	.db #0x00	; 0
	.db #0x00	; 0
	.db #0x04	; 4
	.db #0x04	; 4
	.db #0x8D	; 141
	.db #0xD6	; 214
	.db #0xB1	; 177
	.db #0x21	; 33
	.db #0x21	; 33
	.db #0x8D	; 141
	.db #0x64	; 100	d
	.db #0x04	; 4
	.db #0x00	; 0
	.db #0x00	; 0
	.db #0x00	; 0
	.db #0x20	; 32
	.db #0x1C	; 28
	.db #0x8D	; 141
	.db #0xD6	; 214
	.db #0xB1	; 177
	.db #0x42	; 66	B
	.db #0x42	; 66	B
	.db #0x62	; 98	b
	.db #0xB1	; 177
	.db #0x44	; 68	D
	.db #0x00	; 0
	.db #0x00	; 0
	.db #0x00	; 0
	.db #0x40	; 64
	.db #0x64	; 100	d
	.db #0x44	; 68	D
	.db #0x64	; 100	d
	.db #0x44	; 68	D
	.db #0x21	; 33
	.db #0x21	; 33
	.db #0x42	; 66	B
	.db #0x8D	; 141
	.db #0xDC	; 220
	.db #0x00	; 0
	.db #0x00	; 0
	.db #0x00	; 0
	.db #0x40	; 64
	.db #0x44	; 68	D
	.db #0x44	; 68	D
	.db #0x64	; 100	d
	.db #0x21	; 33
	.db #0x21	; 33
	.db #0x21	; 33
	.db #0x89	; 137
	.db #0x89	; 137
	.db #0xBC	; 188
	.db #0x00	; 0
	.db #0x00	; 0
	.db #0x00	; 0
	.db #0x20	; 32
	.db #0x14	; 20
	.db #0x89	; 137
	.db #0x8D	; 141
	.db #0x8D	; 141
	.db #0x8D	; 141
	.db #0x89	; 137
	.db #0x89	; 137
	.db #0x64	; 100	d
	.db #0x44	; 68	D
	.db #0x00	; 0
	.db #0x00	; 0
	.db #0x00	; 0
	.db #0x04	; 4
	.db #0x04	; 4
	.db #0x64	; 100	d
	.db #0x89	; 137
	.db #0xB1	; 177
	.db #0x8D	; 141
	.db #0x89	; 137
	.db #0x64	; 100	d
	.db #0x44	; 68	D
	.db #0x04	; 4
	.db #0x00	; 0
	.db #0x00	; 0
	.db #0x00	; 0
	.db #0x24	; 36
	.db #0x04	; 4
	.db #0x04	; 4
	.db #0x44	; 68	D
	.db #0x64	; 100	d
	.db #0x64	; 100	d
	.db #0x44	; 68	D
	.db #0x04	; 4
	.db #0x04	; 4
	.db #0x24	; 36
	.db #0x00	; 0
	.db #0x00	; 0
	.db #0x00	; 0
	.db #0x04	; 4
	.db #0x04	; 4
	.db #0x04	; 4
	.db #0x00	; 0
	.db #0x00	; 0
	.db #0x00	; 0
	.db #0x00	; 0
	.db #0x04	; 4
	.db #0x04	; 4
	.db #0x04	; 4
	.db #0x00	; 0
	.db #0x00	; 0
	.db #0x00	; 0
	.db #0x00	; 0
	.db #0x00	; 0
	.db #0x00	; 0
	.db #0x00	; 0
	.db #0x00	; 0
	.db #0x00	; 0
	.db #0x00	; 0
	.db #0x00	; 0
	.db #0x00	; 0
	.db #0x00	; 0
	.db #0x00	; 0
	.db #0x00	; 0
	.db #0x00	; 0
	.db #0x00	; 0
	.db #0x00	; 0
	.db #0x00	; 0
	.db #0x00	; 0
	.db #0x00	; 0
	.db #0x00	; 0
	.db #0x04	; 4
	.db #0x04	; 4
	.db #0x04	; 4
	.db #0x00	; 0
	.db #0x00	; 0
	.db #0x00	; 0
	.db #0x00	; 0
	.db #0x00	; 0
	.db #0x00	; 0
	.db #0x00	; 0
	.db #0x00	; 0
	.db #0x40	; 64
	.db #0x44	; 68	D
	.db #0x89	; 137
	.db #0x64	; 100	d
	.db #0x44	; 68	D
	.db #0x00	; 0
	.db #0x00	; 0
	.db #0x00	; 0
	.db #0x00	; 0
	.db #0x00	; 0
	.db #0x00	; 0
	.db #0x40	; 64
	.db #0x64	; 100	d
	.db #0x64	; 100	d
	.db #0x89	; 137
	.db #0x21	; 33
	.db #0x8D	; 141
	.db #0x9C	; 156
	.db #0x44	; 68	D
	.db #0x00	; 0
	.db #0x00	; 0
	.db #0x00	; 0
	.db #0x04	; 4
	.db #0x04	; 4
	.db #0x64	; 100	d
	.db #0xB1	; 177
	.db #0x21	; 33
	.db #0x21	; 33
	.db #0x42	; 66	B
	.db #0x62	; 98	b
	.db #0xB1	; 177
	.db #0xDC	; 220
	.db #0x44	; 68	D
	.db #0x00	; 0
	.db #0x00	; 0
	.db #0x04	; 4
	.db #0x04	; 4
	.db #0x8D	; 141
	.db #0xD6	; 214
	.db #0xB1	; 177
	.db #0x42	; 66	B
	.db #0x21	; 33
	.db #0x42	; 66	B
	.db #0x8D	; 141
	.db #0x8D	; 141
	.db #0x64	; 100	d
	.db #0x00	; 0
	.db #0x00	; 0
	.db #0x00	; 0
	.db #0x1C	; 28
	.db #0x8D	; 141
	.db #0xB1	; 177
	.db #0x64	; 100	d
	.db #0x44	; 68	D
	.db #0x21	; 33
	.db #0x21	; 33
	.db #0x89	; 137
	.db #0x89	; 137
	.db #0x44	; 68	D
	.db #0x00	; 0
	.db #0x00	; 0
	.db #0x00	; 0
	.db #0x40	; 64
	.db #0x64	; 100	d
	.db #0x44	; 68	D
	.db #0x64	; 100	d
	.db #0x21	; 33
	.db #0x8D	; 141
	.db #0x89	; 137
	.db #0x89	; 137
	.db #0x64	; 100	d
	.db #0x04	; 4
	.db #0x00	; 0
	.db #0x00	; 0
	.db #0x00	; 0
	.db #0x40	; 64
	.db #0x44	; 68	D
	.db #0x89	; 137
	.db #0x8D	; 141
	.db #0x8D	; 141
	.db #0x8D	; 141
	.db #0x89	; 137
	.db #0x04	; 4
	.db #0x04	; 4
	.db #0x24	; 36
	.db #0x00	; 0
	.db #0x00	; 0
	.db #0x00	; 0
	.db #0x20	; 32
	.db #0x14	; 20
	.db #0x64	; 100	d
	.db #0x89	; 137
	.db #0xB1	; 177
	.db #0x64	; 100	d
	.db #0x44	; 68	D
	.db #0x04	; 4
	.db #0x04	; 4
	.db #0x04	; 4
	.db #0x00	; 0
	.db #0x00	; 0
	.db #0x00	; 0
	.db #0x00	; 0
	.db #0x04	; 4
	.db #0x04	; 4
	.db #0x04	; 4
	.db #0x44	; 68	D
	.db #0x00	; 0
	.db #0x00	; 0
	.db #0x00	; 0
	.db #0x00	; 0
	.db #0x00	; 0
	.db #0x00	; 0
	.db #0x00	; 0
	.db #0x00	; 0
	.db #0x00	; 0
	.db #0x24	; 36
	.db #0x04	; 4
	.db #0x04	; 4
	.db #0x00	; 0
	.db #0x00	; 0
	.db #0x00	; 0
	.db #0x00	; 0
	.db #0x00	; 0
	.db #0x00	; 0
	.db #0x00	; 0
	.db #0x00	; 0
	.db #0x00	; 0
	.db #0x00	; 0
	.db #0x00	; 0
	.db #0x00	; 0
	.db #0x00	; 0
	.db #0x04	; 4
	.db #0x04	; 4
	.db #0x04	; 4
	.db #0x00	; 0
	.db #0x00	; 0
	.db #0x00	; 0
	.db #0x00	; 0
	.db #0x00	; 0
	.db #0x00	; 0
	.db #0x00	; 0
	.db #0x00	; 0
	.db #0x00	; 0
	.db #0x04	; 4
	.db #0x44	; 68	D
	.db #0x64	; 100	d
	.db #0x44	; 68	D
	.db #0xDC	; 220
	.db #0x00	; 0
	.db #0x00	; 0
	.db #0x00	; 0
	.db #0x00	; 0
	.db #0x00	; 0
	.db #0x00	; 0
	.db #0x00	; 0
	.db #0x64	; 100	d
	.db #0x89	; 137
	.db #0xB1	; 177
	.db #0x8D	; 141
	.db #0x8D	; 141
	.db #0x89	; 137
	.db #0xBC	; 188
	.db #0x00	; 0
	.db #0x00	; 0
	.db #0x00	; 0
	.db #0x00	; 0
	.db #0x24	; 36
	.db #0x44	; 68	D
	.db #0x64	; 100	d
	.db #0x89	; 137
	.db #0x21	; 33
	.db #0x62	; 98	b
	.db #0x89	; 137
	.db #0x89	; 137
	.db #0x44	; 68	D
	.db #0x44	; 68	D
	.db #0x00	; 0
	.db #0x00	; 0
	.db #0x24	; 36
	.db #0x04	; 4
	.db #0x64	; 100	d
	.db #0x89	; 137
	.db #0x8D	; 141
	.db #0xD6	; 214
	.db #0x42	; 66	B
	.db #0x62	; 98	b
	.db #0x89	; 137
	.db #0x64	; 100	d
	.db #0x24	; 36
	.db #0x24	; 36
	.db #0x00	; 0
	.db #0x04	; 4
	.db #0x04	; 4
	.db #0x64	; 100	d
	.db #0x8D	; 141
	.db #0xD6	; 214
	.db #0xD6	; 214
	.db #0x21	; 33
	.db #0x21	; 33
	.db #0x89	; 137
	.db #0x04	; 4
	.db #0x04	; 4
	.db #0x04	; 4
	.db #0x00	; 0
	.db #0x00	; 0
	.db #0x04	; 4
	.db #0x1C	; 28
	.db #0x44	; 68	D
	.db #0x8D	; 141
	.db #0x44	; 68	D
	.db #0x44	; 68	D
	.db #0x21	; 33
	.db #0x89	; 137
	.db #0x04	; 4
	.db #0x04	; 4
	.db #0x04	; 4
	.db #0x00	; 0
	.db #0x00	; 0
	.db #0x00	; 0
	.db #0x40	; 64
	.db #0x64	; 100	d
	.db #0x44	; 68	D
	.db #0x44	; 68	D
	.db #0x64	; 100	d
	.db #0x89	; 137
	.db #0x64	; 100	d
	.db #0x00	; 0
	.db #0x04	; 4
	.db #0x00	; 0
	.db #0x00	; 0
	.db #0x00	; 0
	.db #0x00	; 0
	.db #0x00	; 0
	.db #0x40	; 64
	.db #0x44	; 68	D
	.db #0x14	; 20
	.db #0x04	; 4
	.db #0x04	; 4
	.db #0x00	; 0
	.db #0x00	; 0
	.db #0x00	; 0
	.db #0x00	; 0
	.db #0x00	; 0
	.db #0x00	; 0
	.db #0x00	; 0
	.db #0x00	; 0
	.db #0x00	; 0
	.db #0x20	; 32
	.db #0x24	; 36
	.db #0x04	; 4
	.db #0x04	; 4
	.db #0x00	; 0
	.db #0x00	; 0
	.db #0x00	; 0
	.db #0x00	; 0
	.db #0x00	; 0
	.db #0x00	; 0
	.db #0x00	; 0
	.db #0x00	; 0
	.db #0x00	; 0
	.db #0x00	; 0
	.db #0x04	; 4
	.db #0x04	; 4
	.db #0x04	; 4
	.db #0x00	; 0
	.db #0x00	; 0
	.db #0x00	; 0
	.db #0x00	; 0
	.db #0x00	; 0
	.db #0x00	; 0
	.db #0x00	; 0
	.db #0x24	; 36
	.db #0x04	; 4
	.db #0x04	; 4
	.db #0x44	; 68	D
	.db #0x00	; 0
	.db #0x00	; 0
	.db #0x00	; 0
	.db #0x00	; 0
	.db #0x00	; 0
	.db #0x00	; 0
	.db #0x00	; 0
	.db #0x00	; 0
	.db #0x00	; 0
	.db #0x04	; 4
	.db #0x44	; 68	D
	.db #0x64	; 100	d
	.db #0x89	; 137
	.db #0xDC	; 220
	.db #0xBC	; 188
	.db #0x44	; 68	D
	.db #0x24	; 36
	.db #0x00	; 0
	.db #0x00	; 0
	.db #0x00	; 0
	.db #0x00	; 0
	.db #0x00	; 0
	.db #0x44	; 68	D
	.db #0x89	; 137
	.db #0xB1	; 177
	.db #0x8D	; 141
	.db #0x89	; 137
	.db #0x64	; 100	d
	.db #0x44	; 68	D
	.db #0x04	; 4
	.db #0x04	; 4
	.db #0x00	; 0
	.db #0x00	; 0
	.db #0x00	; 0
	.db #0x00	; 0
	.db #0x89	; 137
	.db #0x8D	; 141
	.db #0x21	; 33
	.db #0x62	; 98	b
	.db #0x42	; 66	B
	.db #0x89	; 137
	.db #0x89	; 137
	.db #0x04	; 4
	.db #0x04	; 4
	.db #0x04	; 4
	.db #0x00	; 0
	.db #0x00	; 0
	.db #0x44	; 68	D
	.db #0x64	; 100	d
	.db #0x64	; 100	d
	.db #0x89	; 137
	.db #0xB1	; 177
	.db #0x21	; 33
	.db #0x21	; 33
	.db #0x89	; 137
	.db #0x64	; 100	d
	.db #0x04	; 4
	.db #0x00	; 0
	.db #0x00	; 0
	.db #0x00	; 0
	.db #0x40	; 64
	.db #0x44	; 68	D
	.db #0x89	; 137
	.db #0x89	; 137
	.db #0xB1	; 177
	.db #0x8D	; 141
	.db #0x21	; 33
	.db #0xB1	; 177
	.db #0x64	; 100	d
	.db #0x00	; 0
	.db #0x00	; 0
	.db #0x00	; 0
	.db #0x00	; 0
	.db #0x24	; 36
	.db #0x44	; 68	D
	.db #0x64	; 100	d
	.db #0x64	; 100	d
	.db #0xD6	; 214
	.db #0xB2	; 178
	.db #0x64	; 100	d
	.db #0x89	; 137
	.db #0x44	; 68	D
	.db #0x00	; 0
	.db #0x00	; 0
	.db #0x00	; 0
	.db #0x00	; 0
	.db #0x04	; 4
	.db #0x20	; 32
	.db #0x1C	; 28
	.db #0x64	; 100	d
	.db #0x89	; 137
	.db #0x44	; 68	D
	.db #0x44	; 68	D
	.db #0x04	; 4
	.db #0x04	; 4
	.db #0x00	; 0
	.db #0x00	; 0
	.db #0x00	; 0
	.db #0x00	; 0
	.db #0x04	; 4
	.db #0x04	; 4
	.db #0x20	; 32
	.db #0x40	; 64
	.db #0x44	; 68	D
	.db #0x14	; 20
	.db #0x24	; 36
	.db #0x04	; 4
	.db #0x04	; 4
	.db #0x00	; 0
	.db #0x00	; 0
	.db #0x00	; 0
	.db #0x00	; 0
	.db #0x00	; 0
	.db #0x00	; 0
	.db #0x00	; 0
	.db #0x00	; 0
	.db #0x40	; 64
	.db #0x20	; 32
	.db #0x04	; 4
	.db #0x04	; 4
	.db #0x04	; 4
	.db #0x00	; 0
	.db #0x00	; 0
	.db #0x00	; 0
	.db #0x00	; 0
	.db #0x00	; 0
	.db #0x00	; 0
	.db #0x00	; 0
	.db #0x00	; 0
	.db #0x00	; 0
	.db #0x00	; 0
	.db #0x24	; 36
	.db #0x24	; 36
	.db #0x00	; 0
	.db #0x00	; 0
	.db #0x00	; 0
	.db #0x00	; 0
	.db #0x00	; 0
	.db #0x00	; 0
	.db #0x00	; 0
	.db #0x00	; 0
	.db #0x00	; 0
	.db #0x00	; 0
	.db #0x00	; 0
	.db #0x00	; 0
	.db #0x00	; 0
	.db #0x00	; 0
	.db #0x00	; 0
	.db #0x00	; 0
	.db #0x00	; 0
	.db #0x24	; 36
	.db #0x04	; 4
	.db #0x04	; 4
	.db #0x44	; 68	D
	.db #0xDC	; 220
	.db #0xBC	; 188
	.db #0x44	; 68	D
	.db #0x24	; 36
	.db #0x24	; 36
	.db #0x04	; 4
	.db #0x00	; 0
	.db #0x00	; 0
	.db #0x00	; 0
	.db #0x04	; 4
	.db #0x04	; 4
	.db #0x64	; 100	d
	.db #0xB1	; 177
	.db #0x8D	; 141
	.db #0x89	; 137
	.db #0x64	; 100	d
	.db #0x44	; 68	D
	.db #0x04	; 4
	.db #0x04	; 4
	.db #0x00	; 0
	.db #0x00	; 0
	.db #0x00	; 0
	.db #0x04	; 4
	.db #0x64	; 100	d
	.db #0xB1	; 177
	.db #0x8D	; 141
	.db #0x62	; 98	b
	.db #0x42	; 66	B
	.db #0x89	; 137
	.db #0x89	; 137
	.db #0x44	; 68	D
	.db #0x04	; 4
	.db #0x00	; 0
	.db #0x00	; 0
	.db #0x00	; 0
	.db #0x00	; 0
	.db #0x89	; 137
	.db #0x8D	; 141
	.db #0x21	; 33
	.db #0x42	; 66	B
	.db #0x21	; 33
	.db #0x21	; 33
	.db #0x89	; 137
	.db #0x64	; 100	d
	.db #0x00	; 0
	.db #0x00	; 0
	.db #0x00	; 0
	.db #0x00	; 0
	.db #0x00	; 0
	.db #0x64	; 100	d
	.db #0x89	; 137
	.db #0x21	; 33
	.db #0xB1	; 177
	.db #0x8D	; 141
	.db #0x21	; 33
	.db #0xB1	; 177
	.db #0x64	; 100	d
	.db #0x00	; 0
	.db #0x00	; 0
	.db #0x00	; 0
	.db #0x00	; 0
	.db #0x00	; 0
	.db #0x64	; 100	d
	.db #0x89	; 137
	.db #0x64	; 100	d
	.db #0xD6	; 214
	.db #0xB2	; 178
	.db #0x64	; 100	d
	.db #0x89	; 137
	.db #0x64	; 100	d
	.db #0x00	; 0
	.db #0x00	; 0
	.db #0x00	; 0
	.db #0x00	; 0
	.db #0x24	; 36
	.db #0x04	; 4
	.db #0x64	; 100	d
	.db #0x44	; 68	D
	.db #0x8D	; 141
	.db #0x89	; 137
	.db #0x44	; 68	D
	.db #0x64	; 100	d
	.db #0x04	; 4
	.db #0x04	; 4
	.db #0x00	; 0
	.db #0x00	; 0
	.db #0x00	; 0
	.db #0x24	; 36
	.db #0x04	; 4
	.db #0x04	; 4
	.db #0x1C	; 28
	.db #0x64	; 100	d
	.db #0x44	; 68	D
	.db #0x14	; 20
	.db #0x24	; 36
	.db #0x04	; 4
	.db #0x04	; 4
	.db #0x00	; 0
	.db #0x00	; 0
	.db #0x00	; 0
	.db #0x04	; 4
	.db #0x04	; 4
	.db #0x04	; 4
	.db #0x20	; 32
	.db #0x40	; 64
	.db #0x40	; 64
	.db #0x20	; 32
	.db #0x04	; 4
	.db #0x04	; 4
	.db #0x04	; 4
	.db #0x00	; 0
	.db #0x00	; 0
	.db #0x00	; 0
	.db #0x00	; 0
	.db #0x00	; 0
	.db #0x00	; 0
	.db #0x00	; 0
	.db #0x00	; 0
	.db #0x00	; 0
	.db #0x00	; 0
	.db #0x00	; 0
	.db #0x00	; 0
	.db #0x00	; 0
	.db #0x00	; 0
	.db #0x00	; 0
	.db #0x00	; 0
	.db #0x00	; 0
	.db #0x00	; 0
	.db #0x00	; 0
	.db #0x00	; 0
	.db #0x00	; 0
	.db #0x44	; 68	D
	.db #0x04	; 4
	.db #0x04	; 4
	.db #0x24	; 36
	.db #0x00	; 0
	.db #0x00	; 0
	.db #0x00	; 0
	.db #0x00	; 0
	.db #0x00	; 0
	.db #0x24	; 36
	.db #0x44	; 68	D
	.db #0xBC	; 188
	.db #0xDC	; 220
	.db #0x89	; 137
	.db #0x64	; 100	d
	.db #0x44	; 68	D
	.db #0x04	; 4
	.db #0x00	; 0
	.db #0x00	; 0
	.db #0x00	; 0
	.db #0x00	; 0
	.db #0x04	; 4
	.db #0x04	; 4
	.db #0x44	; 68	D
	.db #0x64	; 100	d
	.db #0x89	; 137
	.db #0x8D	; 141
	.db #0xB1	; 177
	.db #0x89	; 137
	.db #0x44	; 68	D
	.db #0x00	; 0
	.db #0x00	; 0
	.db #0x00	; 0
	.db #0x04	; 4
	.db #0x04	; 4
	.db #0x04	; 4
	.db #0x89	; 137
	.db #0x89	; 137
	.db #0x42	; 66	B
	.db #0x62	; 98	b
	.db #0x21	; 33
	.db #0x8D	; 141
	.db #0x89	; 137
	.db #0x00	; 0
	.db #0x00	; 0
	.db #0x00	; 0
	.db #0x00	; 0
	.db #0x04	; 4
	.db #0x64	; 100	d
	.db #0x89	; 137
	.db #0x21	; 33
	.db #0x21	; 33
	.db #0xB1	; 177
	.db #0x89	; 137
	.db #0x64	; 100	d
	.db #0x64	; 100	d
	.db #0x44	; 68	D
	.db #0x00	; 0
	.db #0x00	; 0
	.db #0x00	; 0
	.db #0x00	; 0
	.db #0x64	; 100	d
	.db #0xB1	; 177
	.db #0x21	; 33
	.db #0x8D	; 141
	.db #0xB1	; 177
	.db #0x89	; 137
	.db #0x89	; 137
	.db #0x44	; 68	D
	.db #0x40	; 64
	.db #0x00	; 0
	.db #0x00	; 0
	.db #0x00	; 0
	.db #0x00	; 0
	.db #0x44	; 68	D
	.db #0x89	; 137
	.db #0x64	; 100	d
	.db #0xB2	; 178
	.db #0xD6	; 214
	.db #0x64	; 100	d
	.db #0x64	; 100	d
	.db #0x44	; 68	D
	.db #0x24	; 36
	.db #0x00	; 0
	.db #0x00	; 0
	.db #0x00	; 0
	.db #0x00	; 0
	.db #0x04	; 4
	.db #0x04	; 4
	.db #0x44	; 68	D
	.db #0x44	; 68	D
	.db #0x89	; 137
	.db #0x64	; 100	d
	.db #0x1C	; 28
	.db #0x20	; 32
	.db #0x04	; 4
	.db #0x00	; 0
	.db #0x00	; 0
	.db #0x00	; 0
	.db #0x00	; 0
	.db #0x04	; 4
	.db #0x04	; 4
	.db #0x24	; 36
	.db #0x14	; 20
	.db #0x44	; 68	D
	.db #0x40	; 64
	.db #0x20	; 32
	.db #0x04	; 4
	.db #0x04	; 4
	.db #0x00	; 0
	.db #0x00	; 0
	.db #0x00	; 0
	.db #0x00	; 0
	.db #0x04	; 4
	.db #0x04	; 4
	.db #0x04	; 4
	.db #0x20	; 32
	.db #0x40	; 64
	.db #0x00	; 0
	.db #0x00	; 0
	.db #0x00	; 0
	.db #0x00	; 0
	.db #0x00	; 0
	.db #0x00	; 0
	.db #0x00	; 0
	.db #0x00	; 0
	.db #0x00	; 0
	.db #0x24	; 36
	.db #0x24	; 36
	.db #0x00	; 0
	.db #0x00	; 0
	.db #0x00	; 0
	.db #0x00	; 0
	.db #0x00	; 0
	.db #0x00	; 0
	.db #0x00	; 0
	.db #0x00	; 0
	.db #0x00	; 0
	.db #0x00	; 0
	.db #0x00	; 0
	.db #0x00	; 0
	.db #0x04	; 4
	.db #0x04	; 4
	.db #0x04	; 4
	.db #0x00	; 0
	.db #0x00	; 0
	.db #0x00	; 0
	.db #0x00	; 0
	.db #0x00	; 0
	.db #0x00	; 0
	.db #0x00	; 0
	.db #0x00	; 0
	.db #0x00	; 0
	.db #0xDC	; 220
	.db #0x44	; 68	D
	.db #0x64	; 100	d
	.db #0x44	; 68	D
	.db #0x04	; 4
	.db #0x00	; 0
	.db #0x00	; 0
	.db #0x00	; 0
	.db #0x00	; 0
	.db #0x00	; 0
	.db #0x00	; 0
	.db #0x00	; 0
	.db #0xBC	; 188
	.db #0x89	; 137
	.db #0x8D	; 141
	.db #0x8D	; 141
	.db #0xB1	; 177
	.db #0x89	; 137
	.db #0x64	; 100	d
	.db #0x00	; 0
	.db #0x00	; 0
	.db #0x00	; 0
	.db #0x00	; 0
	.db #0x00	; 0
	.db #0x44	; 68	D
	.db #0x44	; 68	D
	.db #0x89	; 137
	.db #0x89	; 137
	.db #0x62	; 98	b
	.db #0x21	; 33
	.db #0x89	; 137
	.db #0x64	; 100	d
	.db #0x44	; 68	D
	.db #0x24	; 36
	.db #0x00	; 0
	.db #0x00	; 0
	.db #0x24	; 36
	.db #0x24	; 36
	.db #0x64	; 100	d
	.db #0x89	; 137
	.db #0x62	; 98	b
	.db #0x42	; 66	B
	.db #0xD6	; 214
	.db #0x8D	; 141
	.db #0x89	; 137
	.db #0x64	; 100	d
	.db #0x04	; 4
	.db #0x24	; 36
	.db #0x00	; 0
	.db #0x04	; 4
	.db #0x04	; 4
	.db #0x04	; 4
	.db #0x89	; 137
	.db #0x21	; 33
	.db #0x21	; 33
	.db #0xD6	; 214
	.db #0xD6	; 214
	.db #0x8D	; 141
	.db #0x64	; 100	d
	.db #0x04	; 4
	.db #0x04	; 4
	.db #0x00	; 0
	.db #0x04	; 4
	.db #0x04	; 4
	.db #0x04	; 4
	.db #0x89	; 137
	.db #0x21	; 33
	.db #0x44	; 68	D
	.db #0x44	; 68	D
	.db #0x8D	; 141
	.db #0x44	; 68	D
	.db #0x1C	; 28
	.db #0x04	; 4
	.db #0x00	; 0
	.db #0x00	; 0
	.db #0x00	; 0
	.db #0x04	; 4
	.db #0x00	; 0
	.db #0x64	; 100	d
	.db #0x89	; 137
	.db #0x64	; 100	d
	.db #0x44	; 68	D
	.db #0x44	; 68	D
	.db #0x64	; 100	d
	.db #0x40	; 64
	.db #0x00	; 0
	.db #0x00	; 0
	.db #0x00	; 0
	.db #0x00	; 0
	.db #0x00	; 0
	.db #0x00	; 0
	.db #0x00	; 0
	.db #0x04	; 4
	.db #0x04	; 4
	.db #0x14	; 20
	.db #0x44	; 68	D
	.db #0x40	; 64
	.db #0x00	; 0
	.db #0x00	; 0
	.db #0x00	; 0
	.db #0x00	; 0
	.db #0x00	; 0
	.db #0x00	; 0
	.db #0x00	; 0
	.db #0x00	; 0
	.db #0x04	; 4
	.db #0x04	; 4
	.db #0x24	; 36
	.db #0x20	; 32
	.db #0x00	; 0
	.db #0x00	; 0
	.db #0x00	; 0
	.db #0x00	; 0
	.db #0x00	; 0
	.db #0x00	; 0
	.db #0x00	; 0
	.db #0x00	; 0
	.db #0x00	; 0
	.db #0x04	; 4
	.db #0x04	; 4
	.db #0x04	; 4
	.db #0x00	; 0
	.db #0x00	; 0
	.db #0x00	; 0
	.db #0x00	; 0
	.db #0x00	; 0
	.db #0x00	; 0
	.db #0x00	; 0
	.db #0x00	; 0
	.db #0x00	; 0
	.db #0x00	; 0
	.db #0x04	; 4
	.db #0x04	; 4
	.db #0x00	; 0
	.db #0x00	; 0
	.db #0x00	; 0
	.db #0x00	; 0
	.db #0x00	; 0
	.db #0x00	; 0
	.db #0x00	; 0
	.db #0x00	; 0
	.db #0x00	; 0
	.db #0x00	; 0
	.db #0x44	; 68	D
	.db #0x64	; 100	d
	.db #0x89	; 137
	.db #0x44	; 68	D
	.db #0x40	; 64
	.db #0x00	; 0
	.db #0x00	; 0
	.db #0x00	; 0
	.db #0x00	; 0
	.db #0x00	; 0
	.db #0x00	; 0
	.db #0x00	; 0
	.db #0x44	; 68	D
	.db #0x9C	; 156
	.db #0x8D	; 141
	.db #0x21	; 33
	.db #0x89	; 137
	.db #0x64	; 100	d
	.db #0x64	; 100	d
	.db #0x40	; 64
	.db #0x00	; 0
	.db #0x00	; 0
	.db #0x00	; 0
	.db #0x00	; 0
	.db #0x44	; 68	D
	.db #0xDC	; 220
	.db #0xB1	; 177
	.db #0x62	; 98	b
	.db #0x42	; 66	B
	.db #0x21	; 33
	.db #0x21	; 33
	.db #0xB1	; 177
	.db #0x64	; 100	d
	.db #0x04	; 4
	.db #0x04	; 4
	.db #0x00	; 0
	.db #0x00	; 0
	.db #0x64	; 100	d
	.db #0x8D	; 141
	.db #0x8D	; 141
	.db #0x42	; 66	B
	.db #0x21	; 33
	.db #0x42	; 66	B
	.db #0xB1	; 177
	.db #0xD6	; 214
	.db #0x8D	; 141
	.db #0x04	; 4
	.db #0x04	; 4
	.db #0x00	; 0
	.db #0x00	; 0
	.db #0x44	; 68	D
	.db #0x89	; 137
	.db #0x89	; 137
	.db #0x89	; 137
	.db #0x21	; 33
	.db #0x44	; 68	D
	.db #0x64	; 100	d
	.db #0xB1	; 177
	.db #0x8D	; 141
	.db #0x1C	; 28
	.db #0x00	; 0
	.db #0x00	; 0
	.db #0x00	; 0
	.db #0x04	; 4
	.db #0x64	; 100	d
	.db #0x89	; 137
	.db #0x89	; 137
	.db #0x8D	; 141
	.db #0x21	; 33
	.db #0x64	; 100	d
	.db #0x44	; 68	D
	.db #0x64	; 100	d
	.db #0x40	; 64
	.db #0x00	; 0
	.db #0x00	; 0
	.db #0x00	; 0
	.db #0x24	; 36
	.db #0x04	; 4
	.db #0x04	; 4
	.db #0x89	; 137
	.db #0x8D	; 141
	.db #0x8D	; 141
	.db #0x8D	; 141
	.db #0x89	; 137
	.db #0x44	; 68	D
	.db #0x40	; 64
	.db #0x00	; 0
	.db #0x00	; 0
	.db #0x00	; 0
	.db #0x04	; 4
	.db #0x04	; 4
	.db #0x04	; 4
	.db #0x44	; 68	D
	.db #0x64	; 100	d
	.db #0xB1	; 177
	.db #0x89	; 137
	.db #0x64	; 100	d
	.db #0x14	; 20
	.db #0x20	; 32
	.db #0x00	; 0
	.db #0x00	; 0
	.db #0x00	; 0
	.db #0x00	; 0
	.db #0x00	; 0
	.db #0x00	; 0
	.db #0x00	; 0
	.db #0x00	; 0
	.db #0x44	; 68	D
	.db #0x04	; 4
	.db #0x04	; 4
	.db #0x04	; 4
	.db #0x00	; 0
	.db #0x00	; 0
	.db #0x00	; 0
	.db #0x00	; 0
	.db #0x00	; 0
	.db #0x00	; 0
	.db #0x00	; 0
	.db #0x00	; 0
	.db #0x00	; 0
	.db #0x00	; 0
	.db #0x04	; 4
	.db #0x04	; 4
	.db #0x24	; 36
	.db #0x00	; 0
	.db #0x00	; 0
	.db #0x00	; 0
	.db #0x00	; 0
	.db #0x00	; 0
	.db #0x00	; 0
	.db #0x00	; 0
	.db #0x00	; 0
	.db #0x00	; 0
	.db #0x00	; 0
	.db #0x00	; 0
	.db #0x00	; 0
	.db #0x00	; 0
	.db #0x00	; 0
	.db #0x00	; 0
	.db #0x00	; 0
	.db #0x00	; 0
	.db #0x00	; 0
	.db #0x04	; 4
	.db #0x04	; 4
	.db #0x64	; 100	d
	.db #0x89	; 137
	.db #0x89	; 137
	.db #0x64	; 100	d
	.db #0x64	; 100	d
	.db #0x04	; 4
	.db #0x04	; 4
	.db #0x04	; 4
	.db #0x00	; 0
	.db #0x00	; 0
	.db #0x00	; 0
	.db #0x04	; 4
	.db #0x64	; 100	d
	.db #0x8D	; 141
	.db #0x21	; 33
	.db #0x21	; 33
	.db #0xB1	; 177
	.db #0xD6	; 214
	.db #0x8D	; 141
	.db #0x04	; 4
	.db #0x04	; 4
	.db #0x00	; 0
	.db #0x00	; 0
	.db #0x00	; 0
	.db #0x44	; 68	D
	.db #0xB1	; 177
	.db #0x62	; 98	b
	.db #0x42	; 66	B
	.db #0x42	; 66	B
	.db #0xB1	; 177
	.db #0xD6	; 214
	.db #0x8D	; 141
	.db #0x1C	; 28
	.db #0x20	; 32
	.db #0x00	; 0
	.db #0x00	; 0
	.db #0x00	; 0
	.db #0xDC	; 220
	.db #0x8D	; 141
	.db #0x42	; 66	B
	.db #0x21	; 33
	.db #0x21	; 33
	.db #0x44	; 68	D
	.db #0x64	; 100	d
	.db #0x44	; 68	D
	.db #0x64	; 100	d
	.db #0x40	; 64
	.db #0x00	; 0
	.db #0x00	; 0
	.db #0x00	; 0
	.db #0xBC	; 188
	.db #0x89	; 137
	.db #0x89	; 137
	.db #0x21	; 33
	.db #0x21	; 33
	.db #0x21	; 33
	.db #0x64	; 100	d
	.db #0x44	; 68	D
	.db #0x44	; 68	D
	.db #0x40	; 64
	.db #0x00	; 0
	.db #0x00	; 0
	.db #0x00	; 0
	.db #0x44	; 68	D
	.db #0x64	; 100	d
	.db #0x89	; 137
	.db #0x89	; 137
	.db #0x8D	; 141
	.db #0x8D	; 141
	.db #0x8D	; 141
	.db #0x89	; 137
	.db #0x14	; 20
	.db #0x20	; 32
	.db #0x00	; 0
	.db #0x00	; 0
	.db #0x00	; 0
	.db #0x04	; 4
	.db #0x44	; 68	D
	.db #0x64	; 100	d
	.db #0x89	; 137
	.db #0x8D	; 141
	.db #0xB1	; 177
	.db #0x89	; 137
	.db #0x64	; 100	d
	.db #0x04	; 4
	.db #0x04	; 4
	.db #0x00	; 0
	.db #0x00	; 0
	.db #0x00	; 0
	.db #0x24	; 36
	.db #0x04	; 4
	.db #0x04	; 4
	.db #0x44	; 68	D
	.db #0x64	; 100	d
	.db #0x64	; 100	d
	.db #0x44	; 68	D
	.db #0x04	; 4
	.db #0x04	; 4
	.db #0x24	; 36
	.db #0x00	; 0
	.db #0x00	; 0
	.db #0x00	; 0
	.db #0x04	; 4
	.db #0x04	; 4
	.db #0x04	; 4
	.db #0x00	; 0
	.db #0x00	; 0
	.db #0x00	; 0
	.db #0x00	; 0
	.db #0x04	; 4
	.db #0x04	; 4
	.db #0x04	; 4
	.db #0x00	; 0
	.db #0x00	; 0
	.db #0x00	; 0
	.db #0x00	; 0
	.db #0x00	; 0
	.db #0x00	; 0
	.db #0x00	; 0
	.db #0x00	; 0
	.db #0x00	; 0
	.db #0x00	; 0
	.db #0x00	; 0
	.db #0x00	; 0
	.db #0x00	; 0
	.db #0x00	; 0
	.db #0x00	; 0
	.db #0x00	; 0
	.db #0x00	; 0
	.db #0x00	; 0
	.db #0x00	; 0
	.db #0x00	; 0
	.db #0x00	; 0
	.db #0x00	; 0
	.db #0x00	; 0
	.db #0x04	; 4
	.db #0x04	; 4
	.db #0x00	; 0
	.db #0x00	; 0
	.db #0x00	; 0
	.db #0x00	; 0
	.db #0x00	; 0
	.db #0x00	; 0
	.db #0x00	; 0
	.db #0x00	; 0
	.db #0x00	; 0
	.db #0x64	; 100	d
	.db #0x04	; 4
	.db #0x04	; 4
	.db #0x04	; 4
	.db #0x00	; 0
	.db #0x00	; 0
	.db #0x00	; 0
	.db #0x00	; 0
	.db #0x00	; 0
	.db #0x00	; 0
	.db #0x89	; 137
	.db #0x89	; 137
	.db #0x64	; 100	d
	.db #0xD6	; 214
	.db #0x8D	; 141
	.db #0x1C	; 28
	.db #0x20	; 32
	.db #0x00	; 0
	.db #0x00	; 0
	.db #0x00	; 0
	.db #0x00	; 0
	.db #0x04	; 4
	.db #0x04	; 4
	.db #0x8D	; 141
	.db #0x21	; 33
	.db #0x21	; 33
	.db #0xB1	; 177
	.db #0xD6	; 214
	.db #0x44	; 68	D
	.db #0x64	; 100	d
	.db #0x40	; 64
	.db #0x00	; 0
	.db #0x00	; 0
	.db #0x00	; 0
	.db #0x04	; 4
	.db #0x64	; 100	d
	.db #0x62	; 98	b
	.db #0x42	; 66	B
	.db #0x42	; 66	B
	.db #0x44	; 68	D
	.db #0x64	; 100	d
	.db #0x44	; 68	D
	.db #0x44	; 68	D
	.db #0x40	; 64
	.db #0x00	; 0
	.db #0x00	; 0
	.db #0x00	; 0
	.db #0x44	; 68	D
	.db #0xB1	; 177
	.db #0x42	; 66	B
	.db #0x21	; 33
	.db #0x21	; 33
	.db #0x21	; 33
	.db #0x64	; 100	d
	.db #0x89	; 137
	.db #0x14	; 20
	.db #0x20	; 32
	.db #0x00	; 0
	.db #0x00	; 0
	.db #0x00	; 0
	.db #0x00	; 0
	.db #0xDC	; 220
	.db #0x89	; 137
	.db #0x89	; 137
	.db #0x21	; 33
	.db #0x8D	; 141
	.db #0x8D	; 141
	.db #0x89	; 137
	.db #0x64	; 100	d
	.db #0x04	; 4
	.db #0x24	; 36
	.db #0x00	; 0
	.db #0x00	; 0
	.db #0x00	; 0
	.db #0xBC	; 188
	.db #0x64	; 100	d
	.db #0x89	; 137
	.db #0x89	; 137
	.db #0x8D	; 141
	.db #0xB1	; 177
	.db #0x44	; 68	D
	.db #0x04	; 4
	.db #0x04	; 4
	.db #0x04	; 4
	.db #0x00	; 0
	.db #0x00	; 0
	.db #0x00	; 0
	.db #0x00	; 0
	.db #0x04	; 4
	.db #0x44	; 68	D
	.db #0x64	; 100	d
	.db #0x44	; 68	D
	.db #0x64	; 100	d
	.db #0x00	; 0
	.db #0x00	; 0
	.db #0x04	; 4
	.db #0x00	; 0
	.db #0x00	; 0
	.db #0x00	; 0
	.db #0x00	; 0
	.db #0x00	; 0
	.db #0x24	; 36
	.db #0x04	; 4
	.db #0x04	; 4
	.db #0x00	; 0
	.db #0x00	; 0
	.db #0x00	; 0
	.db #0x00	; 0
	.db #0x00	; 0
	.db #0x00	; 0
	.db #0x00	; 0
	.db #0x00	; 0
	.db #0x00	; 0
	.db #0x00	; 0
	.db #0x04	; 4
	.db #0x04	; 4
	.db #0x04	; 4
	.db #0x00	; 0
	.db #0x00	; 0
	.db #0x00	; 0
	.db #0x00	; 0
	.db #0x00	; 0
	.db #0x00	; 0
	.db #0x00	; 0
	.db #0x00	; 0
	.db #0x00	; 0
	.db #0x00	; 0
	.db #0x04	; 4
	.db #0x04	; 4
	.db #0x10	; 16
	.db #0x04	; 4
	.db #0x00	; 0
	.db #0x00	; 0
	.db #0x00	; 0
	.db #0x00	; 0
	.db #0x00	; 0
	.db #0x00	; 0
	.db #0x00	; 0
	.db #0x00	; 0
	.db #0x00	; 0
	.db #0x04	; 4
	.db #0x44	; 68	D
	.db #0x40	; 64
	.db #0x40	; 64
	.db #0x64	; 100	d
	.db #0x00	; 0
	.db #0x00	; 0
	.db #0x00	; 0
	.db #0x00	; 0
	.db #0x00	; 0
	.db #0x00	; 0
	.db #0x00	; 0
	.db #0x00	; 0
	.db #0x44	; 68	D
	.db #0x64	; 100	d
	.db #0x40	; 64
	.db #0x44	; 68	D
	.db #0x64	; 100	d
	.db #0x64	; 100	d
	.db #0x14	; 20
	.db #0x00	; 0
	.db #0x00	; 0
	.db #0x00	; 0
	.db #0x00	; 0
	.db #0x00	; 0
	.db #0x64	; 100	d
	.db #0x89	; 137
	.db #0x21	; 33
	.db #0x89	; 137
	.db #0x8D	; 141
	.db #0x44	; 68	D
	.db #0x40	; 64
	.db #0x44	; 68	D
	.db #0x04	; 4
	.db #0x04	; 4
	.db #0x00	; 0
	.db #0x04	; 4
	.db #0x04	; 4
	.db #0x89	; 137
	.db #0xB1	; 177
	.db #0x21	; 33
	.db #0x42	; 66	B
	.db #0xD6	; 214
	.db #0x21	; 33
	.db #0x21	; 33
	.db #0x44	; 68	D
	.db #0x24	; 36
	.db #0x04	; 4
	.db #0x00	; 0
	.db #0x04	; 4
	.db #0x40	; 64
	.db #0x89	; 137
	.db #0x8D	; 141
	.db #0x42	; 66	B
	.db #0x62	; 98	b
	.db #0x21	; 33
	.db #0x21	; 33
	.db #0x89	; 137
	.db #0x64	; 100	d
	.db #0x04	; 4
	.db #0x04	; 4
	.db #0x00	; 0
	.db #0x04	; 4
	.db #0x04	; 4
	.db #0x89	; 137
	.db #0x89	; 137
	.db #0x8D	; 141
	.db #0x42	; 66	B
	.db #0x21	; 33
	.db #0x89	; 137
	.db #0x89	; 137
	.db #0x44	; 68	D
	.db #0x00	; 0
	.db #0x00	; 0
	.db #0x00	; 0
	.db #0x00	; 0
	.db #0x24	; 36
	.db #0x40	; 64
	.db #0xDC	; 220
	.db #0x8D	; 141
	.db #0xB1	; 177
	.db #0xB1	; 177
	.db #0x8D	; 141
	.db #0x89	; 137
	.db #0x00	; 0
	.db #0x00	; 0
	.db #0x00	; 0
	.db #0x00	; 0
	.db #0x00	; 0
	.db #0x00	; 0
	.db #0x40	; 64
	.db #0x40	; 64
	.db #0xDC	; 220
	.db #0x89	; 137
	.db #0x89	; 137
	.db #0x04	; 4
	.db #0x00	; 0
	.db #0x00	; 0
	.db #0x00	; 0
	.db #0x00	; 0
	.db #0x00	; 0
	.db #0x00	; 0
	.db #0x00	; 0
	.db #0x00	; 0
	.db #0x40	; 64
	.db #0x40	; 64
	.db #0x04	; 4
	.db #0x24	; 36
	.db #0x24	; 36
	.db #0x00	; 0
	.db #0x00	; 0
	.db #0x00	; 0
	.db #0x00	; 0
	.db #0x00	; 0
	.db #0x00	; 0
	.db #0x00	; 0
	.db #0x00	; 0
	.db #0x00	; 0
	.db #0x00	; 0
	.db #0x04	; 4
	.db #0x04	; 4
	.db #0x04	; 4
	.db #0x00	; 0
	.db #0x00	; 0
	.db #0x00	; 0
	.db #0x00	; 0
	.db #0x00	; 0
	.db #0x00	; 0
	.db #0x00	; 0
	.db #0x00	; 0
	.db #0x00	; 0
	.db #0x00	; 0
	.db #0x00	; 0
	.db #0x00	; 0
	.db #0x00	; 0
	.db #0x00	; 0
	.db #0x00	; 0
	.db #0x00	; 0
	.db #0x00	; 0
	.db #0x00	; 0
	.db #0x00	; 0
	.db #0x00	; 0
	.db #0x04	; 4
	.db #0x04	; 4
	.db #0x10	; 16
	.db #0x40	; 64
	.db #0x40	; 64
	.db #0x64	; 100	d
	.db #0x14	; 20
	.db #0x00	; 0
	.db #0x00	; 0
	.db #0x00	; 0
	.db #0x00	; 0
	.db #0x00	; 0
	.db #0x00	; 0
	.db #0x04	; 4
	.db #0x44	; 68	D
	.db #0x40	; 64
	.db #0x44	; 68	D
	.db #0x64	; 100	d
	.db #0x64	; 100	d
	.db #0x40	; 64
	.db #0x04	; 4
	.db #0x04	; 4
	.db #0x00	; 0
	.db #0x00	; 0
	.db #0x00	; 0
	.db #0x00	; 0
	.db #0x44	; 68	D
	.db #0x44	; 68	D
	.db #0x64	; 100	d
	.db #0x89	; 137
	.db #0x8D	; 141
	.db #0x44	; 68	D
	.db #0x64	; 100	d
	.db #0x44	; 68	D
	.db #0x24	; 36
	.db #0x00	; 0
	.db #0x00	; 0
	.db #0x00	; 0
	.db #0x00	; 0
	.db #0x64	; 100	d
	.db #0x21	; 33
	.db #0x8D	; 141
	.db #0xB2	; 178
	.db #0x21	; 33
	.db #0x21	; 33
	.db #0x89	; 137
	.db #0x44	; 68	D
	.db #0x24	; 36
	.db #0x00	; 0
	.db #0x00	; 0
	.db #0x00	; 0
	.db #0x89	; 137
	.db #0xB1	; 177
	.db #0x21	; 33
	.db #0x21	; 33
	.db #0x21	; 33
	.db #0x21	; 33
	.db #0x40	; 64
	.db #0x89	; 137
	.db #0x00	; 0
	.db #0x00	; 0
	.db #0x00	; 0
	.db #0x00	; 0
	.db #0x04	; 4
	.db #0x64	; 100	d
	.db #0x89	; 137
	.db #0x21	; 33
	.db #0x21	; 33
	.db #0x8D	; 141
	.db #0x8D	; 141
	.db #0x8D	; 141
	.db #0x89	; 137
	.db #0x00	; 0
	.db #0x00	; 0
	.db #0x00	; 0
	.db #0x00	; 0
	.db #0x04	; 4
	.db #0x40	; 64
	.db #0x89	; 137
	.db #0x8D	; 141
	.db #0x8D	; 141
	.db #0xB1	; 177
	.db #0xB1	; 177
	.db #0x89	; 137
	.db #0x40	; 64
	.db #0x00	; 0
	.db #0x00	; 0
	.db #0x00	; 0
	.db #0x00	; 0
	.db #0x04	; 4
	.db #0x04	; 4
	.db #0x40	; 64
	.db #0x9C	; 156
	.db #0xDC	; 220
	.db #0xB1	; 177
	.db #0x89	; 137
	.db #0x40	; 64
	.db #0x04	; 4
	.db #0x00	; 0
	.db #0x00	; 0
	.db #0x00	; 0
	.db #0x00	; 0
	.db #0x00	; 0
	.db #0x00	; 0
	.db #0x40	; 64
	.db #0x40	; 64
	.db #0x40	; 64
	.db #0x40	; 64
	.db #0x04	; 4
	.db #0x04	; 4
	.db #0x04	; 4
	.db #0x04	; 4
	.db #0x00	; 0
	.db #0x00	; 0
	.db #0x00	; 0
	.db #0x00	; 0
	.db #0x00	; 0
	.db #0x00	; 0
	.db #0x00	; 0
	.db #0x00	; 0
	.db #0x00	; 0
	.db #0x00	; 0
	.db #0x04	; 4
	.db #0x04	; 4
	.db #0x00	; 0
	.db #0x00	; 0
	.db #0x00	; 0
	.db #0x00	; 0
	.db #0x00	; 0
	.db #0x00	; 0
	.db #0x00	; 0
	.db #0x00	; 0
	.db #0x00	; 0
	.db #0x00	; 0
	.db #0x00	; 0
	.db #0x00	; 0
	.db #0x00	; 0
	.db #0x00	; 0
	.db #0x00	; 0
	.db #0x00	; 0
	.db #0x00	; 0
	.db #0x04	; 4
	.db #0x04	; 4
	.db #0x04	; 4
	.db #0x14	; 20
	.db #0x64	; 100	d
	.db #0x40	; 64
	.db #0x10	; 16
	.db #0x04	; 4
	.db #0x04	; 4
	.db #0x04	; 4
	.db #0x00	; 0
	.db #0x00	; 0
	.db #0x00	; 0
	.db #0x24	; 36
	.db #0x04	; 4
	.db #0x44	; 68	D
	.db #0x40	; 64
	.db #0x64	; 100	d
	.db #0x44	; 68	D
	.db #0x40	; 64
	.db #0x44	; 68	D
	.db #0x04	; 4
	.db #0x04	; 4
	.db #0x00	; 0
	.db #0x00	; 0
	.db #0x00	; 0
	.db #0x24	; 36
	.db #0x44	; 68	D
	.db #0x64	; 100	d
	.db #0x44	; 68	D
	.db #0x8D	; 141
	.db #0x89	; 137
	.db #0x44	; 68	D
	.db #0x64	; 100	d
	.db #0x44	; 68	D
	.db #0x04	; 4
	.db #0x00	; 0
	.db #0x00	; 0
	.db #0x00	; 0
	.db #0x00	; 0
	.db #0x64	; 100	d
	.db #0x89	; 137
	.db #0x21	; 33
	.db #0xD6	; 214
	.db #0xB2	; 178
	.db #0x21	; 33
	.db #0x89	; 137
	.db #0x64	; 100	d
	.db #0x00	; 0
	.db #0x00	; 0
	.db #0x00	; 0
	.db #0x00	; 0
	.db #0x00	; 0
	.db #0x89	; 137
	.db #0x89	; 137
	.db #0x21	; 33
	.db #0x21	; 33
	.db #0x21	; 33
	.db #0x21	; 33
	.db #0xB1	; 177
	.db #0x89	; 137
	.db #0x00	; 0
	.db #0x00	; 0
	.db #0x00	; 0
	.db #0x00	; 0
	.db #0x00	; 0
	.db #0x89	; 137
	.db #0x8D	; 141
	.db #0x8D	; 141
	.db #0x42	; 66	B
	.db #0x21	; 33
	.db #0x8D	; 141
	.db #0x89	; 137
	.db #0x64	; 100	d
	.db #0x00	; 0
	.db #0x00	; 0
	.db #0x00	; 0
	.db #0x00	; 0
	.db #0x04	; 4
	.db #0x40	; 64
	.db #0x89	; 137
	.db #0xB1	; 177
	.db #0xB1	; 177
	.db #0x8D	; 141
	.db #0x89	; 137
	.db #0x89	; 137
	.db #0x40	; 64
	.db #0x04	; 4
	.db #0x00	; 0
	.db #0x00	; 0
	.db #0x00	; 0
	.db #0x04	; 4
	.db #0x04	; 4
	.db #0x40	; 64
	.db #0x89	; 137
	.db #0xDC	; 220
	.db #0x9C	; 156
	.db #0x64	; 100	d
	.db #0x40	; 64
	.db #0x04	; 4
	.db #0x04	; 4
	.db #0x00	; 0
	.db #0x00	; 0
	.db #0x00	; 0
	.db #0x24	; 36
	.db #0x04	; 4
	.db #0x04	; 4
	.db #0x00	; 0
	.db #0x00	; 0
	.db #0x00	; 0
	.db #0x40	; 64
	.db #0x24	; 36
	.db #0x24	; 36
	.db #0x04	; 4
	.db #0x00	; 0
	.db #0x00	; 0
	.db #0x00	; 0
	.db #0x00	; 0
	.db #0x00	; 0
	.db #0x00	; 0
	.db #0x00	; 0
	.db #0x00	; 0
	.db #0x00	; 0
	.db #0x00	; 0
	.db #0x00	; 0
	.db #0x00	; 0
	.db #0x00	; 0
	.db #0x00	; 0
	.db #0x00	; 0
	.db #0x00	; 0
	.db #0x00	; 0
	.db #0x00	; 0
	.db #0x00	; 0
	.db #0x00	; 0
	.db #0x00	; 0
	.db #0x00	; 0
	.db #0x00	; 0
	.db #0x00	; 0
	.db #0x00	; 0
	.db #0x00	; 0
	.db #0x00	; 0
	.db #0x00	; 0
	.db #0x00	; 0
	.db #0x00	; 0
	.db #0x00	; 0
	.db #0x14	; 20
	.db #0x64	; 100	d
	.db #0x64	; 100	d
	.db #0x10	; 16
	.db #0x04	; 4
	.db #0x04	; 4
	.db #0x00	; 0
	.db #0x00	; 0
	.db #0x00	; 0
	.db #0x00	; 0
	.db #0x00	; 0
	.db #0x04	; 4
	.db #0x04	; 4
	.db #0x40	; 64
	.db #0x64	; 100	d
	.db #0x64	; 100	d
	.db #0x44	; 68	D
	.db #0x40	; 64
	.db #0x44	; 68	D
	.db #0x04	; 4
	.db #0x00	; 0
	.db #0x00	; 0
	.db #0x00	; 0
	.db #0x00	; 0
	.db #0x24	; 36
	.db #0x44	; 68	D
	.db #0x64	; 100	d
	.db #0x44	; 68	D
	.db #0x8D	; 141
	.db #0x89	; 137
	.db #0x64	; 100	d
	.db #0x40	; 64
	.db #0x44	; 68	D
	.db #0x00	; 0
	.db #0x00	; 0
	.db #0x00	; 0
	.db #0x00	; 0
	.db #0x24	; 36
	.db #0x44	; 68	D
	.db #0x89	; 137
	.db #0x21	; 33
	.db #0x21	; 33
	.db #0xB2	; 178
	.db #0x40	; 64
	.db #0x21	; 33
	.db #0x64	; 100	d
	.db #0x00	; 0
	.db #0x00	; 0
	.db #0x00	; 0
	.db #0x00	; 0
	.db #0x00	; 0
	.db #0x40	; 64
	.db #0x89	; 137
	.db #0x89	; 137
	.db #0x21	; 33
	.db #0x21	; 33
	.db #0x21	; 33
	.db #0x21	; 33
	.db #0xB1	; 177
	.db #0x89	; 137
	.db #0x00	; 0
	.db #0x00	; 0
	.db #0x00	; 0
	.db #0x00	; 0
	.db #0x00	; 0
	.db #0x89	; 137
	.db #0x8D	; 141
	.db #0x8D	; 141
	.db #0x42	; 66	B
	.db #0x21	; 33
	.db #0x8D	; 141
	.db #0x89	; 137
	.db #0x64	; 100	d
	.db #0x04	; 4
	.db #0x00	; 0
	.db #0x00	; 0
	.db #0x00	; 0
	.db #0x00	; 0
	.db #0x40	; 64
	.db #0x89	; 137
	.db #0xB1	; 177
	.db #0xB1	; 177
	.db #0x8D	; 141
	.db #0x89	; 137
	.db #0x89	; 137
	.db #0x40	; 64
	.db #0x04	; 4
	.db #0x00	; 0
	.db #0x00	; 0
	.db #0x00	; 0
	.db #0x04	; 4
	.db #0x04	; 4
	.db #0x40	; 64
	.db #0x89	; 137
	.db #0xDC	; 220
	.db #0x9C	; 156
	.db #0x64	; 100	d
	.db #0x40	; 64
	.db #0x04	; 4
	.db #0x04	; 4
	.db #0x00	; 0
	.db #0x00	; 0
	.db #0x00	; 0
	.db #0x04	; 4
	.db #0x04	; 4
	.db #0x04	; 4
	.db #0x00	; 0
	.db #0x00	; 0
	.db #0x00	; 0
	.db #0x40	; 64
	.db #0x24	; 36
	.db #0x24	; 36
	.db #0x00	; 0
	.db #0x00	; 0
	.db #0x00	; 0
	.db #0x00	; 0
	.db #0x24	; 36
	.db #0x04	; 4
	.db #0x00	; 0
	.db #0x00	; 0
	.db #0x00	; 0
	.db #0x00	; 0
	.db #0x00	; 0
	.db #0x00	; 0
	.db #0x00	; 0
	.db #0x00	; 0
	.db #0x00	; 0
	.db #0x00	; 0
	.db #0x00	; 0
	.db #0x00	; 0
	.db #0x00	; 0
	.db #0x00	; 0
	.db #0x04	; 4
	.db #0x10	; 16
	.db #0x04	; 4
	.db #0x04	; 4
	.db #0x00	; 0
	.db #0x00	; 0
	.db #0x00	; 0
	.db #0x00	; 0
	.db #0x00	; 0
	.db #0x00	; 0
	.db #0x00	; 0
	.db #0x00	; 0
	.db #0x64	; 100	d
	.db #0x40	; 64
	.db #0x40	; 64
	.db #0x44	; 68	D
	.db #0x04	; 4
	.db #0x00	; 0
	.db #0x00	; 0
	.db #0x00	; 0
	.db #0x00	; 0
	.db #0x00	; 0
	.db #0x00	; 0
	.db #0x14	; 20
	.db #0x64	; 100	d
	.db #0x64	; 100	d
	.db #0x44	; 68	D
	.db #0x40	; 64
	.db #0x64	; 100	d
	.db #0x44	; 68	D
	.db #0x00	; 0
	.db #0x00	; 0
	.db #0x00	; 0
	.db #0x00	; 0
	.db #0x04	; 4
	.db #0x04	; 4
	.db #0x44	; 68	D
	.db #0x40	; 64
	.db #0x44	; 68	D
	.db #0x8D	; 141
	.db #0x89	; 137
	.db #0x21	; 33
	.db #0x89	; 137
	.db #0x64	; 100	d
	.db #0x00	; 0
	.db #0x00	; 0
	.db #0x00	; 0
	.db #0x04	; 4
	.db #0x24	; 36
	.db #0x44	; 68	D
	.db #0x21	; 33
	.db #0x21	; 33
	.db #0xD6	; 214
	.db #0x42	; 66	B
	.db #0x21	; 33
	.db #0xB1	; 177
	.db #0x89	; 137
	.db #0x04	; 4
	.db #0x04	; 4
	.db #0x00	; 0
	.db #0x04	; 4
	.db #0x04	; 4
	.db #0x64	; 100	d
	.db #0x89	; 137
	.db #0x21	; 33
	.db #0x21	; 33
	.db #0x62	; 98	b
	.db #0x42	; 66	B
	.db #0x8D	; 141
	.db #0x89	; 137
	.db #0x40	; 64
	.db #0x04	; 4
	.db #0x00	; 0
	.db #0x00	; 0
	.db #0x00	; 0
	.db #0x44	; 68	D
	.db #0x89	; 137
	.db #0x89	; 137
	.db #0x21	; 33
	.db #0x42	; 66	B
	.db #0x8D	; 141
	.db #0x89	; 137
	.db #0x89	; 137
	.db #0x04	; 4
	.db #0x04	; 4
	.db #0x00	; 0
	.db #0x00	; 0
	.db #0x00	; 0
	.db #0x00	; 0
	.db #0x89	; 137
	.db #0x8D	; 141
	.db #0xB1	; 177
	.db #0xB1	; 177
	.db #0x8D	; 141
	.db #0xDC	; 220
	.db #0x40	; 64
	.db #0x24	; 36
	.db #0x00	; 0
	.db #0x00	; 0
	.db #0x00	; 0
	.db #0x00	; 0
	.db #0x00	; 0
	.db #0x00	; 0
	.db #0x04	; 4
	.db #0x89	; 137
	.db #0x89	; 137
	.db #0xDC	; 220
	.db #0x40	; 64
	.db #0x40	; 64
	.db #0x00	; 0
	.db #0x00	; 0
	.db #0x00	; 0
	.db #0x00	; 0
	.db #0x00	; 0
	.db #0x00	; 0
	.db #0x00	; 0
	.db #0x24	; 36
	.db #0x24	; 36
	.db #0x04	; 4
	.db #0x40	; 64
	.db #0x40	; 64
	.db #0x00	; 0
	.db #0x00	; 0
	.db #0x00	; 0
	.db #0x00	; 0
	.db #0x00	; 0
	.db #0x00	; 0
	.db #0x00	; 0
	.db #0x00	; 0
	.db #0x04	; 4
	.db #0x04	; 4
	.db #0x04	; 4
	.db #0x00	; 0
	.db #0x00	; 0
	.db #0x00	; 0
	.db #0x00	; 0
	.db #0x00	; 0
	.db #0x00	; 0
	.db #0x00	; 0
	.db #0x00	; 0
	.db #0x04	; 4
	.db #0x04	; 4
	.db #0x00	; 0
	.db #0x00	; 0
	.db #0x00	; 0
	.db #0x00	; 0
	.db #0x00	; 0
	.db #0x00	; 0
	.db #0x00	; 0
	.db #0x00	; 0
	.db #0x00	; 0
	.db #0x00	; 0
	.db #0x00	; 0
	.db #0x04	; 4
	.db #0x04	; 4
	.db #0x04	; 4
	.db #0x64	; 100	d
	.db #0x00	; 0
	.db #0x00	; 0
	.db #0x00	; 0
	.db #0x00	; 0
	.db #0x00	; 0
	.db #0x00	; 0
	.db #0x00	; 0
	.db #0x00	; 0
	.db #0x00	; 0
	.db #0x20	; 32
	.db #0x1C	; 28
	.db #0x8D	; 141
	.db #0xD6	; 214
	.db #0x64	; 100	d
	.db #0x89	; 137
	.db #0x89	; 137
	.db #0x00	; 0
	.db #0x00	; 0
	.db #0x00	; 0
	.db #0x00	; 0
	.db #0x00	; 0
	.db #0x40	; 64
	.db #0x64	; 100	d
	.db #0x44	; 68	D
	.db #0xD6	; 214
	.db #0xB1	; 177
	.db #0x21	; 33
	.db #0x21	; 33
	.db #0x8D	; 141
	.db #0x04	; 4
	.db #0x04	; 4
	.db #0x00	; 0
	.db #0x00	; 0
	.db #0x00	; 0
	.db #0x40	; 64
	.db #0x44	; 68	D
	.db #0x44	; 68	D
	.db #0x64	; 100	d
	.db #0x44	; 68	D
	.db #0x42	; 66	B
	.db #0x42	; 66	B
	.db #0x62	; 98	b
	.db #0x64	; 100	d
	.db #0x04	; 4
	.db #0x00	; 0
	.db #0x00	; 0
	.db #0x00	; 0
	.db #0x20	; 32
	.db #0x14	; 20
	.db #0x89	; 137
	.db #0x64	; 100	d
	.db #0x21	; 33
	.db #0x21	; 33
	.db #0x21	; 33
	.db #0x42	; 66	B
	.db #0xB1	; 177
	.db #0x44	; 68	D
	.db #0x00	; 0
	.db #0x00	; 0
	.db #0x24	; 36
	.db #0x04	; 4
	.db #0x64	; 100	d
	.db #0x89	; 137
	.db #0x8D	; 141
	.db #0x8D	; 141
	.db #0x21	; 33
	.db #0x89	; 137
	.db #0x89	; 137
	.db #0xDC	; 220
	.db #0x00	; 0
	.db #0x00	; 0
	.db #0x00	; 0
	.db #0x04	; 4
	.db #0x04	; 4
	.db #0x04	; 4
	.db #0x44	; 68	D
	.db #0xB1	; 177
	.db #0x8D	; 141
	.db #0x89	; 137
	.db #0x89	; 137
	.db #0x64	; 100	d
	.db #0xBC	; 188
	.db #0x00	; 0
	.db #0x00	; 0
	.db #0x00	; 0
	.db #0x00	; 0
	.db #0x04	; 4
	.db #0x00	; 0
	.db #0x00	; 0
	.db #0x64	; 100	d
	.db #0x44	; 68	D
	.db #0x64	; 100	d
	.db #0x44	; 68	D
	.db #0x04	; 4
	.db #0x00	; 0
	.db #0x00	; 0
	.db #0x00	; 0
	.db #0x00	; 0
	.db #0x00	; 0
	.db #0x00	; 0
	.db #0x00	; 0
	.db #0x00	; 0
	.db #0x00	; 0
	.db #0x00	; 0
	.db #0x04	; 4
	.db #0x04	; 4
	.db #0x24	; 36
	.db #0x00	; 0
	.db #0x00	; 0
	.db #0x00	; 0
	.db #0x00	; 0
	.db #0x00	; 0
	.db #0x00	; 0
	.db #0x00	; 0
	.db #0x00	; 0
	.db #0x00	; 0
	.db #0x00	; 0
	.db #0x04	; 4
	.db #0x04	; 4
	.db #0x04	; 4
	.db #0x00	; 0
	.db #0x00	; 0
	.db #0x00	; 0
	.db #0x00	; 0
_shadow:
	.db #0x00	; 0
	.db #0x00	; 0
	.db #0x00	; 0
	.db #0x00	; 0
	.db #0x00	; 0
	.db #0x00	; 0
	.db #0x00	; 0
	.db #0x00	; 0
	.db #0x00	; 0
	.db #0x00	; 0
	.db #0x00	; 0
	.db #0x00	; 0
	.db #0x00	; 0
	.db #0x00	; 0
	.db #0x00	; 0
	.db #0x00	; 0
	.db #0x00	; 0
	.db #0x00	; 0
	.db #0x00	; 0
	.db #0x00	; 0
	.db #0x00	; 0
	.db #0x00	; 0
	.db #0x00	; 0
	.db #0x00	; 0
	.db #0x00	; 0
	.db #0x00	; 0
	.db #0x00	; 0
	.db #0x00	; 0
	.db #0x00	; 0
	.db #0x00	; 0
	.db #0x24	; 36
	.db #0x24	; 36
	.db #0x24	; 36
	.db #0x24	; 36
	.db #0x24	; 36
	.db #0x00	; 0
	.db #0x00	; 0
	.db #0x00	; 0
	.db #0x00	; 0
	.db #0x00	; 0
	.db #0x00	; 0
	.db #0x24	; 36
	.db #0x24	; 36
	.db #0x04	; 4
	.db #0x04	; 4
	.db #0x04	; 4
	.db #0x04	; 4
	.db #0x04	; 4
	.db #0x24	; 36
	.db #0x24	; 36
	.db #0x00	; 0
	.db #0x00	; 0
	.db #0x00	; 0
	.db #0x24	; 36
	.db #0x04	; 4
	.db #0x04	; 4
	.db #0x04	; 4
	.db #0x04	; 4
	.db #0x04	; 4
	.db #0x04	; 4
	.db #0x04	; 4
	.db #0x04	; 4
	.db #0x04	; 4
	.db #0x24	; 36
	.db #0x00	; 0
	.db #0x00	; 0
	.db #0x24	; 36
	.db #0x04	; 4
	.db #0x04	; 4
	.db #0x04	; 4
	.db #0x04	; 4
	.db #0x04	; 4
	.db #0x04	; 4
	.db #0x04	; 4
	.db #0x04	; 4
	.db #0x04	; 4
	.db #0x24	; 36
	.db #0x00	; 0
	.db #0x00	; 0
	.db #0x24	; 36
	.db #0x04	; 4
	.db #0x04	; 4
	.db #0x04	; 4
	.db #0x04	; 4
	.db #0x04	; 4
	.db #0x04	; 4
	.db #0x04	; 4
	.db #0x04	; 4
	.db #0x04	; 4
	.db #0x24	; 36
	.db #0x00	; 0
	.db #0x00	; 0
	.db #0x00	; 0
	.db #0x24	; 36
	.db #0x04	; 4
	.db #0x04	; 4
	.db #0x04	; 4
	.db #0x04	; 4
	.db #0x04	; 4
	.db #0x04	; 4
	.db #0x04	; 4
	.db #0x24	; 36
	.db #0x00	; 0
	.db #0x00	; 0
	.db #0x00	; 0
	.db #0x00	; 0
	.db #0x00	; 0
	.db #0x24	; 36
	.db #0x24	; 36
	.db #0x04	; 4
	.db #0x04	; 4
	.db #0x04	; 4
	.db #0x24	; 36
	.db #0x24	; 36
	.db #0x00	; 0
	.db #0x00	; 0
	.db #0x00	; 0
	.db #0x00	; 0
	.db #0x00	; 0
	.db #0x00	; 0
	.db #0x00	; 0
	.db #0x00	; 0
	.db #0x24	; 36
	.db #0x24	; 36
	.db #0x24	; 36
	.db #0x00	; 0
	.db #0x00	; 0
	.db #0x00	; 0
	.db #0x00	; 0
	.db #0x00	; 0
	.db #0x00	; 0
	.db #0x00	; 0
	.db #0x00	; 0
	.db #0x00	; 0
	.db #0x00	; 0
	.db #0x00	; 0
	.db #0x00	; 0
	.db #0x00	; 0
	.db #0x00	; 0
	.db #0x00	; 0
	.db #0x00	; 0
	.db #0x00	; 0
	.db #0x00	; 0
_charTable:
	.db #0x7C	; 124
	.db #0xEE	; 238
	.db #0xEE	; 238
	.db #0xEE	; 238
	.db #0xEE	; 238
	.db #0xEE	; 238
	.db #0xEE	; 238
	.db #0x7C	; 124
	.db #0x18	; 24
	.db #0x38	; 56
	.db #0x78	; 120	x
	.db #0x38	; 56
	.db #0x38	; 56
	.db #0x38	; 56
	.db #0x38	; 56
	.db #0x7C	; 124
	.db #0x7C	; 124
	.db #0xEE	; 238
	.db #0xEE	; 238
	.db #0x0E	; 14
	.db #0x1C	; 28
	.db #0x38	; 56
	.db #0x70	; 112	p
	.db #0xFE	; 254
	.db #0x7C	; 124
	.db #0xEE	; 238
	.db #0x0E	; 14
	.db #0x1C	; 28
	.db #0x0E	; 14
	.db #0xCE	; 206
	.db #0xEE	; 238
	.db #0x7C	; 124
	.db #0xEE	; 238
	.db #0xEE	; 238
	.db #0xEE	; 238
	.db #0x7E	; 126
	.db #0x1E	; 30
	.db #0x0E	; 14
	.db #0x0E	; 14
	.db #0x0E	; 14
	.db #0xFE	; 254
	.db #0xE0	; 224
	.db #0xE0	; 224
	.db #0x7C	; 124
	.db #0x1E	; 30
	.db #0xCE	; 206
	.db #0xEE	; 238
	.db #0x7C	; 124
	.db #0x7C	; 124
	.db #0xE6	; 230
	.db #0xE0	; 224
	.db #0xF8	; 248
	.db #0xEE	; 238
	.db #0xEE	; 238
	.db #0xEE	; 238
	.db #0x7C	; 124
	.db #0x7E	; 126
	.db #0xFE	; 254
	.db #0x0E	; 14
	.db #0x0E	; 14
	.db #0x1C	; 28
	.db #0x1C	; 28
	.db #0x38	; 56
	.db #0x38	; 56
	.db #0x7C	; 124
	.db #0xEE	; 238
	.db #0xEE	; 238
	.db #0x7C	; 124
	.db #0xEE	; 238
	.db #0xEE	; 238
	.db #0xEE	; 238
	.db #0x7C	; 124
	.db #0x7C	; 124
	.db #0xEE	; 238
	.db #0xEE	; 238
	.db #0x3E	; 62
	.db #0x0E	; 14
	.db #0x0E	; 14
	.db #0xCE	; 206
	.db #0x7C	; 124
	.db #0x00	; 0
	.db #0x00	; 0
	.db #0x18	; 24
	.db #0x18	; 24
	.db #0x00	; 0
	.db #0x18	; 24
	.db #0x18	; 24
	.db #0x00	; 0
	.db #0x00	; 0
	.db #0x00	; 0
	.db #0x30	; 48
	.db #0x30	; 48
	.db #0x00	; 0
	.db #0x30	; 48
	.db #0x30	; 48
	.db #0x60	; 96
	.db #0x18	; 24
	.db #0x30	; 48
	.db #0x60	; 96
	.db #0xC0	; 192
	.db #0xC0	; 192
	.db #0x60	; 96
	.db #0x30	; 48
	.db #0x18	; 24
	.db #0x00	; 0
	.db #0x00	; 0
	.db #0x7C	; 124
	.db #0x7C	; 124
	.db #0x00	; 0
	.db #0x7C	; 124
	.db #0x7C	; 124
	.db #0x00	; 0
	.db #0x18	; 24
	.db #0x0C	; 12
	.db #0x06	; 6
	.db #0x03	; 3
	.db #0x03	; 3
	.db #0x06	; 6
	.db #0x0C	; 12
	.db #0x18	; 24
	.db #0x3C	; 60
	.db #0x66	; 102	f
	.db #0x66	; 102	f
	.db #0x0C	; 12
	.db #0x18	; 24
	.db #0x00	; 0
	.db #0x18	; 24
	.db #0x18	; 24
	.db #0x3C	; 60
	.db #0x42	; 66	B
	.db #0x9A	; 154
	.db #0xA4	; 164
	.db #0xA4	; 164
	.db #0x98	; 152
	.db #0x42	; 66	B
	.db #0x3C	; 60
	.db #0x7C	; 124
	.db #0xEE	; 238
	.db #0xEE	; 238
	.db #0xFE	; 254
	.db #0xEE	; 238
	.db #0xEE	; 238
	.db #0xEE	; 238
	.db #0xEE	; 238
	.db #0xFC	; 252
	.db #0xEE	; 238
	.db #0xEE	; 238
	.db #0xFC	; 252
	.db #0xEE	; 238
	.db #0xEE	; 238
	.db #0xEE	; 238
	.db #0xFC	; 252
	.db #0x7C	; 124
	.db #0xEE	; 238
	.db #0xE0	; 224
	.db #0xE0	; 224
	.db #0xE0	; 224
	.db #0xE0	; 224
	.db #0xEE	; 238
	.db #0x7C	; 124
	.db #0xFC	; 252
	.db #0xEE	; 238
	.db #0xEE	; 238
	.db #0xEE	; 238
	.db #0xEE	; 238
	.db #0xEE	; 238
	.db #0xEE	; 238
	.db #0xFC	; 252
	.db #0x7C	; 124
	.db #0xEE	; 238
	.db #0xE0	; 224
	.db #0xF8	; 248
	.db #0xE0	; 224
	.db #0xE0	; 224
	.db #0xEE	; 238
	.db #0x7C	; 124
	.db #0x7C	; 124
	.db #0xEE	; 238
	.db #0xE0	; 224
	.db #0xF8	; 248
	.db #0xE0	; 224
	.db #0xE0	; 224
	.db #0xE0	; 224
	.db #0xE0	; 224
	.db #0x7C	; 124
	.db #0xEE	; 238
	.db #0xE0	; 224
	.db #0xE0	; 224
	.db #0xEE	; 238
	.db #0xE6	; 230
	.db #0xEE	; 238
	.db #0x7C	; 124
	.db #0x6C	; 108	l
	.db #0xEE	; 238
	.db #0xEE	; 238
	.db #0xFE	; 254
	.db #0xEE	; 238
	.db #0xEE	; 238
	.db #0xEE	; 238
	.db #0xEE	; 238
	.db #0x7C	; 124
	.db #0x38	; 56
	.db #0x38	; 56
	.db #0x38	; 56
	.db #0x38	; 56
	.db #0x38	; 56
	.db #0x38	; 56
	.db #0x7C	; 124
	.db #0x0C	; 12
	.db #0x0E	; 14
	.db #0x0E	; 14
	.db #0x0E	; 14
	.db #0x0E	; 14
	.db #0x0E	; 14
	.db #0xEE	; 238
	.db #0x7C	; 124
	.db #0xEC	; 236
	.db #0xEE	; 238
	.db #0xEC	; 236
	.db #0xF8	; 248
	.db #0xEC	; 236
	.db #0xEE	; 238
	.db #0xEE	; 238
	.db #0xEC	; 236
	.db #0x60	; 96
	.db #0xE0	; 224
	.db #0xE0	; 224
	.db #0xE0	; 224
	.db #0xE0	; 224
	.db #0xE0	; 224
	.db #0xEE	; 238
	.db #0x7C	; 124
	.db #0xEE	; 238
	.db #0xFE	; 254
	.db #0xD6	; 214
	.db #0xEE	; 238
	.db #0xEE	; 238
	.db #0xEE	; 238
	.db #0xEE	; 238
	.db #0xEE	; 238
	.db #0xEE	; 238
	.db #0xEE	; 238
	.db #0xDE	; 222
	.db #0xFE	; 254
	.db #0xFE	; 254
	.db #0xF6	; 246
	.db #0xEE	; 238
	.db #0xEE	; 238
	.db #0x7C	; 124
	.db #0xEE	; 238
	.db #0xEE	; 238
	.db #0xEE	; 238
	.db #0xEE	; 238
	.db #0xEE	; 238
	.db #0xEE	; 238
	.db #0x7C	; 124
	.db #0x7C	; 124
	.db #0xEE	; 238
	.db #0xEE	; 238
	.db #0xEE	; 238
	.db #0xFC	; 252
	.db #0xE0	; 224
	.db #0xE0	; 224
	.db #0xE0	; 224
	.db #0x7C	; 124
	.db #0xEE	; 238
	.db #0xEE	; 238
	.db #0xEE	; 238
	.db #0x7E	; 126
	.db #0x0E	; 14
	.db #0x0E	; 14
	.db #0x0E	; 14
	.db #0xFC	; 252
	.db #0xEE	; 238
	.db #0xEE	; 238
	.db #0xFC	; 252
	.db #0xEE	; 238
	.db #0xEE	; 238
	.db #0xEE	; 238
	.db #0xEE	; 238
	.db #0x7C	; 124
	.db #0xEE	; 238
	.db #0xE0	; 224
	.db #0x7C	; 124
	.db #0x0E	; 14
	.db #0xCE	; 206
	.db #0xEE	; 238
	.db #0x7C	; 124
	.db #0xFE	; 254
	.db #0xFE	; 254
	.db #0x38	; 56
	.db #0x38	; 56
	.db #0x38	; 56
	.db #0x38	; 56
	.db #0x38	; 56
	.db #0x38	; 56
	.db #0x6E	; 110	n
	.db #0xEE	; 238
	.db #0xEE	; 238
	.db #0xEE	; 238
	.db #0xEE	; 238
	.db #0xEE	; 238
	.db #0xEE	; 238
	.db #0x7E	; 126
	.db #0xEE	; 238
	.db #0xEE	; 238
	.db #0xEE	; 238
	.db #0xEE	; 238
	.db #0xEE	; 238
	.db #0xEE	; 238
	.db #0x7C	; 124
	.db #0x38	; 56
	.db #0xEE	; 238
	.db #0xEE	; 238
	.db #0xEE	; 238
	.db #0xEE	; 238
	.db #0xEE	; 238
	.db #0xD6	; 214
	.db #0xFE	; 254
	.db #0xEE	; 238
	.db #0xEE	; 238
	.db #0xEE	; 238
	.db #0x6C	; 108	l
	.db #0x38	; 56
	.db #0x6C	; 108	l
	.db #0xEE	; 238
	.db #0xEE	; 238
	.db #0xEE	; 238
	.db #0x6C	; 108	l
	.db #0xEE	; 238
	.db #0xEE	; 238
	.db #0x7C	; 124
	.db #0x38	; 56
	.db #0x38	; 56
	.db #0x38	; 56
	.db #0x38	; 56
	.db #0xFE	; 254
	.db #0x0E	; 14
	.db #0x1C	; 28
	.db #0x38	; 56
	.db #0x38	; 56
	.db #0x70	; 112	p
	.db #0xE0	; 224
	.db #0xFE	; 254
	.db #0x00	; 0
	.db #0x00	; 0
	.db #0x00	; 0
	.db #0x00	; 0
	.db #0x00	; 0
	.db #0x00	; 0
	.db #0x00	; 0
	.db #0x00	; 0
	.db #0x00	; 0
	.db #0x00	; 0
	.db #0x00	; 0
	.db #0x00	; 0
	.db #0x00	; 0
	.db #0x00	; 0
	.db #0x00	; 0
	.db #0x00	; 0
	.db #0x00	; 0
	.db #0x00	; 0
	.db #0x00	; 0
	.db #0x00	; 0
	.db #0x00	; 0
	.db #0x00	; 0
	.db #0x00	; 0
	.db #0x00	; 0
	.db #0x00	; 0
	.db #0x00	; 0
	.db #0x00	; 0
	.db #0x00	; 0
	.db #0x00	; 0
	.db #0x00	; 0
	.db #0x00	; 0
	.db #0x00	; 0
	.db #0x00	; 0
	.db #0x00	; 0
	.db #0x00	; 0
	.db #0x00	; 0
	.db #0x00	; 0
	.db #0x00	; 0
	.db #0x00	; 0
	.db #0x00	; 0
_trackTiles:
	.db #0x00	; 0
	.db #0x00	; 0
	.db #0x00	; 0
	.db #0xFF	; 255
	.db #0x00	; 0
	.db #0x00	; 0
	.db #0x3F	; 63
	.db #0xFF	; 255
	.db #0x00	; 0
	.db #0x07	; 7
	.db #0xFF	; 255
	.db #0xFF	; 255
	.db #0x00	; 0
	.db #0x7F	; 127
	.db #0xFF	; 255
	.db #0xFF	; 255
	.db #0x01	; 1
	.db #0xFF	; 255
	.db #0xFF	; 255
	.db #0xFF	; 255
	.db #0x03	; 3
	.db #0xFF	; 255
	.db #0xFF	; 255
	.db #0xFF	; 255
	.db #0x07	; 7
	.db #0xFF	; 255
	.db #0xFF	; 255
	.db #0xFF	; 255
	.db #0x0F	; 15
	.db #0xFF	; 255
	.db #0xFF	; 255
	.db #0xFF	; 255
	.db #0x0F	; 15
	.db #0xFF	; 255
	.db #0xFF	; 255
	.db #0xFF	; 255
	.db #0x1F	; 31
	.db #0xFF	; 255
	.db #0xFF	; 255
	.db #0xFF	; 255
	.db #0x1F	; 31
	.db #0xFF	; 255
	.db #0xFF	; 255
	.db #0xFF	; 255
	.db #0x1F	; 31
	.db #0xFF	; 255
	.db #0xFF	; 255
	.db #0xFF	; 255
	.db #0x1F	; 31
	.db #0xFF	; 255
	.db #0xFF	; 255
	.db #0xFF	; 255
	.db #0x3F	; 63
	.db #0xFF	; 255
	.db #0xFF	; 255
	.db #0xFF	; 255
	.db #0x3F	; 63
	.db #0xFF	; 255
	.db #0xFF	; 255
	.db #0xFF	; 255
	.db #0x3F	; 63
	.db #0xFF	; 255
	.db #0xFF	; 255
	.db #0xFF	; 255
	.db #0x3F	; 63
	.db #0xFF	; 255
	.db #0xFF	; 255
	.db #0xFF	; 255
	.db #0x3F	; 63
	.db #0xFF	; 255
	.db #0xFF	; 255
	.db #0xFF	; 255
	.db #0x7F	; 127
	.db #0xFF	; 255
	.db #0xFF	; 255
	.db #0xFF	; 255
	.db #0x7F	; 127
	.db #0xFF	; 255
	.db #0xFF	; 255
	.db #0xFF	; 255
	.db #0x7F	; 127
	.db #0xFF	; 255
	.db #0xFF	; 255
	.db #0xFF	; 255
	.db #0x7F	; 127
	.db #0xFF	; 255
	.db #0xFF	; 255
	.db #0xFF	; 255
	.db #0x7F	; 127
	.db #0xFF	; 255
	.db #0xFF	; 255
	.db #0xFF	; 255
	.db #0x7F	; 127
	.db #0xFF	; 255
	.db #0xFF	; 255
	.db #0xFF	; 255
	.db #0xFF	; 255
	.db #0xFF	; 255
	.db #0xFF	; 255
	.db #0xFF	; 255
	.db #0xFF	; 255
	.db #0xFF	; 255
	.db #0xFF	; 255
	.db #0xFF	; 255
	.db #0xFF	; 255
	.db #0xFF	; 255
	.db #0xFF	; 255
	.db #0xFF	; 255
	.db #0xFF	; 255
	.db #0xFF	; 255
	.db #0xFF	; 255
	.db #0xFF	; 255
	.db #0xFF	; 255
	.db #0xFF	; 255
	.db #0xFF	; 255
	.db #0xFF	; 255
	.db #0xFF	; 255
	.db #0xFF	; 255
	.db #0xFF	; 255
	.db #0xFF	; 255
	.db #0xFF	; 255
	.db #0xFF	; 255
	.db #0xFF	; 255
	.db #0xFF	; 255
	.db #0xFF	; 255
	.db #0xFF	; 255
	.db #0xFF	; 255
	.db #0xFF	; 255
	.db #0x00	; 0
	.db #0x00	; 0
	.db #0x00	; 0
	.db #0x01	; 1
	.db #0x00	; 0
	.db #0x00	; 0
	.db #0x00	; 0
	.db #0x03	; 3
	.db #0x00	; 0
	.db #0x00	; 0
	.db #0x00	; 0
	.db #0x07	; 7
	.db #0x00	; 0
	.db #0x00	; 0
	.db #0x00	; 0
	.db #0x0F	; 15
	.db #0x00	; 0
	.db #0x00	; 0
	.db #0x00	; 0
	.db #0x1F	; 31
	.db #0x00	; 0
	.db #0x00	; 0
	.db #0x00	; 0
	.db #0x3F	; 63
	.db #0x00	; 0
	.db #0x00	; 0
	.db #0x00	; 0
	.db #0x7F	; 127
	.db #0x00	; 0
	.db #0x00	; 0
	.db #0x00	; 0
	.db #0xFF	; 255
	.db #0x00	; 0
	.db #0x00	; 0
	.db #0x01	; 1
	.db #0xFF	; 255
	.db #0x00	; 0
	.db #0x00	; 0
	.db #0x03	; 3
	.db #0xFF	; 255
	.db #0x00	; 0
	.db #0x00	; 0
	.db #0x07	; 7
	.db #0xFF	; 255
	.db #0x00	; 0
	.db #0x00	; 0
	.db #0x0F	; 15
	.db #0xFF	; 255
	.db #0x00	; 0
	.db #0x00	; 0
	.db #0x1F	; 31
	.db #0xFF	; 255
	.db #0x00	; 0
	.db #0x00	; 0
	.db #0x3F	; 63
	.db #0xFF	; 255
	.db #0x00	; 0
	.db #0x00	; 0
	.db #0x7F	; 127
	.db #0xFF	; 255
	.db #0x00	; 0
	.db #0x00	; 0
	.db #0xFF	; 255
	.db #0xFF	; 255
	.db #0x00	; 0
	.db #0x01	; 1
	.db #0xFF	; 255
	.db #0xFF	; 255
	.db #0x00	; 0
	.db #0x03	; 3
	.db #0xFF	; 255
	.db #0xFF	; 255
	.db #0x00	; 0
	.db #0x07	; 7
	.db #0xFF	; 255
	.db #0xFF	; 255
	.db #0x00	; 0
	.db #0x0F	; 15
	.db #0xFF	; 255
	.db #0xFF	; 255
	.db #0x00	; 0
	.db #0x1F	; 31
	.db #0xFF	; 255
	.db #0xFF	; 255
	.db #0x00	; 0
	.db #0x3F	; 63
	.db #0xFF	; 255
	.db #0xFF	; 255
	.db #0x00	; 0
	.db #0x7F	; 127
	.db #0xFF	; 255
	.db #0xFF	; 255
	.db #0x00	; 0
	.db #0xFF	; 255
	.db #0xFF	; 255
	.db #0xFF	; 255
	.db #0x01	; 1
	.db #0xFF	; 255
	.db #0xFF	; 255
	.db #0xFF	; 255
	.db #0x03	; 3
	.db #0xFF	; 255
	.db #0xFF	; 255
	.db #0xFF	; 255
	.db #0x07	; 7
	.db #0xFF	; 255
	.db #0xFF	; 255
	.db #0xFF	; 255
	.db #0x0F	; 15
	.db #0xFF	; 255
	.db #0xFF	; 255
	.db #0xFF	; 255
	.db #0x1F	; 31
	.db #0xFF	; 255
	.db #0xFF	; 255
	.db #0xFF	; 255
	.db #0x3F	; 63
	.db #0xFF	; 255
	.db #0xFF	; 255
	.db #0xFF	; 255
	.db #0x7F	; 127
	.db #0xFF	; 255
	.db #0xFF	; 255
	.db #0xFF	; 255
	.db #0xFF	; 255
	.db #0xFF	; 255
	.db #0xFF	; 255
	.db #0xFF	; 255
	.db #0xFF	; 255
	.db #0xFF	; 255
	.db #0xFF	; 255
	.db #0xFF	; 255
	.db #0xFF	; 255
	.db #0xFF	; 255
	.db #0xFF	; 255
	.db #0xFF	; 255
	.db #0xFF	; 255
	.db #0xFF	; 255
	.db #0xFF	; 255
	.db #0xFF	; 255
	.db #0xFF	; 255
	.db #0xFF	; 255
	.db #0xFF	; 255
	.db #0xFF	; 255
	.db #0xFF	; 255
	.db #0xFF	; 255
	.db #0xFF	; 255
	.db #0xFF	; 255
	.db #0xFF	; 255
	.db #0xFF	; 255
	.db #0xFF	; 255
	.db #0xFF	; 255
	.db #0xFF	; 255
	.db #0xFF	; 255
	.db #0xFF	; 255
	.db #0xFF	; 255
	.db #0xFF	; 255
	.db #0xFF	; 255
	.db #0xFF	; 255
	.db #0xFF	; 255
	.db #0xFF	; 255
	.db #0xFF	; 255
	.db #0xFF	; 255
	.db #0xFF	; 255
	.db #0xFF	; 255
	.db #0xFF	; 255
	.db #0xFF	; 255
	.db #0xFF	; 255
	.db #0xFF	; 255
	.db #0xFF	; 255
	.db #0xFF	; 255
	.db #0xFF	; 255
	.db #0xFF	; 255
	.db #0xFF	; 255
	.db #0xFF	; 255
	.db #0xFF	; 255
	.db #0xFF	; 255
	.db #0xFF	; 255
	.db #0xFF	; 255
	.db #0xFF	; 255
	.db #0xFF	; 255
	.db #0xFF	; 255
	.db #0xFF	; 255
	.db #0xFF	; 255
	.db #0xFF	; 255
	.db #0xFF	; 255
	.db #0xFF	; 255
	.db #0xFF	; 255
	.db #0xFF	; 255
	.db #0xFF	; 255
	.db #0xFF	; 255
	.db #0xFF	; 255
	.db #0xFF	; 255
	.db #0xFF	; 255
	.db #0xFF	; 255
	.db #0xFF	; 255
	.db #0xFF	; 255
	.db #0xFF	; 255
	.db #0xFF	; 255
	.db #0xFF	; 255
	.db #0xFF	; 255
	.db #0xFF	; 255
	.db #0xFF	; 255
	.db #0xFF	; 255
	.db #0xFF	; 255
	.db #0xFF	; 255
	.db #0xFF	; 255
	.db #0xFF	; 255
	.db #0xFF	; 255
	.db #0xFF	; 255
	.db #0xFF	; 255
	.db #0xFF	; 255
	.db #0xFF	; 255
	.db #0xFF	; 255
	.db #0xFF	; 255
	.db #0xFF	; 255
	.db #0xFF	; 255
	.db #0xFF	; 255
	.db #0xFF	; 255
	.db #0xFF	; 255
	.db #0xFF	; 255
	.db #0xFF	; 255
	.db #0xFF	; 255
	.db #0xFF	; 255
	.db #0xFF	; 255
	.db #0xFF	; 255
	.db #0xFF	; 255
	.db #0xFF	; 255
	.db #0xFF	; 255
	.db #0xFF	; 255
	.db #0xFF	; 255
	.db #0xFF	; 255
	.db #0xFF	; 255
	.db #0xFF	; 255
	.db #0xFF	; 255
	.db #0xFF	; 255
	.db #0xFF	; 255
	.db #0xFF	; 255
	.db #0xFF	; 255
	.db #0xFF	; 255
	.db #0xFF	; 255
	.db #0xFF	; 255
	.db #0xFF	; 255
	.db #0xFF	; 255
	.db #0xFF	; 255
	.db #0xFF	; 255
	.db #0xFF	; 255
	.db #0xFF	; 255
	.db #0xFF	; 255
	.db #0xFF	; 255
	.db #0xFF	; 255
	.db #0xFF	; 255
	.db #0xFF	; 255
	.db #0xFF	; 255
	.db #0xFF	; 255
	.db #0xFF	; 255
	.db #0xFF	; 255
	.db #0xFF	; 255
	.db #0xFF	; 255
	.db #0xFF	; 255
	.db #0xFF	; 255
	.db #0xFF	; 255
	.db #0xFF	; 255
	.db #0xFF	; 255
	.db #0xFF	; 255
	.db #0xFF	; 255
	.db #0xFF	; 255
	.db #0xFF	; 255
	.db #0xFF	; 255
	.db #0xFF	; 255
	.db #0xFF	; 255
	.db #0xFF	; 255
	.db #0xFF	; 255
	.db #0xFF	; 255
	.db #0xFF	; 255
	.db #0xFF	; 255
	.db #0xFF	; 255
	.db #0xFF	; 255
	.db #0xFF	; 255
	.db #0xFF	; 255
	.db #0xFF	; 255
	.db #0xFF	; 255
	.db #0xFF	; 255
	.db #0xFF	; 255
	.db #0xFF	; 255
	.db #0xFF	; 255
	.db #0xFF	; 255
	.db #0xFF	; 255
	.db #0xFF	; 255
	.db #0xFF	; 255
	.db #0xFF	; 255
	.db #0xFF	; 255
	.db #0xFF	; 255
	.db #0xFF	; 255
	.db #0xFF	; 255
	.db #0xFF	; 255
	.db #0xFF	; 255
	.db #0xFF	; 255
	.db #0xFF	; 255
	.db #0xFF	; 255
	.db #0xFF	; 255
	.db #0xFF	; 255
	.db #0xFF	; 255
	.db #0xFF	; 255
	.db #0xFF	; 255
	.db #0xFF	; 255
	.db #0xFF	; 255
	.db #0xFF	; 255
	.db #0xFF	; 255
	.db #0xFF	; 255
	.db #0xFF	; 255
	.db #0xFF	; 255
	.db #0x00	; 0
	.db #0x00	; 0
	.db #0x00	; 0
	.db #0x00	; 0
	.db #0xCC	; 204
	.db #0xCC	; 204
	.db #0xCC	; 204
	.db #0xCC	; 204
	.db #0xCC	; 204
	.db #0xCC	; 204
	.db #0xCC	; 204
	.db #0xCC	; 204
	.db #0x33	; 51
	.db #0x33	; 51
	.db #0x33	; 51
	.db #0x33	; 51
	.db #0x33	; 51
	.db #0x33	; 51
	.db #0x33	; 51
	.db #0x33	; 51
	.db #0x00	; 0
	.db #0x00	; 0
	.db #0x00	; 0
	.db #0x00	; 0
	.db #0xFF	; 255
	.db #0xFF	; 255
	.db #0xFF	; 255
	.db #0xFF	; 255
	.db #0xFF	; 255
	.db #0xFF	; 255
	.db #0xFF	; 255
	.db #0xFF	; 255
	.db #0xFF	; 255
	.db #0xFF	; 255
	.db #0xFF	; 255
	.db #0xFF	; 255
	.db #0xFF	; 255
	.db #0xFF	; 255
	.db #0xFF	; 255
	.db #0xFF	; 255
	.db #0xFF	; 255
	.db #0xFF	; 255
	.db #0xFF	; 255
	.db #0xFF	; 255
	.db #0xFF	; 255
	.db #0xFF	; 255
	.db #0xFF	; 255
	.db #0xFF	; 255
	.db #0xFF	; 255
	.db #0xFF	; 255
	.db #0xFF	; 255
	.db #0xFF	; 255
	.db #0xFF	; 255
	.db #0xFF	; 255
	.db #0xFF	; 255
	.db #0xFF	; 255
	.db #0xFF	; 255
	.db #0xFF	; 255
	.db #0xFF	; 255
	.db #0xFF	; 255
	.db #0xFF	; 255
	.db #0xFF	; 255
	.db #0xFF	; 255
	.db #0xFF	; 255
	.db #0xFF	; 255
	.db #0xFF	; 255
	.db #0xFF	; 255
	.db #0xFF	; 255
	.db #0xFF	; 255
	.db #0xFF	; 255
	.db #0xFF	; 255
	.db #0xFF	; 255
	.db #0xFF	; 255
	.db #0xFF	; 255
	.db #0xFF	; 255
	.db #0xFF	; 255
	.db #0xFF	; 255
	.db #0xFF	; 255
	.db #0xFF	; 255
	.db #0xFF	; 255
	.db #0xFF	; 255
	.db #0xFF	; 255
	.db #0xFF	; 255
	.db #0xFF	; 255
	.db #0xFF	; 255
	.db #0xFF	; 255
	.db #0xFF	; 255
	.db #0xFF	; 255
	.db #0xFF	; 255
	.db #0xFF	; 255
	.db #0xFF	; 255
	.db #0xFF	; 255
	.db #0xFF	; 255
	.db #0xFF	; 255
	.db #0xFF	; 255
	.db #0xFF	; 255
	.db #0xFF	; 255
	.db #0xFF	; 255
	.db #0xFF	; 255
	.db #0xFF	; 255
	.db #0xFF	; 255
	.db #0xFF	; 255
	.db #0xFF	; 255
	.db #0xFF	; 255
	.db #0xFF	; 255
	.db #0xFF	; 255
	.db #0xFF	; 255
	.db #0xFF	; 255
	.db #0xFF	; 255
	.db #0xFF	; 255
	.db #0xFF	; 255
	.db #0xFF	; 255
	.db #0xFF	; 255
	.db #0xFF	; 255
	.db #0xFF	; 255
	.db #0xFF	; 255
	.db #0xFF	; 255
	.db #0xFF	; 255
	.db #0xFF	; 255
	.db #0xFF	; 255
	.db #0xFF	; 255
	.db #0xF8	; 248
	.db #0x3F	; 63
	.db #0xFF	; 255
	.db #0xFF	; 255
	.db #0xF0	; 240
	.db #0x1F	; 31
	.db #0xFF	; 255
	.db #0xFF	; 255
	.db #0xE0	; 224
	.db #0x0F	; 15
	.db #0xFF	; 255
	.db #0xFF	; 255
	.db #0xE0	; 224
	.db #0x0F	; 15
	.db #0xFF	; 255
	.db #0xFF	; 255
	.db #0xE0	; 224
	.db #0x0F	; 15
	.db #0xFF	; 255
	.db #0xFF	; 255
	.db #0xE0	; 224
	.db #0x0F	; 15
	.db #0xFF	; 255
	.db #0xFF	; 255
	.db #0xE0	; 224
	.db #0x0F	; 15
	.db #0xFF	; 255
	.db #0xFF	; 255
	.db #0xF0	; 240
	.db #0x1F	; 31
	.db #0xFF	; 255
	.db #0xFF	; 255
	.db #0xF8	; 248
	.db #0x3F	; 63
	.db #0xFF	; 255
	.db #0xFF	; 255
	.db #0xFF	; 255
	.db #0xFF	; 255
	.db #0xFF	; 255
	.db #0xFF	; 255
	.db #0xFF	; 255
	.db #0xFF	; 255
	.db #0xFF	; 255
	.db #0xFF	; 255
	.db #0xFF	; 255
	.db #0xFF	; 255
	.db #0xFF	; 255
	.db #0xFF	; 255
	.db #0xFF	; 255
	.db #0xFF	; 255
	.db #0xFF	; 255
	.db #0xFF	; 255
	.db #0xFF	; 255
	.db #0xFF	; 255
	.db #0xFF	; 255
	.db #0xFF	; 255
	.db #0xFF	; 255
	.db #0xFF	; 255
	.db #0xFF	; 255
	.db #0xFF	; 255
	.db #0xFF	; 255
	.db #0xFF	; 255
	.db #0xFF	; 255
	.db #0xFF	; 255
	.db #0xFF	; 255
	.db #0xFF	; 255
	.db #0xFF	; 255
	.db #0xFF	; 255
	.db #0xFF	; 255
	.db #0xFF	; 255
	.db #0xFF	; 255
	.db #0xFF	; 255
	.db #0xFF	; 255
	.db #0xFF	; 255
	.db #0xFF	; 255
	.db #0xFF	; 255
	.db #0xFF	; 255
	.db #0xFF	; 255
	.db #0xFF	; 255
	.db #0x00	; 0
	.db #0x00	; 0
	.db #0x00	; 0
	.db #0x00	; 0
	.db #0x00	; 0
	.db #0x00	; 0
	.db #0x00	; 0
	.db #0x00	; 0
	.db #0x00	; 0
	.db #0x00	; 0
	.db #0x00	; 0
	.db #0x00	; 0
	.db #0x00	; 0
	.db #0x00	; 0
	.db #0x00	; 0
	.db #0x00	; 0
	.db #0x00	; 0
	.db #0x00	; 0
	.db #0x00	; 0
	.db #0x00	; 0
	.db #0x00	; 0
	.db #0x00	; 0
	.db #0x00	; 0
	.db #0x00	; 0
	.db #0x00	; 0
	.db #0x00	; 0
	.db #0x00	; 0
	.db #0x00	; 0
	.db #0x00	; 0
	.db #0x00	; 0
	.db #0x00	; 0
	.db #0x00	; 0
	.db #0x00	; 0
	.db #0x00	; 0
	.db #0x00	; 0
	.db #0x01	; 1
	.db #0x00	; 0
	.db #0x00	; 0
	.db #0x00	; 0
	.db #0x01	; 1
	.db #0x00	; 0
	.db #0x00	; 0
	.db #0x00	; 0
	.db #0x01	; 1
	.db #0x00	; 0
	.db #0x00	; 0
	.db #0x00	; 0
	.db #0x01	; 1
	.db #0x00	; 0
	.db #0x00	; 0
	.db #0x00	; 0
	.db #0x01	; 1
	.db #0x00	; 0
	.db #0x00	; 0
	.db #0x00	; 0
	.db #0x01	; 1
	.db #0x00	; 0
	.db #0x00	; 0
	.db #0x00	; 0
	.db #0x03	; 3
	.db #0x00	; 0
	.db #0x00	; 0
	.db #0x00	; 0
	.db #0x03	; 3
	.db #0x00	; 0
	.db #0x00	; 0
	.db #0x00	; 0
	.db #0x03	; 3
	.db #0x00	; 0
	.db #0x00	; 0
	.db #0x00	; 0
	.db #0x03	; 3
	.db #0x00	; 0
	.db #0x00	; 0
	.db #0x00	; 0
	.db #0x03	; 3
	.db #0x00	; 0
	.db #0x00	; 0
	.db #0x00	; 0
	.db #0x07	; 7
	.db #0x00	; 0
	.db #0x00	; 0
	.db #0x00	; 0
	.db #0x07	; 7
	.db #0x00	; 0
	.db #0x00	; 0
	.db #0x00	; 0
	.db #0x07	; 7
	.db #0x00	; 0
	.db #0x00	; 0
	.db #0x00	; 0
	.db #0x07	; 7
	.db #0x00	; 0
	.db #0x00	; 0
	.db #0x00	; 0
	.db #0x0F	; 15
	.db #0x00	; 0
	.db #0x00	; 0
	.db #0x00	; 0
	.db #0x0F	; 15
	.db #0x00	; 0
	.db #0x00	; 0
	.db #0x00	; 0
	.db #0x1F	; 31
	.db #0x00	; 0
	.db #0x00	; 0
	.db #0x00	; 0
	.db #0x3F	; 63
	.db #0x00	; 0
	.db #0x00	; 0
	.db #0x00	; 0
	.db #0x7F	; 127
	.db #0x00	; 0
	.db #0x00	; 0
	.db #0x01	; 1
	.db #0xFF	; 255
	.db #0x00	; 0
	.db #0x00	; 0
	.db #0x1F	; 31
	.db #0xFF	; 255
	.db #0x00	; 0
	.db #0x03	; 3
	.db #0xFF	; 255
	.db #0xFF	; 255
	.db #0x00	; 0
	.db #0xFF	; 255
	.db #0xFF	; 255
	.db #0xFF	; 255
	.db #0xFF	; 255
	.db #0x00	; 0
	.db #0x00	; 0
	.db #0x00	; 0
	.db #0xFF	; 255
	.db #0xFC	; 252
	.db #0x00	; 0
	.db #0x00	; 0
	.db #0xFF	; 255
	.db #0xFF	; 255
	.db #0xE0	; 224
	.db #0x00	; 0
	.db #0xFF	; 255
	.db #0xFF	; 255
	.db #0xFE	; 254
	.db #0x00	; 0
	.db #0xFF	; 255
	.db #0xFF	; 255
	.db #0xFF	; 255
	.db #0x80	; 128
	.db #0xFF	; 255
	.db #0xFF	; 255
	.db #0xFF	; 255
	.db #0xC0	; 192
	.db #0xFF	; 255
	.db #0xFF	; 255
	.db #0xFF	; 255
	.db #0xE0	; 224
	.db #0xFF	; 255
	.db #0xFF	; 255
	.db #0xFF	; 255
	.db #0xF0	; 240
	.db #0xFF	; 255
	.db #0xFF	; 255
	.db #0xFF	; 255
	.db #0xF0	; 240
	.db #0xFF	; 255
	.db #0xFF	; 255
	.db #0xFF	; 255
	.db #0xF8	; 248
	.db #0xFF	; 255
	.db #0xFF	; 255
	.db #0xFF	; 255
	.db #0xF8	; 248
	.db #0xFF	; 255
	.db #0xFF	; 255
	.db #0xFF	; 255
	.db #0xF8	; 248
	.db #0xFF	; 255
	.db #0xFF	; 255
	.db #0xFF	; 255
	.db #0xF8	; 248
	.db #0xFF	; 255
	.db #0xFF	; 255
	.db #0xFF	; 255
	.db #0xFC	; 252
	.db #0xFF	; 255
	.db #0xFF	; 255
	.db #0xFF	; 255
	.db #0xFC	; 252
	.db #0xFF	; 255
	.db #0xFF	; 255
	.db #0xFF	; 255
	.db #0xFC	; 252
	.db #0xFF	; 255
	.db #0xFF	; 255
	.db #0xFF	; 255
	.db #0xFC	; 252
	.db #0xFF	; 255
	.db #0xFF	; 255
	.db #0xFF	; 255
	.db #0xFC	; 252
	.db #0xFF	; 255
	.db #0xFF	; 255
	.db #0xFF	; 255
	.db #0xFE	; 254
	.db #0xFF	; 255
	.db #0xFF	; 255
	.db #0xFF	; 255
	.db #0xFE	; 254
	.db #0xFF	; 255
	.db #0xFF	; 255
	.db #0xFF	; 255
	.db #0xFE	; 254
	.db #0xFF	; 255
	.db #0xFF	; 255
	.db #0xFF	; 255
	.db #0xFE	; 254
	.db #0xFF	; 255
	.db #0xFF	; 255
	.db #0xFF	; 255
	.db #0xFE	; 254
	.db #0xFF	; 255
	.db #0xFF	; 255
	.db #0xFF	; 255
	.db #0xFE	; 254
	.db #0xFF	; 255
	.db #0xFF	; 255
	.db #0xFF	; 255
	.db #0xFF	; 255
	.db #0xFF	; 255
	.db #0xFF	; 255
	.db #0xFF	; 255
	.db #0xFF	; 255
	.db #0xFF	; 255
	.db #0xFF	; 255
	.db #0xFF	; 255
	.db #0xFF	; 255
	.db #0xFF	; 255
	.db #0xFF	; 255
	.db #0xFF	; 255
	.db #0xFF	; 255
	.db #0xFF	; 255
	.db #0xFF	; 255
	.db #0xFF	; 255
	.db #0xFF	; 255
	.db #0xFF	; 255
	.db #0xFF	; 255
	.db #0xFF	; 255
	.db #0xFF	; 255
	.db #0xFF	; 255
	.db #0xFF	; 255
	.db #0xFF	; 255
	.db #0xFF	; 255
	.db #0xFF	; 255
	.db #0xFF	; 255
	.db #0xFF	; 255
	.db #0xFF	; 255
	.db #0x00	; 0
	.db #0x00	; 0
	.db #0x00	; 0
	.db #0x00	; 0
	.db #0x00	; 0
	.db #0x00	; 0
	.db #0x00	; 0
	.db #0x00	; 0
	.db #0x00	; 0
	.db #0x00	; 0
	.db #0x00	; 0
	.db #0x00	; 0
	.db #0x00	; 0
	.db #0x00	; 0
	.db #0x00	; 0
	.db #0x00	; 0
	.db #0x00	; 0
	.db #0x00	; 0
	.db #0x00	; 0
	.db #0x00	; 0
	.db #0x00	; 0
	.db #0x00	; 0
	.db #0x00	; 0
	.db #0x00	; 0
	.db #0x00	; 0
	.db #0x00	; 0
	.db #0x00	; 0
	.db #0x00	; 0
	.db #0x00	; 0
	.db #0x00	; 0
	.db #0x00	; 0
	.db #0x00	; 0
	.db #0x00	; 0
	.db #0x00	; 0
	.db #0x00	; 0
	.db #0x00	; 0
	.db #0x00	; 0
	.db #0x00	; 0
	.db #0x00	; 0
	.db #0x00	; 0
	.db #0x00	; 0
	.db #0x00	; 0
	.db #0x00	; 0
	.db #0x00	; 0
	.db #0x00	; 0
	.db #0x00	; 0
	.db #0x00	; 0
	.db #0x00	; 0
	.db #0x00	; 0
	.db #0x00	; 0
	.db #0x00	; 0
	.db #0x00	; 0
	.db #0x00	; 0
	.db #0x00	; 0
	.db #0x00	; 0
	.db #0x00	; 0
	.db #0x00	; 0
	.db #0x00	; 0
	.db #0x00	; 0
	.db #0x00	; 0
	.db #0x00	; 0
	.db #0x00	; 0
	.db #0x00	; 0
	.db #0x00	; 0
	.db #0x00	; 0
	.db #0x00	; 0
	.db #0x00	; 0
	.db #0x00	; 0
	.db #0x00	; 0
	.db #0x00	; 0
	.db #0x00	; 0
	.db #0x00	; 0
	.db #0x00	; 0
	.db #0x00	; 0
	.db #0x00	; 0
	.db #0x00	; 0
	.db #0x00	; 0
	.db #0x00	; 0
	.db #0x00	; 0
	.db #0x00	; 0
	.db #0x00	; 0
	.db #0x00	; 0
	.db #0x00	; 0
	.db #0x00	; 0
	.db #0x00	; 0
	.db #0x00	; 0
	.db #0x00	; 0
	.db #0x00	; 0
	.db #0x00	; 0
	.db #0x00	; 0
	.db #0x00	; 0
	.db #0x00	; 0
	.db #0x00	; 0
	.db #0x00	; 0
	.db #0x00	; 0
	.db #0x00	; 0
	.db #0x00	; 0
	.db #0x00	; 0
	.db #0x00	; 0
	.db #0x00	; 0
	.db #0x00	; 0
	.db #0x00	; 0
	.db #0x00	; 0
	.db #0x00	; 0
	.db #0x00	; 0
	.db #0x00	; 0
	.db #0x00	; 0
	.db #0x00	; 0
	.db #0x00	; 0
	.db #0x00	; 0
	.db #0x00	; 0
	.db #0x00	; 0
	.db #0x00	; 0
	.db #0x00	; 0
	.db #0x00	; 0
	.db #0x00	; 0
	.db #0x00	; 0
	.db #0x00	; 0
	.db #0x00	; 0
	.db #0x00	; 0
	.db #0x00	; 0
	.db #0x00	; 0
	.db #0x00	; 0
	.db #0x00	; 0
	.db #0x00	; 0
	.db #0x00	; 0
	.db #0x00	; 0
	.db #0x00	; 0
	.db #0x00	; 0
	.db #0x00	; 0
	.db #0x00	; 0
	.db #0x00	; 0
	.db #0x00	; 0
	.db #0x00	; 0
	.db #0x00	; 0
	.db #0x00	; 0
	.db #0x00	; 0
	.db #0x00	; 0
	.db #0x00	; 0
	.db #0x00	; 0
	.db #0x00	; 0
	.db #0x1F	; 31
	.db #0xF8	; 248
	.db #0x00	; 0
	.db #0x00	; 0
	.db #0xFF	; 255
	.db #0xFF	; 255
	.db #0x00	; 0
	.db #0x03	; 3
	.db #0xFF	; 255
	.db #0xFF	; 255
	.db #0xC0	; 192
	.db #0x07	; 7
	.db #0xFF	; 255
	.db #0xFF	; 255
	.db #0xE0	; 224
	.db #0x0F	; 15
	.db #0xFF	; 255
	.db #0xFF	; 255
	.db #0xF0	; 240
	.db #0x0F	; 15
	.db #0xFF	; 255
	.db #0xFF	; 255
	.db #0xF0	; 240
	.db #0x1F	; 31
	.db #0xFF	; 255
	.db #0xFF	; 255
	.db #0xF8	; 248
	.db #0x1F	; 31
	.db #0xFF	; 255
	.db #0xFF	; 255
	.db #0xF8	; 248
	.db #0x1F	; 31
	.db #0xFF	; 255
	.db #0xFF	; 255
	.db #0xF8	; 248
	.db #0x1F	; 31
	.db #0xFF	; 255
	.db #0xFF	; 255
	.db #0xF8	; 248
	.db #0x3F	; 63
	.db #0xFF	; 255
	.db #0xFF	; 255
	.db #0xFC	; 252
	.db #0x3F	; 63
	.db #0xFF	; 255
	.db #0xFF	; 255
	.db #0xFC	; 252
	.db #0x3F	; 63
	.db #0xFF	; 255
	.db #0xFF	; 255
	.db #0xFC	; 252
	.db #0x3F	; 63
	.db #0xFF	; 255
	.db #0xFF	; 255
	.db #0xFC	; 252
	.db #0x3F	; 63
	.db #0xFF	; 255
	.db #0xFF	; 255
	.db #0xFC	; 252
	.db #0x7F	; 127
	.db #0xFF	; 255
	.db #0xFF	; 255
	.db #0xFE	; 254
	.db #0x7F	; 127
	.db #0xFF	; 255
	.db #0xFF	; 255
	.db #0xFE	; 254
	.db #0x7F	; 127
	.db #0xFF	; 255
	.db #0xFF	; 255
	.db #0xFE	; 254
	.db #0x7F	; 127
	.db #0xFF	; 255
	.db #0xFF	; 255
	.db #0xFE	; 254
	.db #0x7F	; 127
	.db #0xFF	; 255
	.db #0xFF	; 255
	.db #0xFE	; 254
	.db #0x7F	; 127
	.db #0xFF	; 255
	.db #0xFF	; 255
	.db #0xFE	; 254
	.db #0xFF	; 255
	.db #0xFF	; 255
	.db #0xFF	; 255
	.db #0xFF	; 255
	.db #0xFF	; 255
	.db #0xFF	; 255
	.db #0xFF	; 255
	.db #0xFF	; 255
	.db #0xFF	; 255
	.db #0xFF	; 255
	.db #0xFF	; 255
	.db #0xFF	; 255
	.db #0xFF	; 255
	.db #0xFF	; 255
	.db #0xFF	; 255
	.db #0xFF	; 255
	.db #0xFF	; 255
	.db #0xFF	; 255
	.db #0xFF	; 255
	.db #0xFF	; 255
	.db #0xFF	; 255
	.db #0xFF	; 255
	.db #0xFF	; 255
	.db #0xFF	; 255
	.db #0xFF	; 255
	.db #0xFF	; 255
	.db #0xFF	; 255
	.db #0xFF	; 255
	.db #0xFF	; 255
	.db #0xFF	; 255
	.db #0xFF	; 255
	.db #0xFF	; 255
	.db #0xFF	; 255
	.db #0xF8	; 248
	.db #0x00	; 0
	.db #0x00	; 0
	.db #0xFF	; 255
	.db #0xBF	; 191
	.db #0x6E	; 110	n
	.db #0x00	; 0
	.db #0xFF	; 255
	.db #0xBF	; 191
	.db #0x78	; 120	x
	.db #0x00	; 0
	.db #0xFF	; 255
	.db #0xFB	; 251
	.db #0xF0	; 240
	.db #0x00	; 0
	.db #0xFF	; 255
	.db #0xFF	; 255
	.db #0xBC	; 188
	.db #0x00	; 0
	.db #0xFF	; 255
	.db #0xFF	; 255
	.db #0xC6	; 198
	.db #0x00	; 0
	.db #0xFF	; 255
	.db #0xFF	; 255
	.db #0x80	; 128
	.db #0x00	; 0
	.db #0xFF	; 255
	.db #0xBD	; 189
	.db #0xB8	; 184
	.db #0x00	; 0
	.db #0xFF	; 255
	.db #0xF4	; 244
	.db #0x88	; 136
	.db #0x00	; 0
	.db #0xFF	; 255
	.db #0xFE	; 254
	.db #0x3E	; 62
	.db #0x00	; 0
	.db #0xFF	; 255
	.db #0xFF	; 255
	.db #0x3E	; 62
	.db #0x00	; 0
	.db #0xFF	; 255
	.db #0xFF	; 255
	.db #0xF0	; 240
	.db #0x00	; 0
	.db #0xFF	; 255
	.db #0xE7	; 231
	.db #0xFE	; 254
	.db #0x00	; 0
	.db #0xFF	; 255
	.db #0xC3	; 195
	.db #0xC0	; 192
	.db #0x00	; 0
	.db #0xFF	; 255
	.db #0xFF	; 255
	.db #0x38	; 56
	.db #0x00	; 0
	.db #0xFF	; 255
	.db #0xFF	; 255
	.db #0x72	; 114	r
	.db #0x00	; 0
	.db #0xFE	; 254
	.db #0x1E	; 30
	.db #0xE0	; 224
	.db #0x00	; 0
	.db #0xFF	; 255
	.db #0xD7	; 215
	.db #0xF8	; 248
	.db #0x00	; 0
	.db #0xFF	; 255
	.db #0xFE	; 254
	.db #0x5C	; 92
	.db #0x00	; 0
	.db #0xFF	; 255
	.db #0x79	; 121	y
	.db #0xFC	; 252
	.db #0x00	; 0
	.db #0xFF	; 255
	.db #0xF5	; 245
	.db #0xF2	; 242
	.db #0x00	; 0
	.db #0xFF	; 255
	.db #0xF8	; 248
	.db #0xF8	; 248
	.db #0x00	; 0
	.db #0xFF	; 255
	.db #0xFC	; 252
	.db #0x00	; 0
	.db #0x00	; 0
	.db #0xFF	; 255
	.db #0xEF	; 239
	.db #0x82	; 130
	.db #0x00	; 0
	.db #0xFD	; 253
	.db #0xE1	; 225
	.db #0xC0	; 192
	.db #0x00	; 0
	.db #0xFF	; 255
	.db #0xFC	; 252
	.db #0x48	; 72	H
	.db #0x00	; 0
	.db #0xFF	; 255
	.db #0xFF	; 255
	.db #0xA4	; 164
	.db #0x00	; 0
	.db #0xFF	; 255
	.db #0xEE	; 238
	.db #0x00	; 0
	.db #0x00	; 0
	.db #0xFF	; 255
	.db #0xFE	; 254
	.db #0x76	; 118	v
	.db #0x00	; 0
	.db #0xFF	; 255
	.db #0xBF	; 191
	.db #0x08	; 8
	.db #0x00	; 0
	.db #0xFF	; 255
	.db #0xFC	; 252
	.db #0x70	; 112	p
	.db #0x00	; 0
	.db #0xFF	; 255
	.db #0xFF	; 255
	.db #0xC2	; 194
	.db #0x00	; 0
	.db #0xFF	; 255
	.db #0xFF	; 255
	.db #0xFF	; 255
	.db #0xFF	; 255
	.db #0xFF	; 255
	.db #0xFF	; 255
	.db #0xFF	; 255
	.db #0xFF	; 255
	.db #0xFF	; 255
	.db #0xFF	; 255
	.db #0xFF	; 255
	.db #0xFF	; 255
	.db #0xFF	; 255
	.db #0xFF	; 255
	.db #0xFF	; 255
	.db #0xFF	; 255
	.db #0xFF	; 255
	.db #0xFF	; 255
	.db #0xFF	; 255
	.db #0xFF	; 255
	.db #0xFF	; 255
	.db #0xFF	; 255
	.db #0xFF	; 255
	.db #0xFF	; 255
	.db #0xFF	; 255
	.db #0xF0	; 240
	.db #0x0F	; 15
	.db #0xFF	; 255
	.db #0xFF	; 255
	.db #0xC0	; 192
	.db #0x03	; 3
	.db #0xFF	; 255
	.db #0xFF	; 255
	.db #0x80	; 128
	.db #0x01	; 1
	.db #0xFF	; 255
	.db #0xFF	; 255
	.db #0x00	; 0
	.db #0x00	; 0
	.db #0xFF	; 255
	.db #0xFE	; 254
	.db #0x00	; 0
	.db #0x00	; 0
	.db #0x7F	; 127
	.db #0xFE	; 254
	.db #0x00	; 0
	.db #0x00	; 0
	.db #0x7F	; 127
	.db #0xFC	; 252
	.db #0x00	; 0
	.db #0x00	; 0
	.db #0x3F	; 63
	.db #0xFC	; 252
	.db #0x00	; 0
	.db #0x00	; 0
	.db #0x3F	; 63
	.db #0xFC	; 252
	.db #0x00	; 0
	.db #0x00	; 0
	.db #0x3F	; 63
	.db #0xFC	; 252
	.db #0x00	; 0
	.db #0x00	; 0
	.db #0x3F	; 63
	.db #0xFC	; 252
	.db #0x00	; 0
	.db #0x00	; 0
	.db #0x3F	; 63
	.db #0xFC	; 252
	.db #0x00	; 0
	.db #0x00	; 0
	.db #0x3F	; 63
	.db #0xFC	; 252
	.db #0x00	; 0
	.db #0x00	; 0
	.db #0x3F	; 63
	.db #0xFC	; 252
	.db #0x00	; 0
	.db #0x00	; 0
	.db #0x3F	; 63
	.db #0xFE	; 254
	.db #0x00	; 0
	.db #0x00	; 0
	.db #0x7F	; 127
	.db #0xFE	; 254
	.db #0x00	; 0
	.db #0x00	; 0
	.db #0x7F	; 127
	.db #0xFF	; 255
	.db #0x00	; 0
	.db #0x00	; 0
	.db #0xFF	; 255
	.db #0xFF	; 255
	.db #0x80	; 128
	.db #0x01	; 1
	.db #0xFF	; 255
	.db #0xFF	; 255
	.db #0xC0	; 192
	.db #0x03	; 3
	.db #0xFF	; 255
	.db #0xFF	; 255
	.db #0xF0	; 240
	.db #0x0F	; 15
	.db #0xFF	; 255
	.db #0xFF	; 255
	.db #0xFF	; 255
	.db #0xFF	; 255
	.db #0xFF	; 255
	.db #0xFF	; 255
	.db #0xFF	; 255
	.db #0xFF	; 255
	.db #0xFF	; 255
	.db #0xFF	; 255
	.db #0xFF	; 255
	.db #0xFF	; 255
	.db #0xFF	; 255
	.db #0xFF	; 255
	.db #0xFF	; 255
	.db #0xFF	; 255
	.db #0xFF	; 255
	.db #0xFF	; 255
	.db #0xFF	; 255
	.db #0xFF	; 255
	.db #0xFF	; 255
	.db #0xFF	; 255
	.db #0xFF	; 255
	.db #0xFF	; 255
	.db #0xFF	; 255
	.db #0xFF	; 255
	.db #0xFF	; 255
	.db #0xFF	; 255
	.db #0xFF	; 255
	.db #0xFF	; 255
	.db #0xFF	; 255
	.db #0xFF	; 255
	.db #0xFF	; 255
	.db #0xFF	; 255
	.db #0xFF	; 255
	.db #0xFF	; 255
	.db #0xFF	; 255
	.db #0xFF	; 255
	.db #0xFF	; 255
	.db #0xFF	; 255
	.db #0xFF	; 255
	.db #0xC0	; 192
	.db #0x00	; 0
	.db #0x00	; 0
	.db #0x03	; 3
	.db #0x80	; 128
	.db #0x00	; 0
	.db #0x00	; 0
	.db #0x01	; 1
	.db #0x80	; 128
	.db #0x00	; 0
	.db #0x00	; 0
	.db #0x01	; 1
	.db #0x80	; 128
	.db #0x00	; 0
	.db #0x00	; 0
	.db #0x01	; 1
	.db #0x80	; 128
	.db #0x00	; 0
	.db #0x00	; 0
	.db #0x01	; 1
	.db #0x80	; 128
	.db #0x00	; 0
	.db #0x00	; 0
	.db #0x01	; 1
	.db #0x80	; 128
	.db #0x00	; 0
	.db #0x00	; 0
	.db #0x01	; 1
	.db #0xC0	; 192
	.db #0x00	; 0
	.db #0x00	; 0
	.db #0x03	; 3
	.db #0xFF	; 255
	.db #0xFF	; 255
	.db #0xFF	; 255
	.db #0xFF	; 255
	.db #0xFF	; 255
	.db #0xFF	; 255
	.db #0xFF	; 255
	.db #0xFF	; 255
	.db #0xFF	; 255
	.db #0xFF	; 255
	.db #0xFF	; 255
	.db #0xFF	; 255
	.db #0xFF	; 255
	.db #0xFF	; 255
	.db #0xFF	; 255
	.db #0xFF	; 255
	.db #0xFF	; 255
	.db #0xFF	; 255
	.db #0xFF	; 255
	.db #0xFF	; 255
	.db #0xFF	; 255
	.db #0xFF	; 255
	.db #0xFF	; 255
	.db #0xFF	; 255
	.db #0xFF	; 255
	.db #0xFF	; 255
	.db #0xFF	; 255
	.db #0xFF	; 255
	.db #0xFF	; 255
	.db #0xFF	; 255
	.db #0xFF	; 255
	.db #0xFF	; 255
	.db #0xFF	; 255
	.db #0xFF	; 255
	.db #0xFF	; 255
	.db #0xFF	; 255
	.db #0xFF	; 255
	.db #0xFF	; 255
	.db #0xFF	; 255
	.db #0xFF	; 255
	.db #0xFF	; 255
	.db #0xFF	; 255
	.db #0xFF	; 255
	.db #0xFF	; 255
	.db #0xFF	; 255
	.db #0xFF	; 255
	.db #0xFF	; 255
	.db #0xFF	; 255
	.db #0xFF	; 255
	.db #0xFF	; 255
	.db #0xFF	; 255
	.db #0xFF	; 255
	.db #0xFF	; 255
	.db #0xFF	; 255
	.db #0xFF	; 255
	.db #0xFF	; 255
	.db #0xFF	; 255
	.db #0xFF	; 255
	.db #0xFF	; 255
	.db #0xFF	; 255
	.db #0xFF	; 255
	.db #0xFF	; 255
	.db #0xFF	; 255
	.db #0xFF	; 255
	.db #0xFF	; 255
	.db #0xFF	; 255
	.db #0xFF	; 255
	.db #0xFF	; 255
	.db #0xFF	; 255
	.db #0xFF	; 255
	.db #0xFF	; 255
	.db #0xFF	; 255
	.db #0xFF	; 255
	.db #0xFF	; 255
	.db #0xFF	; 255
	.db #0xFF	; 255
	.db #0xFF	; 255
	.db #0xFF	; 255
	.db #0xFF	; 255
	.db #0xFF	; 255
	.db #0xFF	; 255
	.db #0xFF	; 255
	.db #0xFF	; 255
	.db #0xFF	; 255
	.db #0xFF	; 255
	.db #0xFF	; 255
	.db #0xFF	; 255
	.db #0xFF	; 255
	.db #0xFF	; 255
	.db #0xFF	; 255
	.db #0xFF	; 255
	.db #0xFF	; 255
	.db #0xFF	; 255
	.db #0xFF	; 255
	.db #0xFF	; 255
	.db #0xFF	; 255
	.db #0xFF	; 255
	.db #0xFF	; 255
	.db #0xFF	; 255
	.db #0xFF	; 255
	.db #0xFF	; 255
	.db #0xFF	; 255
	.db #0xFF	; 255
	.db #0xFF	; 255
	.db #0xFF	; 255
	.db #0xFF	; 255
	.db #0xFF	; 255
	.db #0xFF	; 255
	.db #0xFF	; 255
	.db #0xFF	; 255
	.db #0xFF	; 255
	.db #0xFF	; 255
	.db #0xFF	; 255
	.db #0xFF	; 255
	.db #0xFF	; 255
	.db #0xFF	; 255
	.db #0xFF	; 255
	.db #0xFF	; 255
	.db #0xFF	; 255
	.db #0xFF	; 255
	.db #0xFF	; 255
	.db #0xFF	; 255
	.db #0xFF	; 255
	.db #0xFF	; 255
	.db #0xFF	; 255
	.db #0xFF	; 255
	.db #0xFF	; 255
	.db #0xFF	; 255
	.db #0xFF	; 255
	.db #0xFF	; 255
	.db #0xFF	; 255
	.db #0xFF	; 255
	.db #0xFF	; 255
	.db #0xFF	; 255
	.db #0xFF	; 255
	.db #0xFF	; 255
	.db #0xFF	; 255
	.db #0xFF	; 255
	.db #0xFF	; 255
	.db #0xFF	; 255
	.db #0xFF	; 255
	.db #0xFF	; 255
	.db #0xFF	; 255
	.db #0xFF	; 255
	.db #0xFF	; 255
	.db #0xFF	; 255
	.db #0xFF	; 255
	.db #0xFF	; 255
	.db #0xFF	; 255
	.db #0xFF	; 255
	.db #0xFF	; 255
	.db #0xFF	; 255
	.db #0xFF	; 255
	.db #0xFF	; 255
	.db #0xFF	; 255
	.db #0xFF	; 255
	.db #0xFF	; 255
	.db #0xFF	; 255
	.db #0xFF	; 255
	.db #0xFF	; 255
	.db #0xFF	; 255
	.db #0xFF	; 255
	.db #0xFF	; 255
	.db #0xFF	; 255
	.db #0xFF	; 255
	.db #0xFF	; 255
	.db #0xFF	; 255
	.db #0xFF	; 255
	.db #0xFF	; 255
	.db #0xFF	; 255
	.db #0xFF	; 255
	.db #0xFF	; 255
	.db #0xFF	; 255
	.db #0xFF	; 255
	.db #0xFF	; 255
	.db #0xFF	; 255
	.db #0xFF	; 255
	.db #0xFF	; 255
	.db #0xFF	; 255
	.db #0xFF	; 255
	.db #0xFF	; 255
	.db #0xFF	; 255
	.db #0xFF	; 255
	.db #0xFF	; 255
	.db #0xFF	; 255
	.db #0xFF	; 255
	.db #0xFF	; 255
	.db #0xFF	; 255
	.db #0xFF	; 255
	.db #0xFF	; 255
	.db #0xFF	; 255
	.db #0xFF	; 255
	.db #0xFF	; 255
	.db #0xFF	; 255
	.db #0xFF	; 255
	.db #0xFF	; 255
	.db #0xFF	; 255
	.db #0xFF	; 255
	.db #0xFF	; 255
	.db #0xFF	; 255
	.db #0xFF	; 255
	.db #0xFF	; 255
	.db #0xFF	; 255
	.db #0xFF	; 255
	.db #0xFF	; 255
	.db #0xFF	; 255
	.db #0xFF	; 255
	.db #0xFF	; 255
	.db #0xFF	; 255
	.db #0xFF	; 255
	.db #0xFF	; 255
	.db #0xFF	; 255
	.db #0xFF	; 255
	.db #0xFF	; 255
	.db #0xFF	; 255
	.db #0xFF	; 255
	.db #0xFF	; 255
	.db #0xFF	; 255
	.db #0xFF	; 255
	.db #0xFF	; 255
	.db #0xFF	; 255
	.db #0xFF	; 255
	.db #0xFF	; 255
	.db #0xFF	; 255
	.db #0xFF	; 255
	.db #0xFF	; 255
	.db #0xFF	; 255
	.db #0xFF	; 255
	.db #0xFF	; 255
	.db #0xFF	; 255
	.db #0xFF	; 255
	.db #0xFF	; 255
	.db #0xFF	; 255
	.db #0xFF	; 255
	.db #0xFF	; 255
	.db #0xFF	; 255
	.db #0xFF	; 255
	.db #0xFF	; 255
	.db #0xFF	; 255
	.db #0xFF	; 255
	.db #0xFF	; 255
	.db #0xFF	; 255
	.db #0xFF	; 255
	.db #0xFF	; 255
	.db #0xFF	; 255
	.db #0xFF	; 255
	.db #0xFF	; 255
	.db #0xFF	; 255
	.db #0xFF	; 255
	.db #0xFF	; 255
	.db #0xFF	; 255
	.db #0xFF	; 255
	.db #0xFF	; 255
	.db #0xFF	; 255
	.db #0xFF	; 255
	.db #0xFF	; 255
	.db #0xFF	; 255
	.db #0xFF	; 255
	.db #0xFF	; 255
	.db #0xFF	; 255
	.db #0xFF	; 255
	.db #0xFF	; 255
	.db #0xFF	; 255
	.db #0xFF	; 255
	.db #0xFF	; 255
	.db #0xFF	; 255
	.db #0xFF	; 255
	.db #0xFF	; 255
	.db #0xFF	; 255
	.db #0xFF	; 255
	.db #0xFF	; 255
	.db #0xFF	; 255
	.db #0xFF	; 255
	.db #0xFF	; 255
	.db #0xFF	; 255
	.db #0xFF	; 255
	.db #0xFF	; 255
	.db #0xFF	; 255
	.db #0xFF	; 255
	.db #0xFF	; 255
	.db #0xFF	; 255
	.db #0xFF	; 255
	.db #0xFF	; 255
	.db #0xFF	; 255
	.db #0xFF	; 255
	.db #0xFF	; 255
	.db #0xFF	; 255
	.db #0xFF	; 255
	.db #0xFF	; 255
	.db #0xFF	; 255
	.db #0xFF	; 255
	.db #0xFF	; 255
	.db #0xFF	; 255
	.db #0xFF	; 255
	.db #0xFF	; 255
	.db #0xFF	; 255
	.db #0xFF	; 255
	.db #0xFF	; 255
	.db #0xFF	; 255
	.db #0xFF	; 255
	.db #0xFF	; 255
	.db #0xFF	; 255
	.db #0xFF	; 255
	.db #0xFF	; 255
	.db #0xFF	; 255
	.db #0xFF	; 255
	.db #0xFF	; 255
	.db #0xFF	; 255
	.db #0xFF	; 255
	.db #0xFF	; 255
	.db #0xFF	; 255
	.db #0xFF	; 255
	.db #0xFF	; 255
	.db #0xFF	; 255
	.db #0xFF	; 255
	.db #0xFF	; 255
	.db #0xFF	; 255
	.db #0xFF	; 255
	.db #0xFF	; 255
	.db #0xFF	; 255
	.db #0xFF	; 255
	.db #0xFF	; 255
	.db #0xFF	; 255
	.db #0xFF	; 255
	.db #0xFF	; 255
	.db #0xFF	; 255
	.db #0xFF	; 255
	.db #0xFF	; 255
	.db #0xFF	; 255
	.db #0xFF	; 255
	.db #0xFF	; 255
	.db #0xFF	; 255
	.db #0xFF	; 255
	.db #0xFF	; 255
	.db #0xFF	; 255
	.db #0xFF	; 255
	.db #0xFF	; 255
	.db #0xFF	; 255
	.db #0xFF	; 255
	.db #0xFF	; 255
	.db #0xFF	; 255
	.db #0xFF	; 255
	.db #0xFF	; 255
	.db #0xFF	; 255
	.db #0xFF	; 255
	.db #0xFF	; 255
	.db #0xFF	; 255
	.db #0xFF	; 255
	.db #0xFF	; 255
	.db #0xFF	; 255
	.db #0xFF	; 255
	.db #0xFF	; 255
	.db #0xFF	; 255
	.db #0xFF	; 255
	.db #0xFF	; 255
	.db #0xFF	; 255
	.db #0xFF	; 255
	.db #0xFF	; 255
	.db #0xFF	; 255
	.db #0xFF	; 255
	.db #0xFF	; 255
	.db #0xFF	; 255
	.db #0xFF	; 255
	.db #0xFF	; 255
	.db #0xFF	; 255
	.db #0xFF	; 255
	.db #0xFF	; 255
	.db #0xFF	; 255
	.db #0xFF	; 255
	.db #0xFF	; 255
	.db #0xFF	; 255
	.db #0xFF	; 255
	.db #0xFF	; 255
	.db #0xFF	; 255
	.db #0xFF	; 255
	.db #0xFF	; 255
	.db #0xFF	; 255
	.db #0xFF	; 255
	.db #0xFF	; 255
	.db #0xFF	; 255
	.db #0xFF	; 255
	.db #0xFF	; 255
	.db #0xFF	; 255
	.db #0xFF	; 255
	.db #0xFF	; 255
	.db #0xFF	; 255
	.db #0xFF	; 255
	.db #0xFF	; 255
	.db #0xFF	; 255
	.db #0xFF	; 255
	.db #0xFF	; 255
	.db #0xFF	; 255
	.db #0xFF	; 255
	.db #0xFF	; 255
	.db #0xFF	; 255
	.db #0xFF	; 255
	.db #0xFF	; 255
	.db #0xFF	; 255
	.db #0xFF	; 255
	.db #0xFF	; 255
	.db #0xFF	; 255
	.db #0xFF	; 255
	.db #0xFF	; 255
	.db #0xFF	; 255
	.db #0xFF	; 255
	.db #0xFF	; 255
	.db #0xFF	; 255
	.db #0xFF	; 255
	.db #0xFF	; 255
	.db #0xFF	; 255
	.db #0xFF	; 255
	.db #0xFF	; 255
	.db #0xFF	; 255
	.db #0xFF	; 255
	.db #0xFF	; 255
	.db #0xFF	; 255
	.db #0xFF	; 255
	.db #0xFF	; 255
	.db #0xFF	; 255
	.db #0xFF	; 255
	.db #0xFF	; 255
	.db #0xFF	; 255
	.db #0xFF	; 255
	.db #0xFF	; 255
	.db #0xFF	; 255
	.db #0xFF	; 255
	.db #0xFF	; 255
	.db #0xFF	; 255
	.db #0xFF	; 255
	.db #0xFF	; 255
	.db #0xFF	; 255
	.db #0xFF	; 255
	.db #0xFF	; 255
	.db #0xFF	; 255
	.db #0xFF	; 255
	.db #0xFF	; 255
	.db #0xFF	; 255
	.db #0xFF	; 255
	.db #0xFF	; 255
	.db #0xFF	; 255
	.db #0xFF	; 255
	.db #0xFF	; 255
	.db #0xFF	; 255
	.db #0xFF	; 255
	.db #0xFF	; 255
	.db #0xFF	; 255
	.db #0xFF	; 255
	.db #0xFF	; 255
	.db #0xFF	; 255
	.db #0xFF	; 255
	.db #0xFF	; 255
	.db #0xFF	; 255
	.db #0xFF	; 255
	.db #0xFF	; 255
	.db #0xFF	; 255
	.db #0xFF	; 255
	.db #0xFF	; 255
	.db #0xFF	; 255
	.db #0xFF	; 255
	.db #0xFF	; 255
	.db #0xFF	; 255
	.db #0xFF	; 255
	.db #0xFF	; 255
	.db #0xFF	; 255
	.db #0xFF	; 255
	.db #0xFF	; 255
	.db #0xFF	; 255
	.db #0xFF	; 255
	.db #0xFF	; 255
	.db #0xFF	; 255
	.db #0xFF	; 255
	.db #0xFF	; 255
	.db #0xFF	; 255
	.db #0xFF	; 255
	.db #0xFF	; 255
	.db #0xFF	; 255
	.db #0xFF	; 255
	.db #0xFF	; 255
	.db #0xFF	; 255
	.db #0xFF	; 255
	.db #0xFF	; 255
	.db #0xFF	; 255
	.db #0xFF	; 255
	.db #0xFF	; 255
	.db #0xFF	; 255
	.db #0xFF	; 255
	.db #0xFF	; 255
	.db #0xFF	; 255
	.db #0xFF	; 255
	.db #0xFF	; 255
	.db #0xFF	; 255
	.db #0xFF	; 255
	.db #0xFF	; 255
	.db #0xFF	; 255
	.db #0xFF	; 255
	.db #0xFF	; 255
	.db #0xFF	; 255
	.db #0xFF	; 255
	.db #0xFF	; 255
	.db #0xFF	; 255
	.db #0xFF	; 255
	.db #0xFF	; 255
	.db #0xFF	; 255
	.db #0xFF	; 255
	.db #0xFF	; 255
	.db #0xFF	; 255
	.db #0xFF	; 255
	.db #0xFF	; 255
	.db #0xFF	; 255
	.db #0xFF	; 255
	.db #0xFF	; 255
	.db #0xFF	; 255
	.db #0xFF	; 255
	.db #0xFF	; 255
	.db #0xFF	; 255
	.db #0xFF	; 255
	.db #0xFF	; 255
	.db #0xFF	; 255
	.db #0xFF	; 255
	.db #0xFF	; 255
	.db #0xFF	; 255
	.db #0xFF	; 255
	.db #0xFF	; 255
	.db #0xFF	; 255
	.db #0xFF	; 255
	.db #0xFF	; 255
	.db #0xFF	; 255
	.db #0xFF	; 255
	.db #0xFF	; 255
	.db #0xFF	; 255
	.db #0xFF	; 255
	.db #0xFF	; 255
	.db #0xFF	; 255
	.db #0xFF	; 255
	.db #0xFF	; 255
	.db #0xFF	; 255
	.db #0xFF	; 255
	.db #0xFF	; 255
	.db #0xFF	; 255
	.db #0xFF	; 255
	.db #0xFF	; 255
	.db #0xFF	; 255
	.db #0xFF	; 255
	.db #0xFF	; 255
	.db #0xFF	; 255
	.db #0xFF	; 255
	.db #0xFF	; 255
	.db #0xFF	; 255
	.db #0xFF	; 255
	.db #0xFF	; 255
	.db #0xFF	; 255
	.db #0xFF	; 255
	.db #0xFF	; 255
	.db #0xFF	; 255
	.db #0xFF	; 255
	.db #0xFF	; 255
	.db #0xFF	; 255
	.db #0xFF	; 255
	.db #0xFF	; 255
	.db #0xFF	; 255
	.db #0xFF	; 255
	.db #0xFF	; 255
	.db #0xFF	; 255
	.db #0xFF	; 255
	.db #0xFF	; 255
	.db #0xFF	; 255
	.db #0xFF	; 255
	.db #0xFF	; 255
	.db #0xFF	; 255
	.db #0xFF	; 255
	.db #0xFF	; 255
	.db #0xFF	; 255
	.db #0xFF	; 255
	.db #0xFF	; 255
	.db #0xFF	; 255
	.db #0xFF	; 255
	.db #0xFF	; 255
	.db #0xFF	; 255
	.db #0xFF	; 255
	.db #0xFF	; 255
	.db #0xFF	; 255
	.db #0xFF	; 255
	.db #0xFF	; 255
	.db #0xFF	; 255
	.db #0xFF	; 255
	.db #0xFF	; 255
	.db #0xFF	; 255
	.db #0xFF	; 255
	.db #0xFF	; 255
	.db #0xFF	; 255
	.db #0xFF	; 255
	.db #0xFF	; 255
_g_Sinus:
	.dw #0x0000
	.dw #0x0019
	.dw #0x0031
	.dw #0x004A
	.dw #0x0061
	.dw #0x0078
	.dw #0x008E
	.dw #0x00A2
	.dw #0x00B5
	.dw #0x00C5
	.dw #0x00D4
	.dw #0x00E1
	.dw #0x00EC
	.dw #0x00F4
	.dw #0x00FB
	.dw #0x00FE
	.dw #0x0100
	.dw #0x00FE
	.dw #0x00FB
	.dw #0x00F4
	.dw #0x00EC
	.dw #0x00E1
	.dw #0x00D4
	.dw #0x00C5
	.dw #0x00B5
	.dw #0x00A2
	.dw #0x008E
	.dw #0x0078
	.dw #0x0061
	.dw #0x004A
	.dw #0x0031
	.dw #0x0019
	.dw #0x0000
	.dw #0xFFE7
	.dw #0xFFCF
	.dw #0xFFB6
	.dw #0xFF9F
	.dw #0xFF88
	.dw #0xFF72
	.dw #0xFF5E
	.dw #0xFF4B
	.dw #0xFF3B
	.dw #0xFF2C
	.dw #0xFF1F
	.dw #0xFF14
	.dw #0xFF0C
	.dw #0xFF05
	.dw #0xFF02
	.dw #0xFF00
	.dw #0xFF02
	.dw #0xFF05
	.dw #0xFF0C
	.dw #0xFF14
	.dw #0xFF1F
	.dw #0xFF2C
	.dw #0xFF3B
	.dw #0xFF4B
	.dw #0xFF5E
	.dw #0xFF72
	.dw #0xFF88
	.dw #0xFF9F
	.dw #0xFFB6
	.dw #0xFFCF
	.dw #0xFFE7
_g_Cosinus:
	.dw #0x0100
	.dw #0x00FE
	.dw #0x00FB
	.dw #0x00F4
	.dw #0x00EC
	.dw #0x00E1
	.dw #0x00D4
	.dw #0x00C5
	.dw #0x00B5
	.dw #0x00A2
	.dw #0x008E
	.dw #0x0078
	.dw #0x0061
	.dw #0x004A
	.dw #0x0031
	.dw #0x0019
	.dw #0x0000
	.dw #0xFFE7
	.dw #0xFFCF
	.dw #0xFFB6
	.dw #0xFF9F
	.dw #0xFF88
	.dw #0xFF72
	.dw #0xFF5E
	.dw #0xFF4B
	.dw #0xFF3B
	.dw #0xFF2C
	.dw #0xFF1F
	.dw #0xFF14
	.dw #0xFF0C
	.dw #0xFF05
	.dw #0xFF02
	.dw #0xFF00
	.dw #0xFF02
	.dw #0xFF05
	.dw #0xFF0C
	.dw #0xFF14
	.dw #0xFF1F
	.dw #0xFF2C
	.dw #0xFF3B
	.dw #0xFF4B
	.dw #0xFF5E
	.dw #0xFF72
	.dw #0xFF88
	.dw #0xFF9F
	.dw #0xFFB6
	.dw #0xFFCF
	.dw #0xFFE7
	.dw #0x0000
	.dw #0x0019
	.dw #0x0031
	.dw #0x004A
	.dw #0x0061
	.dw #0x0078
	.dw #0x008E
	.dw #0x00A2
	.dw #0x00B5
	.dw #0x00C5
	.dw #0x00D4
	.dw #0x00E1
	.dw #0x00EC
	.dw #0x00F4
	.dw #0x00FB
	.dw #0x00FE
_defaultColor:
	.db #0x01	; 1
	.db #0x01	; 1
	.db #0x09	; 9
	.db #0x0D	; 13
	.db #0x0D	; 13
	.db #0x09	; 9
	.db #0x01	; 1
	.db #0x01	; 1
_cars:
	.db #0x05	; 5
	.db #0x18	; 24
	.db #0x04	; 4
	.db #0x04	; 4
	.db #0x20	; 32
	.db #0x04	; 4
	.db #0x04	; 4
	.db #0x1E	; 30
	.db #0x04	; 4
	.db #0x06	; 6
	.db #0x10	; 16
	.db #0x04	; 4
_track01:
	.db #0x00	; 0
	.db #0xE0	; 224
	.db #0x92	; 146
	.db #0x02	; 2
	.db #0xE0	; 224
	.db #0x92	; 146
	.db #0x02	; 2
	.db #0xE0	; 224
	.db #0x92	; 146
	.db #0x20	; 32
	.db #0xE0	; 224
	.db #0x92	; 146
	.db #0x00	; 0
	.db #0xE0	; 224
	.db #0x92	; 146
	.db #0x02	; 2
	.db #0xE0	; 224
	.db #0x92	; 146
	.db #0x20	; 32
	.db #0xE0	; 224
	.db #0x92	; 146
	.db #0x02	; 2
	.db #0xE0	; 224
	.db #0x92	; 146
	.db #0x01	; 1
	.db #0x92	; 146
	.db #0xE0	; 224
	.db #0x02	; 2
	.db #0x92	; 146
	.db #0xE0	; 224
	.db #0x80	; 128
	.db #0xE0	; 224
	.db #0x92	; 146
	.db #0x40	; 64
	.db #0xE0	; 224
	.db #0x92	; 146
	.db #0x21	; 33
	.db #0x92	; 146
	.db #0xE0	; 224
	.db #0x02	; 2
	.db #0xE0	; 224
	.db #0x92	; 146
	.db #0x03	; 3
	.db #0xFF	; 255
	.db #0x92	; 146
	.db #0x02	; 2
	.db #0x92	; 146
	.db #0xE0	; 224
	.db #0x02	; 2
	.db #0x92	; 146
	.db #0xE0	; 224
	.db #0x02	; 2
	.db #0x92	; 146
	.db #0xE0	; 224
	.db #0x02	; 2
	.db #0x92	; 146
	.db #0xE0	; 224
	.db #0x02	; 2
	.db #0x92	; 146
	.db #0xE0	; 224
	.db #0x29	; 41
	.db #0x90	; 144
	.db #0x92	; 146
	.db #0x02	; 2
	.db #0xE0	; 224
	.db #0x92	; 146
	.db #0x02	; 2
	.db #0x92	; 146
	.db #0xE0	; 224
	.db #0x02	; 2
	.db #0x92	; 146
	.db #0xE0	; 224
	.db #0x02	; 2
	.db #0x92	; 146
	.db #0xE0	; 224
	.db #0x02	; 2
	.db #0x92	; 146
	.db #0xE0	; 224
	.db #0x01	; 1
	.db #0xE0	; 224
	.db #0x90	; 144
	.db #0x02	; 2
	.db #0xE0	; 224
	.db #0x90	; 144
	.db #0x02	; 2
	.db #0xE0	; 224
	.db #0x92	; 146
	.db #0x00	; 0
	.db #0xE0	; 224
	.db #0x92	; 146
	.db #0x02	; 2
	.db #0xE0	; 224
	.db #0x92	; 146
	.db #0x02	; 2
	.db #0x92	; 146
	.db #0xE0	; 224
	.db #0x8B	; 139
	.db #0x5D	; 93
	.db #0x90	; 144
	.db #0x04	; 4
	.db #0xE0	; 224
	.db #0x90	; 144
	.db #0x02	; 2
	.db #0xE0	; 224
	.db #0x90	; 144
	.db #0x80	; 128
	.db #0xE0	; 224
	.db #0x92	; 146
	.db #0x02	; 2
	.db #0xE0	; 224
	.db #0x92	; 146
	.db #0x01	; 1
	.db #0x92	; 146
	.db #0xE0	; 224
	.db #0x02	; 2
	.db #0x92	; 146
	.db #0xE0	; 224
	.db #0x21	; 33
	.db #0x90	; 144
	.db #0xE0	; 224
	.db #0x02	; 2
	.db #0xE0	; 224
	.db #0x90	; 144
	.db #0x40	; 64
	.db #0xE0	; 224
	.db #0x90	; 144
;carwar.c:193: void MainLoop()
;	---------------------------------
; Function MainLoop
; ---------------------------------
_MainLoop_start::
_MainLoop:
	push	ix
	ld	ix,#0
	add	ix,sp
	ld	hl,#-32
	add	hl,sp
	ld	sp,hl
;carwar.c:197: u8 page = 0;
	ld	-4 (ix),#0x00
;carwar.c:204: SetFreq(FREQ_50);
	ld	a,#0x20
	push	af
	inc	sp
	call	_SetFreq
	inc	sp
;carwar.c:205: SetScreen8(LINES_212);
	ld	a,#0x80
	push	af
	inc	sp
	call	_SetScreen8
	inc	sp
;carwar.c:206: SetSpriteMode(SPRITE_ON, SPRITE_NO_MAG + SPRITE_SIZE_8, 0xF800 >> 11, 0xF700 >> 7);
	ld	hl,#0x01EE
	push	hl
	ld	hl,#0x001F
	push	hl
	ld	l, #0x00
	push	hl
	call	_SetSpriteMode
	pop	af
	pop	af
;carwar.c:208: FillVRAM(0, 0,   256, 256, 0);
	ld	h,#0x00
	ex	(sp),hl
	inc	sp
	ld	hl,#0x0100
	push	hl
	ld	l, #0x00
	push	hl
	ld	h, #0x00
	push	hl
	ld	l, #0x00
	push	hl
	call	_FillVRAM
	ld	hl,#0x0009
	add	hl,sp
	ld	sp,hl
;carwar.c:209: FillVRAM(0, 256, 256, 256, 0);
	ld	a,#0x00
	push	af
	inc	sp
	ld	hl,#0x0100
	push	hl
	ld	l, #0x00
	push	hl
	ld	l, #0x00
	push	hl
	ld	h, #0x00
	push	hl
	call	_FillVRAM
	ld	hl,#0x0009
	add	hl,sp
	ld	sp,hl
;carwar.c:213: for(x=0; x<sizeof(charTable)/8; x++)
	ld	-8 (ix),#0x00
	ld	-7 (ix),#0x00
00161$:
	ld	a,-8 (ix)
	sub	a,#0x30
	ld	a,-7 (ix)
	sbc	a,#0x00
	jr	NC,00164$
;carwar.c:215: RAMtoVRAM((x * 8) % 256, 248 + (x / 32), 8, 1, (u16)&charTable[x * 8]);
	ld	c,-8 (ix)
	ld	b,-7 (ix)
	sla	c
	rl	b
	sla	c
	rl	b
	sla	c
	rl	b
	ld	hl,#_charTable
	add	hl,bc
	ld	-18 (ix), l
	ld	-17 (ix), h
	ld	l,-8 (ix)
	ld	h,-7 (ix)
	srl	h
	rr	l
	srl	h
	rr	l
	srl	h
	rr	l
	srl	h
	rr	l
	srl	h
	rr	l
	ld	de, #0x00F8
	add	hl, de
	ex	de,hl
	ld	b,#0x00
	ld	l,-18 (ix)
	ld	h,-17 (ix)
	push	hl
	ld	hl,#0x0001
	push	hl
	ld	l, #0x08
	push	hl
	push	de
	push	bc
	call	_RAMtoVRAM
	ld	hl,#0x000A
	add	hl,sp
	ld	sp,hl
;carwar.c:213: for(x=0; x<sizeof(charTable)/8; x++)
	inc	-8 (ix)
	jr	NZ,00161$
	inc	-7 (ix)
	jr	00161$
00164$:
;carwar.c:220: PrintSprite(64, 64, "BUILD\nTRACK", (u16)&defaultColor);
	ld	c,#<(_defaultColor)
	ld	b,#>(_defaultColor)
	push	bc
	ld	hl,#__str_0
	push	hl
	ld	hl,#0x4040
	push	hl
	call	_PrintSprite
	pop	af
	pop	af
;carwar.c:231: FillVRAM(0, 0, 256, 212, COLOR_GREEN);
	ld	h,#0xE0
	ex	(sp),hl
	inc	sp
	ld	hl,#0x00D4
	push	hl
	ld	hl,#0x0100
	push	hl
	ld	h, #0x00
	push	hl
	ld	l, #0x00
	push	hl
	call	_FillVRAM
	ld	hl,#0x0009
	add	hl,sp
	ld	sp,hl
;carwar.c:232: for(i=0; i<7; i++)
	ld	-1 (ix),#0x00
00177$:
	ld	a,-1 (ix)
	sub	a,#0x07
	jp	NC,00180$
;carwar.c:234: for(j=0; j<6; j++)
	ld	a,-1 (ix)
	rrca
	rrca
	rrca
	and	a,#0xE0
	add	a,#0x10
	ld	b,a
	ld	e,b
	ld	-2 (ix),#0x00
	ld	-18 (ix),#0x00
00173$:
	ld	a,-2 (ix)
	sub	a,#0x06
	jp	NC,00179$
;carwar.c:236: tile = &track01[i + j * 7];
	ld	a,-1 (ix)
	add	a,-18 (ix)
	ld	l,a
	push	de
	ld	a,l
	ld	e,a
	add	a,a
	add	a,e
	pop	de
	add	a,#<(_track01)
	ld	c,a
	ld	a,#>(_track01)
	adc	a,#0x00
	ld	d,a
	ld	-16 (ix),c
	ld	-15 (ix),d
;carwar.c:237: for(x=0; x<32; x++)
	ld	a,-16 (ix)
	add	a,#0x01
	ld	-20 (ix),a
	ld	a,-15 (ix)
	adc	a,#0x00
	ld	-19 (ix),a
	ld	a,-2 (ix)
	rrca
	rrca
	rrca
	and	a,#0xE0
	add	a,#0x08
	ld	-21 (ix),a
	ld	a,-16 (ix)
	add	a,#0x02
	ld	-23 (ix),a
	ld	a,-15 (ix)
	adc	a,#0x00
	ld	-22 (ix),a
	ld	a,-21 (ix)
	ld	-24 (ix),a
	ld	-14 (ix),#0x00
	ld	-13 (ix),#0x00
00169$:
	ld	a,-14 (ix)
	sub	a,#0x20
	ld	a,-13 (ix)
	sbc	a,#0x00
	jp	NC,00175$
;carwar.c:239: for(y=0; y<32; y++)
	ld	a,#0x1F
	sub	a,-14 (ix)
	ld	-26 (ix),a
	ld	a,#0x00
	sbc	a,-13 (ix)
	ld	-25 (ix),a
	ld	a,-26 (ix)
	ld	-28 (ix),a
	ld	a,-25 (ix)
	ld	-27 (ix),a
	ld	-12 (ix),#0x00
	ld	-11 (ix),#0x00
00165$:
	ld	a,-12 (ix)
	sub	a,#0x20
	ld	a,-11 (ix)
	sbc	a,#0x00
	jp	NC,00171$
;carwar.c:241: if(tile->tile & ROT_1)      { lx = y;      ly = 31 - x; }
	ld	l,-16 (ix)
	ld	h,-15 (ix)
	ld	l,(hl)
	ld	a,l
	and	a,#0x20
	jr	Z,00108$
	ld	a,-12 (ix)
	ld	-30 (ix),a
	ld	a,-11 (ix)
	ld	-29 (ix),a
	ld	a,-28 (ix)
	ld	-32 (ix),a
	ld	a,-27 (ix)
	ld	-31 (ix),a
	jr	00109$
00108$:
;carwar.c:242: else if(tile->tile & ROT_2) { lx = 31 - x; ly = 31 - y; }
	ld	a,l
	and	a,#0x40
	jr	Z,00105$
	ld	a,-26 (ix)
	ld	-30 (ix),a
	ld	a,-25 (ix)
	ld	-29 (ix),a
	ld	a,#0x1F
	sub	a,-12 (ix)
	ld	-32 (ix),a
	ld	a,#0x00
	sbc	a,-11 (ix)
	ld	-31 (ix),a
	jr	00109$
00105$:
;carwar.c:243: else if(tile->tile & ROT_3) { lx = 31 - y; ly = x; }
	ld	a,l
	and	a,#0x80
	jr	Z,00102$
	ld	a,#0x1F
	sub	a,-12 (ix)
	ld	-30 (ix),a
	ld	a,#0x00
	sbc	a,-11 (ix)
	ld	-29 (ix),a
	ld	a,-14 (ix)
	ld	-32 (ix),a
	ld	a,-13 (ix)
	ld	-31 (ix),a
	jr	00109$
00102$:
;carwar.c:244: else                        { lx = x;      ly = y; }
	ld	a,-14 (ix)
	ld	-30 (ix),a
	ld	a,-13 (ix)
	ld	-29 (ix),a
	ld	a,-12 (ix)
	ld	-32 (ix),a
	ld	a,-11 (ix)
	ld	-31 (ix),a
00109$:
;carwar.c:245: byte = trackTiles[32 * 4 * (tile->tile & 0x0F) + (lx / 8) + (ly * 4)];
	ld	l,-16 (ix)
	ld	h,-15 (ix)
	ld	a,(hl)
	and	a,#0x0F
	ld	l,a
	ld	h,#0x00
	add	hl,hl
	add	hl,hl
	add	hl,hl
	add	hl,hl
	add	hl,hl
	add	hl,hl
	add	hl,hl
	ld	c,-30 (ix)
	ld	d,-29 (ix)
	srl	d
	rr	c
	srl	d
	rr	c
	srl	d
	rr	c
	ld	a,l
	add	a,c
	ld	c,a
	ld	a,h
	adc	a,d
	ld	d,a
	ld	l,-32 (ix)
	ld	h,-31 (ix)
	add	hl,hl
	add	hl,hl
	ld	a,c
	add	a,l
	ld	c,a
	ld	a,d
	adc	a,h
	ld	d,a
	ld	a,#<(_trackTiles)
	add	a,c
	ld	c,a
	ld	a,#>(_trackTiles)
	adc	a,d
	ld	h, a
	ld	l, c
	ld	a,(hl)
	ld	-3 (ix),a
;carwar.c:246: if(byte & (1 << (7 - (lx & 0x07))))
	ld	a,-30 (ix)
	and	a,#0x07
	ld	l,a
	ld	h,#0x00
	ld	a,#0x07
	sub	a,l
	ld	d,a
	ld	a,#0x00
	sbc	a,h
	ld	a,d
	inc	a
	push	af
	ld	d,#0x01
	ld	c,#0x00
	pop	af
	jr	00280$
00279$:
	sla	d
	rl	c
00280$:
	dec	a
	jr	NZ,00279$
	ld	a, -3 (ix)
	ld	h, #0x00
	and	a,d
	ld	l,a
	ld	a,h
	and	a,c
	ld	h,a
	ld	a,l
	or	a,h
	jr	Z,00111$
;carwar.c:247: DrawPoint8(16 + 32 * i + x, 8 + 32 * j + y, tile->color1);
	ld	l,-23 (ix)
	ld	h,-22 (ix)
	ld	l,(hl)
	ld	c,-12 (ix)
	ld	a,-24 (ix)
	add	a,c
	ld	c,a
	ld	d,-14 (ix)
	ld	a,e
	add	a,d
	ld	d,a
	push	bc
	push	de
	ld	b, l
	push	bc
	push	de
	inc	sp
	call	_DrawPoint8
	pop	af
	inc	sp
	pop	de
	pop	bc
	jr	00167$
00111$:
;carwar.c:249: DrawPoint8(16 + 32 * i + x, 8 + 32 * j + y, tile->color0);
	ld	l,-20 (ix)
	ld	h,-19 (ix)
	ld	l,(hl)
	ld	c,-12 (ix)
	ld	a,-21 (ix)
	add	a,c
	ld	c,a
	ld	d,-14 (ix)
	ld	a,b
	add	a,d
	ld	d,a
	push	bc
	push	de
	ld	b, l
	push	bc
	push	de
	inc	sp
	call	_DrawPoint8
	pop	af
	inc	sp
	pop	de
	pop	bc
00167$:
;carwar.c:239: for(y=0; y<32; y++)
	inc	-12 (ix)
	jp	NZ,00165$
	inc	-11 (ix)
	jp	00165$
00171$:
;carwar.c:237: for(x=0; x<32; x++)
	inc	-14 (ix)
	jp	NZ,00169$
	inc	-13 (ix)
	jp	00169$
00175$:
;carwar.c:234: for(j=0; j<6; j++)
	ld	a,-18 (ix)
	add	a,#0x07
	ld	-18 (ix),a
	inc	-2 (ix)
	jp	00173$
00179$:
;carwar.c:232: for(i=0; i<7; i++)
	inc	-1 (ix)
	jp	00177$
00180$:
;carwar.c:254: PrintSprite(64, 64, "SHADE\nTRACK", (u16)&defaultColor);
	ld	c,#<(_defaultColor)
	ld	b,#>(_defaultColor)
	push	bc
	ld	hl,#__str_1
	push	hl
	ld	hl,#0x4040
	push	hl
	call	_PrintSprite
	pop	af
	pop	af
;carwar.c:262: VRAMtoVRAM(0, 0, 0, 256, 256, 212);
	ld	hl,#0x00D4
	ex	(sp),hl
	ld	hl,#0x0100
	push	hl
	ld	l, #0x00
	push	hl
	ld	h, #0x00
	push	hl
	ld	l, #0x00
	push	hl
	ld	l, #0x00
	push	hl
	call	_VRAMtoVRAM
	ld	hl,#0x000C
	add	hl,sp
	ld	sp,hl
;carwar.c:263: ClearSprite();
	call	_ClearSprite
;carwar.c:267: PrintSprite(64, 64, "INIT\nCARS", (u16)&defaultColor);
	ld	c,#<(_defaultColor)
	ld	b,#>(_defaultColor)
	push	bc
	ld	hl,#__str_2
	push	hl
	ld	hl,#0x4040
	push	hl
	call	_PrintSprite
	pop	af
	pop	af
	pop	af
;carwar.c:268: for(i=0; i<16; i++)
	ld	-1 (ix),#0x00
	ld	de,#0x0000
	ld	-32 (ix),#0x00
	ld	-31 (ix),#0x00
00181$:
	ld	a,-1 (ix)
	sub	a,#0x10
	jp	NC,00184$
;carwar.c:270: RAMtoVRAM(i * 13, 256 + 212 + 0,  13, 11, (u16)&car1[13 * 11 * i]);
	ld	hl,#_car1
	add	hl,de
	push	de
	push	hl
	ld	hl,#0x000B
	push	hl
	ld	l, #0x0D
	push	hl
	ld	hl,#0x01D4
	push	hl
	ld	l,-32 (ix)
	ld	h,-31 (ix)
	push	hl
	call	_RAMtoVRAM
	ld	hl,#0x000A
	add	hl,sp
	ld	sp,hl
	pop	de
;carwar.c:271: RAMtoVRAM(i * 13, 256 + 212 + 11, 13, 11, (u16)&car2[13 * 11 * i]);
	ld	hl,#_car2
	add	hl,de
	push	de
	push	hl
	ld	hl,#0x000B
	push	hl
	ld	l, #0x0D
	push	hl
	ld	hl,#0x01DF
	push	hl
	ld	l,-32 (ix)
	ld	h,-31 (ix)
	push	hl
	call	_RAMtoVRAM
	ld	hl,#0x000A
	add	hl,sp
	ld	sp,hl
	pop	de
;carwar.c:272: RAMtoVRAM(i * 13, 256 + 212 + 22, 13, 11, (u16)&car3[13 * 11 * i]);
	ld	hl,#_car3
	add	hl,de
	push	de
	push	hl
	ld	hl,#0x000B
	push	hl
	ld	l, #0x0D
	push	hl
	ld	hl,#0x01EA
	push	hl
	ld	l,-32 (ix)
	ld	h,-31 (ix)
	push	hl
	call	_RAMtoVRAM
	ld	hl,#0x000A
	add	hl,sp
	ld	sp,hl
	pop	de
;carwar.c:273: RAMtoVRAM(i * 13, 256 + 212 + 33, 13, 11, (u16)&car4[13 * 11 * i]);
	ld	hl,#_car4
	add	hl,de
	push	de
	push	hl
	ld	hl,#0x000B
	push	hl
	ld	l, #0x0D
	push	hl
	ld	hl,#0x01F5
	push	hl
	ld	l,-32 (ix)
	ld	h,-31 (ix)
	push	hl
	call	_RAMtoVRAM
	ld	hl,#0x000A
	add	hl,sp
	ld	sp,hl
	pop	de
;carwar.c:268: for(i=0; i<16; i++)
	ld	hl,#0x008F
	add	hl,de
	ex	de,hl
	ld	a,-32 (ix)
	add	a,#0x0D
	ld	-32 (ix),a
	ld	a,-31 (ix)
	adc	a,#0x00
	ld	-31 (ix),a
	inc	-1 (ix)
	jp	00181$
00184$:
;carwar.c:275: ClearSprite();
	call	_ClearSprite
;carwar.c:279: PrintSprite(64, 64, "INIT\nTRACK\nBACKUP", (u16)&defaultColor);
	ld	c,#<(_defaultColor)
	ld	b,#>(_defaultColor)
	push	bc
	ld	hl,#__str_3
	push	hl
	ld	hl,#0x4040
	push	hl
	call	_PrintSprite
	pop	af
	pop	af
	pop	af
;carwar.c:280: for(i=0; i<4; i++)
	ld	-1 (ix),#0x00
	ld	b,#0x00
	ld	-30 (ix),#0x00
	ld	-29 (ix),#0x00
00185$:
	ld	a,-1 (ix)
	sub	a,#0x04
	jp	NC,00188$
;carwar.c:282: InitializePlayer(&players[i], i, 50 + 50 * i, 100);
	ld	a,b
	add	a,#0x32
	ld	-32 (ix),a
	ld	a,-1 (ix)
	rlca
	rlca
	rlca
	rlca
	and	a,#0xF0
	ld	c, a
	add	a,#<(_players)
	ld	e,a
	ld	a,#>(_players)
	adc	a,#0x00
	ld	d,a
	push	bc
	ld	a,#0x64
	push	af
	inc	sp
	ld	h,-32 (ix)
	ld	l,-1 (ix)
	push	hl
	push	de
	call	_InitializePlayer
	pop	af
	pop	af
	inc	sp
	pop	bc
;carwar.c:283: VRAMtoVRAM(ScrPosX(players[i].posX), (256 * 0) + ScrPosY(players[i].posY), (13 * i) + (52 * 0), 212, 13, 11);
	ld	a,#<(_players)
	add	a,c
	ld	e,a
	ld	a,#>(_players)
	adc	a,#0x00
	ld	d,a
	inc	de
	ld	l,e
	ld	h,d
	inc	hl
	inc	hl
	ld	a, (hl)
	ld	h, #0x00
	add	a,#0xFB
	ld	-28 (ix),a
	ld	a,h
	adc	a,#0xFF
	ld	-27 (ix),a
	ld	a,#<(_players)
	add	a,c
	ld	l, a
	ld	a, #>(_players)
	adc	a, #0x00
	ld	h, a
	inc	hl
	ld	a, (hl)
	ld	h, #0x00
	add	a,#0xFA
	ld	e,a
	ld	a,h
	adc	a,#0xFF
	ld	d,a
	push	bc
	ld	hl,#0x000B
	push	hl
	ld	l, #0x0D
	push	hl
	ld	l, #0xD4
	push	hl
	ld	l,-30 (ix)
	ld	h,-29 (ix)
	push	hl
	ld	l,-28 (ix)
	ld	h,-27 (ix)
	push	hl
	push	de
	call	_VRAMtoVRAM
	ld	hl,#0x000C
	add	hl,sp
	ld	sp,hl
	pop	bc
;carwar.c:284: VRAMtoVRAM(ScrPosX(players[i].posX), (256 * 1) + ScrPosY(players[i].posY), (13 * i) + (52 * 1), 212, 13, 11);
	ld	a,-30 (ix)
	add	a,#0x34
	ld	-28 (ix),a
	ld	a,-29 (ix)
	adc	a,#0x00
	ld	-27 (ix),a
	ld	a,#<(_players)
	add	a,c
	ld	e,a
	ld	a,#>(_players)
	adc	a,#0x00
	ld	d,a
	inc	de
	ld	l,e
	ld	h,d
	inc	hl
	inc	hl
	ld	a, (hl)
	ld	h, #0x00
	add	a,#0xFB
	ld	-26 (ix),a
	ld	a,h
	adc	a,#0x00
	ld	-25 (ix),a
	ld	a,#<(_players)
	add	a,c
	ld	l, a
	ld	a, #>(_players)
	adc	a, #0x00
	ld	h, a
	inc	hl
	ld	a, (hl)
	ld	h, #0x00
	add	a,#0xFA
	ld	e,a
	ld	a,h
	adc	a,#0xFF
	ld	d,a
	ld	hl,#0x000B
	push	hl
	ld	l, #0x0D
	push	hl
	ld	l, #0xD4
	push	hl
	ld	l,-28 (ix)
	ld	h,-27 (ix)
	push	hl
	ld	l,-26 (ix)
	ld	h,-25 (ix)
	push	hl
	push	de
	call	_VRAMtoVRAM
	ld	hl,#0x000C
	add	hl,sp
	ld	sp,hl
;carwar.c:280: for(i=0; i<4; i++)
	ld	b,-32 (ix)
	ld	a,-30 (ix)
	add	a,#0x0D
	ld	-30 (ix),a
	ld	a,-29 (ix)
	adc	a,#0x00
	ld	-29 (ix),a
	inc	-1 (ix)
	jp	00185$
00188$:
;carwar.c:286: ClearSprite();
	call	_ClearSprite
;carwar.c:291: while(1/*bEnd == 0*/)
00159$:
;carwar.c:293: SetPage8(page);
	ld	a,-4 (ix)
	push	af
	inc	sp
	call	_SetPage8
	inc	sp
;carwar.c:294: page = 1 - page;
	ld	a,#0x01
	sub	a,-4 (ix)
;carwar.c:295: yOffset = 256 * page;
	ld	-4 (ix), a
	ld	l, a
	ld	-9 (ix),l
	ld	-10 (ix),#0x00
;carwar.c:297: for(i=0; i<4; i++)
	ld	c,#0x00
00189$:
;carwar.c:298: players[i].flag = 0;
	ld	a,c
	cp	a,#0x04
	jr	NC,00192$
	rlca
	rlca
	rlca
	rlca
	and	a,#0xF0
	add	a,#<(_players)
	ld	e,a
	ld	a,#>(_players)
	adc	a,#0x00
	ld	d,a
	ld	hl,#0x000D
	add	hl,de
	ld	e,l
	ld	d,h
	ld	a,#0x00
	ld	(de),a
;carwar.c:297: for(i=0; i<4; i++)
	inc	c
	jr	00189$
00192$:
;carwar.c:302: curPly = &players[0];
	ld	-6 (ix),#<(_players)
	ld	-5 (ix),#>(_players)
;carwar.c:303: keyLine = GetKeyMatrixLine(8);
	ld	a,#0x08
	push	af
	inc	sp
	call	_GetKeyMatrixLine
	inc	sp
	ld	e,l
;carwar.c:304: if((keyLine & KEY_LEFT) == 0)
	ld	a,e
	and	a,#0x10
	jr	NZ,00114$
;carwar.c:305: curPly->flag |= CAR_TURN_LEFT;
	ld	a,-6 (ix)
	add	a,#0x0D
	ld	c,a
	ld	a,-5 (ix)
	adc	a,#0x00
	ld	b,a
	ld	a,(bc)
	or	a,#0x02
	ld	(bc),a
00114$:
;carwar.c:306: if((keyLine & KEY_RIGHT) == 0)
	ld	a,e
	and	a,#0x80
	jr	NZ,00116$
;carwar.c:307: curPly->flag |= CAR_TURN_RIGHT;
	ld	a,-6 (ix)
	add	a,#0x0D
	ld	c,a
	ld	a,-5 (ix)
	adc	a,#0x00
	ld	b,a
	ld	a,(bc)
	or	a,#0x01
	ld	(bc),a
00116$:
;carwar.c:308: if((keyLine & KEY_UP) == 0)
	ld	a,e
	and	a,#0x20
	jr	NZ,00118$
;carwar.c:309: curPly->flag |= CAR_MOVE;
	ld	a,-6 (ix)
	add	a,#0x0D
	ld	c,a
	ld	a,-5 (ix)
	adc	a,#0x00
	ld	b,a
	ld	a,(bc)
	or	a,#0x04
	ld	(bc),a
00118$:
;carwar.c:313: curPly = &players[1];
	ld	hl,#_players + 16
	ld	-6 (ix),l
	ld	-5 (ix),h
;carwar.c:314: keyLine = GetKeyMatrixLine(5);
	ld	a,#0x05
	push	af
	inc	sp
	call	_GetKeyMatrixLine
	inc	sp
;carwar.c:315: if((keyLine & KEY_Z) == 0)
	ld	a, l
	and	a,#0x80
	jr	NZ,00120$
;carwar.c:316: curPly->flag |= CAR_TURN_LEFT;
	ld	a,-6 (ix)
	add	a,#0x0D
	ld	c,a
	ld	a,-5 (ix)
	adc	a,#0x00
	ld	b,a
	ld	a,(bc)
	or	a,#0x02
	ld	(bc),a
00120$:
;carwar.c:317: keyLine = GetKeyMatrixLine(3);
	ld	a,#0x03
	push	af
	inc	sp
	call	_GetKeyMatrixLine
	inc	sp
;carwar.c:318: if((keyLine & KEY_C) == 0)
	ld	a, l
	and	a,#0x01
	jr	NZ,00122$
;carwar.c:319: curPly->flag |= CAR_TURN_RIGHT;
	ld	a,-6 (ix)
	add	a,#0x0D
	ld	c,a
	ld	a,-5 (ix)
	adc	a,#0x00
	ld	b,a
	ld	a,(bc)
	or	a,#0x01
	ld	(bc),a
00122$:
;carwar.c:320: keyLine = GetKeyMatrixLine(5);
	ld	a,#0x05
	push	af
	inc	sp
	call	_GetKeyMatrixLine
	inc	sp
;carwar.c:321: if((keyLine & KEY_X) == 0)
	ld	a, l
	and	a,#0x20
	jr	NZ,00124$
;carwar.c:322: curPly->flag |= CAR_MOVE;
	ld	a,-6 (ix)
	add	a,#0x0D
	ld	c,a
	ld	a,-5 (ix)
	adc	a,#0x00
	ld	b,a
	ld	a,(bc)
	or	a,#0x04
	ld	(bc),a
00124$:
;carwar.c:326: curPly = &players[2];
	ld	hl,#_players + 32
	ld	-6 (ix),l
	ld	-5 (ix),h
;carwar.c:327: switch (Joystick(1)) // Joy 1 direction
	ld	a,#0x01
	push	af
	inc	sp
	call	_Joystick
	inc	sp
	ld	a,l
	sub	a,#0x02
	jp	PO,00295$
	xor	a,#0x80
00295$:
	jp	M,00131$
	ld	a,#0x08
	sub	a,l
	jp	PO,00296$
	xor	a,#0x80
00296$:
	jp	M,00131$
	ld	a,l
	add	a,#0xFE
	ld	c,a
	push	de
	ld	e,c
	ld	d,#0x00
	ld	hl,#00297$
	add	hl,de
	add	hl,de
;carwar.c:329: case 2: // up-right
	pop	de
	jp	(hl)
00297$:
	jr	00125$
	jr	00126$
	jr	00127$
	jr	00131$
	jr	00128$
	jr	00129$
	jr	00130$
00125$:
;carwar.c:330: case 3: // right
00126$:
;carwar.c:331: case 4: // down-right
00127$:
;carwar.c:332: curPly->flag |= CAR_TURN_RIGHT;
	ld	a,-6 (ix)
	add	a,#0x0D
	ld	c,a
	ld	a,-5 (ix)
	adc	a,#0x00
	ld	b,a
	ld	a,(bc)
	or	a,#0x01
	ld	(bc),a
;carwar.c:333: break;
	jr	00131$
;carwar.c:334: case 6: // down-left
00128$:
;carwar.c:335: case 7: // left
00129$:
;carwar.c:336: case 8:// up-left
00130$:
;carwar.c:337: curPly->flag |= CAR_TURN_LEFT;
	ld	a,-6 (ix)
	add	a,#0x0D
	ld	c,a
	ld	a,-5 (ix)
	adc	a,#0x00
	ld	b,a
	ld	a,(bc)
	or	a,#0x02
	ld	(bc),a
;carwar.c:339: }
00131$:
;carwar.c:340: if(Joytrig(1) != 0) // Joy 1 Button A
	ld	a,#0x01
	push	af
	inc	sp
	call	_Joytrig
	inc	sp
	xor	a,a
	or	a,l
	jr	Z,00133$
;carwar.c:341: curPly->flag |= CAR_MOVE;
	ld	a,-6 (ix)
	add	a,#0x0D
	ld	c,a
	ld	a,-5 (ix)
	adc	a,#0x00
	ld	b,a
	ld	a,(bc)
	or	a,#0x04
	ld	(bc),a
00133$:
;carwar.c:345: curPly = &players[3];
	ld	hl,#_players + 48
	ld	-6 (ix),l
	ld	-5 (ix),h
;carwar.c:346: switch (Joystick(2)) // Joy 2 direction
	ld	a,#0x02
	push	af
	inc	sp
	call	_Joystick
	inc	sp
	ld	a,l
	sub	a,#0x02
	jp	PO,00298$
	xor	a,#0x80
00298$:
	jp	M,00140$
	ld	a,#0x08
	sub	a,l
	jp	PO,00299$
	xor	a,#0x80
00299$:
	jp	M,00140$
	ld	a,l
	add	a,#0xFE
	ld	c,a
	push	de
	ld	e,c
	ld	d,#0x00
	ld	hl,#00300$
	add	hl,de
	add	hl,de
;carwar.c:348: case 2: // up-right
	pop	de
	jp	(hl)
00300$:
	jr	00134$
	jr	00135$
	jr	00136$
	jr	00140$
	jr	00137$
	jr	00138$
	jr	00139$
00134$:
;carwar.c:349: case 3: // right
00135$:
;carwar.c:350: case 4: // down-right
00136$:
;carwar.c:351: curPly->flag |= CAR_TURN_RIGHT;
	ld	a,-6 (ix)
	add	a,#0x0D
	ld	c,a
	ld	a,-5 (ix)
	adc	a,#0x00
	ld	b,a
	ld	a,(bc)
	or	a,#0x01
	ld	(bc),a
;carwar.c:352: break;
	jr	00140$
;carwar.c:353: case 6: // down-left
00137$:
;carwar.c:354: case 7: // left
00138$:
;carwar.c:355: case 8:// up-left
00139$:
;carwar.c:356: curPly->flag |= CAR_TURN_LEFT;
	ld	a,-6 (ix)
	add	a,#0x0D
	ld	c,a
	ld	a,-5 (ix)
	adc	a,#0x00
	ld	b,a
	ld	a,(bc)
	or	a,#0x02
	ld	(bc),a
;carwar.c:358: }
00140$:
;carwar.c:359: if(Joytrig(2) != 0) // Joy 2 Button A
	ld	a,#0x02
	push	af
	inc	sp
	call	_Joytrig
	inc	sp
	xor	a,a
	or	a,l
	jr	Z,00244$
;carwar.c:360: curPly->flag |= CAR_MOVE;
	ld	a,-6 (ix)
	add	a,#0x0D
	ld	c,a
	ld	a,-5 (ix)
	adc	a,#0x00
	ld	b,a
	ld	a,(bc)
	or	a,#0x04
	ld	(bc),a
;carwar.c:364: for(i=0; i<4; i++)
00244$:
	ld	e,-4 (ix)
	ld	d,#0x00
	ld	l,e
	ld	h,d
	add	hl,hl
	add	hl,de
	add	hl,hl
	add	hl,hl
	add	hl,de
	add	hl,hl
	add	hl,hl
	ld	-32 (ix),l
	ld	-31 (ix),h
	ld	-1 (ix),#0x00
	ld	-30 (ix),#0x00
	ld	-29 (ix),#0x00
00193$:
	ld	a,-1 (ix)
	sub	a,#0x04
	jp	NC,00196$
;carwar.c:366: VRAMtoVRAM((13 * i) + (52 * page), 212, ScrPosX(players[i].prevX), yOffset + ScrPosY(players[i].prevY), 13, 11);
	ld	a,-1 (ix)
	rlca
	rlca
	rlca
	rlca
	and	a,#0xF0
	ld	e, a
	add	a,#<(_players)
	ld	c,a
	ld	a,#>(_players)
	adc	a,#0x00
	ld	b,a
	ld	hl,#0x0006+1
	add	hl,bc
	ld	a, (hl)
	ld	h, #0x00
	add	a,#0xFB
	ld	l,a
	ld	a,h
	adc	a,#0xFF
	ld	h,a
	ld	a,-10 (ix)
	add	a,l
	ld	-26 (ix),a
	ld	a,-9 (ix)
	adc	a,h
	ld	-25 (ix),a
	ld	a,#<(_players)
	add	a,e
	ld	l, a
	ld	a, #>(_players)
	adc	a, #0x00
	ld	h, a
	inc	hl
	inc	hl
	inc	hl
	inc	hl
	inc	hl
	ld	a, (hl)
	ld	h, #0x00
	add	a,#0xFA
	ld	e,a
	ld	a,h
	adc	a,#0xFF
	ld	d,a
	ld	a,-30 (ix)
	add	a,-32 (ix)
	ld	c,a
	ld	a,-29 (ix)
	adc	a,-31 (ix)
	ld	b,a
	ld	hl,#0x000B
	push	hl
	ld	l, #0x0D
	push	hl
	ld	l,-26 (ix)
	ld	h,-25 (ix)
	push	hl
	push	de
	ld	hl,#0x00D4
	push	hl
	push	bc
	call	_VRAMtoVRAM
	ld	hl,#0x000C
	add	hl,sp
	ld	sp,hl
;carwar.c:364: for(i=0; i<4; i++)
	ld	a,-30 (ix)
	add	a,#0x0D
	ld	-30 (ix),a
	ld	a,-29 (ix)
	adc	a,#0x00
	ld	-29 (ix),a
	inc	-1 (ix)
	jp	00193$
00196$:
;carwar.c:371: for(i=0; i<4; i++)
	ld	-1 (ix),#0x00
00197$:
	ld	a,-1 (ix)
	sub	a,#0x04
	jp	NC,00200$
;carwar.c:373: curPly = &players[i];
	ld	a,-1 (ix)
	rlca
	rlca
	rlca
	rlca
	and	a,#0xF0
	add	a,#<(_players)
	ld	c,a
	ld	a,#>(_players)
	adc	a,#0x00
	ld	-6 (ix), c
	ld	-5 (ix), a
;carwar.c:375: if(curPly->flag & CAR_TURN_LEFT)
	ld	a,-6 (ix)
	add	a,#0x0D
	ld	c,a
	ld	a,-5 (ix)
	adc	a,#0x00
	ld	b,a
	ld	a,(bc)
	and	a,#0x02
	jr	Z,00144$
;carwar.c:377: curPly->rot += cars[curPly->car].rotSpeed; 
	ld	a,-6 (ix)
	add	a,#0x0E
	ld	c,a
	ld	a,-5 (ix)
	adc	a,#0x00
	ld	b,a
	ld	a,(bc)
	ld	-30 (ix),a
	ld	a,-6 (ix)
	add	a,#0x0C
	ld	e,a
	ld	a,-5 (ix)
	adc	a,#0x00
	ld	d,a
	ld	a,(de)
	ld	e,a
	add	a,a
	add	a,e
	add	a,#<(_cars)
	ld	e,a
	ld	a,#>(_cars)
	adc	a,#0x00
	ld	d,a
	ld	a,(de)
	ld	l,a
	ld	a,-30 (ix)
	add	a,l
	ld	(bc),a
00144$:
;carwar.c:379: if(curPly->flag & CAR_TURN_RIGHT)
	ld	a,-6 (ix)
	add	a,#0x0D
	ld	c,a
	ld	a,-5 (ix)
	adc	a,#0x00
	ld	b,a
	ld	a,(bc)
	ld	-28 (ix), a
	and	a,#0x01
	jr	Z,00146$
;carwar.c:381: curPly->rot -= cars[curPly->car].rotSpeed; 
	ld	a,-6 (ix)
	add	a,#0x0E
	ld	e,a
	ld	a,-5 (ix)
	adc	a,#0x00
	ld	d,a
	ld	a,(de)
	ld	-30 (ix),a
	ld	a,-6 (ix)
	add	a,#0x0C
	ld	c,a
	ld	a,-5 (ix)
	adc	a,#0x00
	ld	b,a
	ld	a,(bc)
	ld	l,a
	push	de
	ld	a,l
	ld	e,a
	add	a,a
	add	a,e
	pop	de
	add	a,#<(_cars)
	ld	c,a
	ld	a,#>(_cars)
	adc	a,#0x00
	ld	b,a
	ld	a,(bc)
	ld	l,a
	ld	a,-30 (ix)
	sub	a,l
	ld	(de),a
00146$:
;carwar.c:383: if(curPly->flag & CAR_MOVE)
	ld	a,-28 (ix)
	and	a,#0x04
	jr	Z,00148$
;carwar.c:385: angle = curPly->rot / 4;
	ld	a,-6 (ix)
	add	a,#0x0E
	ld	c,a
	ld	a,-5 (ix)
	adc	a,#0x00
	ld	b,a
	ld	a,(bc)
	ld	c,a
	srl	c
	srl	c
;carwar.c:386: curPly->dX = g_Cosinus[angle];
	ld	a,-6 (ix)
	add	a,#0x08
	ld	-30 (ix),a
	ld	a,-5 (ix)
	adc	a,#0x00
	ld	-29 (ix),a
	sla	c
	ld	a,#<(_g_Cosinus)
	add	a,c
	ld	l, a
	ld	a, #>(_g_Cosinus)
	adc	a, #0x00
	ld	h, a
	ld	b,(hl)
	inc	hl
	ld	e,(hl)
	ld	l,-30 (ix)
	ld	h,-29 (ix)
	ld	(hl),b
	inc	hl
	ld	(hl),e
;carwar.c:387: curPly->dY = g_Sinus[angle];
	ld	a,-6 (ix)
	add	a,#0x0A
	ld	e,a
	ld	a,-5 (ix)
	adc	a,#0x00
	ld	d,a
	ld	a,#<(_g_Sinus)
	add	a,c
	ld	l, a
	ld	a, #>(_g_Sinus)
	adc	a, #0x00
	ld	h, a
	ld	c,(hl)
	inc	hl
	ld	b,(hl)
	ex	de,hl
	ld	(hl),c
	inc	hl
	ld	(hl),b
;carwar.c:388: curPly->speed += 2;
	ld	a,-6 (ix)
	add	a,#0x0F
	ld	c,a
	ld	a,-5 (ix)
	adc	a,#0x00
	ld	b,a
	ld	a,(bc)
	add	a,#0x02
	ld	(bc),a
00148$:
;carwar.c:391: if(curPly->speed > 0)
	ld	a,-6 (ix)
	add	a,#0x0F
	ld	c,a
	ld	a,-5 (ix)
	adc	a,#0x00
	ld	b,a
	ld	a,(bc)
;carwar.c:392: curPly->speed--;
	or	a,a
	jr	Z,00150$
	dec	a
	ld	(bc),a
00150$:
;carwar.c:393: if(curPly->speed > cars[curPly->car].maxSpeed)
	ld	a,(bc)
	ld	-30 (ix),a
	ld	a,-6 (ix)
	add	a,#0x0C
	ld	e,a
	ld	a,-5 (ix)
	adc	a,#0x00
	ld	d,a
	ld	a,(de)
	ld	e,a
	add	a,a
	add	a,e
	add	a,#<(_cars)
	ld	e,a
	ld	a,#>(_cars)
	adc	a,#0x00
	ld	d,a
	inc	de
	ld	a,(de)
	ld	e,a
	sub	a,-30 (ix)
	jr	NC,00152$
;carwar.c:394: curPly->speed = cars[curPly->car].maxSpeed;
	ld	a,e
	ld	(bc),a
00152$:
;carwar.c:396: curPly->prevX = curPly->posX;
	ld	a,-6 (ix)
	add	a,#0x04
	ld	e,a
	ld	a,-5 (ix)
	adc	a,#0x00
	ld	d,a
	ld	l,-6 (ix)
	ld	h,-5 (ix)
	ld	a,(hl)
	ld	-28 (ix),a
	inc	hl
	ld	a,(hl)
	ld	-27 (ix),a
	ex	de,hl
	ld	a,-28 (ix)
	ld	(hl),a
	inc	hl
	ld	a,-27 (ix)
	ld	(hl),a
;carwar.c:397: curPly->prevY = curPly->posY;
	ld	a,-6 (ix)
	add	a,#0x06
	ld	-30 (ix),a
	ld	a,-5 (ix)
	adc	a,#0x00
	ld	-29 (ix),a
	ld	a,-6 (ix)
	add	a,#0x02
	ld	-26 (ix),a
	ld	a,-5 (ix)
	adc	a,#0x00
	ld	-25 (ix),a
	ld	l,-26 (ix)
	ld	h,-25 (ix)
	ld	e,(hl)
	inc	hl
	ld	d,(hl)
	ld	l,-30 (ix)
	ld	h,-29 (ix)
	ld	(hl),e
	inc	hl
	ld	(hl),d
;carwar.c:398: curPly->posX += (curPly->speed * curPly->dX) / 8;
	ld	a,(bc)
	ld	-30 (ix),a
	ld	a,-6 (ix)
	add	a,#0x08
	ld	l, a
	ld	a, -5 (ix)
	adc	a, #0x00
	ld	h, a
	ld	a,(hl)
	inc	hl
	ld	h,(hl)
	ld	l,a
	ld	a,-30 (ix)
	ld	-30 (ix),a
	ld	-29 (ix),#0x00
	push	de
	push	hl
	ld	l,-30 (ix)
	ld	h,-29 (ix)
	push	hl
	call	__mulint_rrx_s
	pop	af
	pop	af
	ld	b,h
	ld	c,l
	ld	hl,#0x0008
	push	hl
	push	bc
	call	__divsint_rrx_s
	pop	af
	pop	af
	ld	b,h
	ld	c,l
	pop	de
	ld	a,-28 (ix)
	add	a,c
	ld	c,a
	ld	a,-27 (ix)
	adc	a,b
	ld	b,a
	ld	l,-6 (ix)
	ld	h,-5 (ix)
	ld	(hl),c
	inc	hl
	ld	(hl),b
;carwar.c:399: curPly->posY -= (curPly->speed * curPly->dY) / 8;
	ld	a,-6 (ix)
	add	a,#0x0A
	ld	l, a
	ld	a, -5 (ix)
	adc	a, #0x00
	ld	h, a
	ld	a,(hl)
	inc	hl
	ld	h,(hl)
	ld	l,a
	push	de
	push	hl
	ld	l,-30 (ix)
	ld	h,-29 (ix)
	push	hl
	call	__mulint_rrx_s
	pop	af
	pop	af
	ld	b,h
	ld	c,l
	ld	hl,#0x0008
	push	hl
	push	bc
	call	__divsint_rrx_s
	pop	af
	pop	af
	ld	b,h
	ld	c,l
	pop	de
	ld	a,e
	sub	a,c
	ld	e,a
	ld	a,d
	sbc	a,b
	ld	d,a
	ld	l,-26 (ix)
	ld	h,-25 (ix)
	ld	(hl),e
	inc	hl
	ld	(hl),d
;carwar.c:371: for(i=0; i<4; i++)
	inc	-1 (ix)
	jp	00197$
00200$:
;carwar.c:403: CheckCollision(0, 1);
	ld	hl,#0x0100
	push	hl
	call	_CheckCollision
;carwar.c:404: CheckCollision(0, 2);
	ld	hl,#0x0200
	ex	(sp),hl
	call	_CheckCollision
;carwar.c:405: CheckCollision(0, 3);
	ld	hl,#0x0300
	ex	(sp),hl
	call	_CheckCollision
;carwar.c:406: CheckCollision(1, 2);
	ld	hl,#0x0201
	ex	(sp),hl
	call	_CheckCollision
;carwar.c:407: CheckCollision(1, 3);
	ld	hl,#0x0301
	ex	(sp),hl
	call	_CheckCollision
;carwar.c:408: CheckCollision(2, 3);
	ld	hl,#0x0302
	ex	(sp),hl
	call	_CheckCollision
	pop	af
;carwar.c:411: for(i=0; i<4; i++)
	ld	-1 (ix),#0x00
	ld	de,#0x0000
00201$:
	ld	a,-1 (ix)
	sub	a,#0x04
	jp	NC,00204$
;carwar.c:413: curPly = &players[i];
	ld	a,-1 (ix)
	rlca
	rlca
	rlca
	rlca
	and	a,#0xF0
	add	a,#<(_players)
	ld	c,a
	ld	a,#>(_players)
	adc	a,#0x00
	ld	-6 (ix), c
	ld	-5 (ix), a
;carwar.c:414: if(curPly->posY < (5 << 8))
	ld	c,-6 (ix)
	ld	b,-5 (ix)
	inc	bc
	inc	bc
	ld	l,c
	ld	h,b
	inc	hl
	ld	a, (hl)
	sub	a,#0x05
	jr	NC,00156$
;carwar.c:415: curPly->posY = (5 << 8);
	ld	l,c
	ld	h,b
	ld	(hl),#0x00
	inc	hl
	ld	(hl),#0x05
	jr	00157$
00156$:
;carwar.c:416: else if(curPly->posY > (206 << 8))
	ld	l,c
	ld	h,b
	ld	a,(hl)
	inc	hl
	ld	h,(hl)
	ld	l,a
	ld	a,#0x00
	sub	a,l
	ld	a,#0xCE
	sbc	a,h
	jr	NC,00157$
;carwar.c:417: curPly->posY = (206 << 8);
	ld	l,c
	ld	h,b
	ld	(hl),#0x00
	inc	hl
	ld	(hl),#0xCE
00157$:
;carwar.c:420: VRAMtoVRAM(ScrPosX(curPly->posX), yOffset + ScrPosY(curPly->posY), (13 * i) + (52 * page), 212, 13, 11);
	ld	a,e
	add	a,-32 (ix)
	ld	-30 (ix),a
	ld	a,d
	adc	a,-31 (ix)
	ld	-29 (ix),a
	ld	l, -6 (ix)
	ld	h, -5 (ix)
	inc	hl
	inc	hl
	inc	hl
	ld	a, (hl)
	ld	h, #0x00
	add	a,#0xFB
	ld	l,a
	ld	a,h
	adc	a,#0xFF
	ld	h,a
	ld	a,-10 (ix)
	add	a,l
	ld	-28 (ix),a
	ld	a,-9 (ix)
	adc	a,h
	ld	-27 (ix),a
	ld	l,-6 (ix)
	ld	h,-5 (ix)
	inc	hl
	ld	a, (hl)
	ld	h, #0x00
	add	a,#0xFA
	ld	c,a
	ld	a,h
	adc	a,#0xFF
	ld	b,a
	push	de
	ld	hl,#0x000B
	push	hl
	ld	l, #0x0D
	push	hl
	ld	l, #0xD4
	push	hl
	ld	l,-30 (ix)
	ld	h,-29 (ix)
	push	hl
	ld	l,-28 (ix)
	ld	h,-27 (ix)
	push	hl
	push	bc
	call	_VRAMtoVRAM
	ld	hl,#0x000C
	add	hl,sp
	ld	sp,hl
	pop	de
;carwar.c:411: for(i=0; i<4; i++)
	ld	hl,#0x000D
	add	hl,de
	ld	e,l
	ld	d,h
	inc	-1 (ix)
	jp	00201$
00204$:
;carwar.c:425: for(i=0; i<4; i++)
	ld	-1 (ix),#0x00
	ld	-32 (ix),#0x00
	ld	-31 (ix),#0x00
00205$:
	ld	a,-1 (ix)
	sub	a,#0x04
	jp	NC,00208$
;carwar.c:427: VRAMtoVRAMTrans(13 * (players[i].rot / 16), 256 + 212 + (11 * i), ScrPosX(players[i].posX), yOffset + ScrPosY(players[i].posY), 13, 11);
	ld	a,-1 (ix)
	rlca
	rlca
	rlca
	rlca
	and	a,#0xF0
	ld	b, a
	add	a,#<(_players)
	ld	c,a
	ld	a,#>(_players)
	adc	a,#0x00
	ld	e,a
	ld	a,c
	add	a,#0x02
	ld	c,a
	ld	a,e
	adc	a,#0x00
	ld	h, a
	ld	l, c
	inc	hl
	ld	a, (hl)
	ld	h, #0x00
	add	a,#0xFB
	ld	l,a
	ld	a,h
	adc	a,#0xFF
	ld	h,a
	ld	a,-10 (ix)
	add	a,l
	ld	-30 (ix),a
	ld	a,-9 (ix)
	adc	a,h
	ld	-29 (ix),a
	ld	a,#<(_players)
	add	a,b
	ld	l, a
	ld	a, #>(_players)
	adc	a, #0x00
	ld	h, a
	inc	hl
	ld	a, (hl)
	ld	h, #0x00
	add	a,#0xFA
	ld	-28 (ix),a
	ld	a,h
	adc	a,#0xFF
	ld	-27 (ix),a
	ld	a,-32 (ix)
	add	a,#0xD4
	ld	c,a
	ld	a,-31 (ix)
	adc	a,#0x01
	ld	e,a
	ld	a,#<(_players)
	add	a,b
	ld	b,a
	ld	a,#>(_players)
	adc	a,#0x00
	ld	d,a
	ld	a,b
	add	a,#0x0E
	ld	b,a
	ld	a,d
	adc	a,#0x00
	ld	d, a
	ld	l, b
	ld	h, a
	ld	a,(hl)
	srl	a
	srl	a
	srl	a
	srl	a
	ld	l,a
	push	de
	ld	e,l
	ld	d,#0x00
	ld	l,e
	ld	h,d
	add	hl,hl
	add	hl,de
	add	hl,hl
	add	hl,hl
	add	hl,de
	pop	de
	ld	b,l
	ld	d,h
	ld	hl,#0x000B
	push	hl
	ld	l, #0x0D
	push	hl
	ld	l,-30 (ix)
	ld	h,-29 (ix)
	push	hl
	ld	l,-28 (ix)
	ld	h,-27 (ix)
	push	hl
	ld	l,c
	ld	h,e
	push	hl
	ld	e,b
	push	de
	call	_VRAMtoVRAMTrans
	ld	hl,#0x000C
	add	hl,sp
	ld	sp,hl
;carwar.c:425: for(i=0; i<4; i++)
	ld	a,-32 (ix)
	add	a,#0x0B
	ld	-32 (ix),a
	ld	a,-31 (ix)
	adc	a,#0x00
	ld	-31 (ix),a
	inc	-1 (ix)
	jp	00205$
00208$:
;carwar.c:430: waitRetrace();
	call	_waitRetrace
	jp	00159$
_MainLoop_end::
__str_0:
	.ascii "BUILD"
	.db 0x0A
	.ascii "TRACK"
	.db 0x00
__str_1:
	.ascii "SHADE"
	.db 0x0A
	.ascii "TRACK"
	.db 0x00
__str_2:
	.ascii "INIT"
	.db 0x0A
	.ascii "CARS"
	.db 0x00
__str_3:
	.ascii "INIT"
	.db 0x0A
	.ascii "TRACK"
	.db 0x0A
	.ascii "BACKUP"
	.db 0x00
;carwar.c:439: void InitializePlayer(Player* ply, u8 car, u8 posX, u8 posY)
;	---------------------------------
; Function InitializePlayer
; ---------------------------------
_InitializePlayer_start::
_InitializePlayer:
	push	ix
	ld	ix,#0
	add	ix,sp
	push	af
	push	af
;carwar.c:441: ply->car = car; // car index
	ld	c,4 (ix)
	ld	b,5 (ix)
	ld	hl,#0x000C
	add	hl,bc
	ex	de,hl
	ld	a,6 (ix)
	ld	(de),a
;carwar.c:442: ply->posX = 128 + posX << 7; // position X
	ld	a, 7 (ix)
	ld	h, #0x00
	add	a,#0x80
	ld	e,a
	ld	a,h
	adc	a,#0x00
	ld	d,a
	sla	e
	rl	d
	sla	e
	rl	d
	sla	e
	rl	d
	sla	e
	rl	d
	sla	e
	rl	d
	sla	e
	rl	d
	sla	e
	rl	d
	ld	l,c
	ld	h,b
	ld	(hl),e
	inc	hl
	ld	(hl),d
;carwar.c:443: ply->posY = 128 + posY << 7; // position Y
	ld	hl,#0x0002
	add	hl,bc
	ld	-2 (ix),l
	ld	-1 (ix),h
	ld	a, 8 (ix)
	ld	h, #0x00
	add	a,#0x80
	ld	e,a
	ld	a,h
	adc	a,#0x00
	ld	d,a
	sla	e
	rl	d
	sla	e
	rl	d
	sla	e
	rl	d
	sla	e
	rl	d
	sla	e
	rl	d
	sla	e
	rl	d
	sla	e
	rl	d
	ld	l,-2 (ix)
	ld	h,-1 (ix)
	ld	(hl),e
	inc	hl
	ld	(hl),d
;carwar.c:444: ply->prevX = ply->posX; // previous position X
	ld	hl,#0x0004
	add	hl,bc
	ld	-4 (ix),l
	ld	-3 (ix),h
	ld	l,c
	ld	h,b
	ld	e,(hl)
	inc	hl
	ld	d,(hl)
	ld	l,-4 (ix)
	ld	h,-3 (ix)
	ld	(hl),e
	inc	hl
	ld	(hl),d
;carwar.c:445: ply->prevY = ply->posY; // previous position Y
	ld	hl,#0x0006
	add	hl,bc
	ld	-4 (ix),l
	ld	-3 (ix),h
	ld	l,-2 (ix)
	ld	h,-1 (ix)
	ld	e,(hl)
	inc	hl
	ld	d,(hl)
	ld	l,-4 (ix)
	ld	h,-3 (ix)
	ld	(hl),e
	inc	hl
	ld	(hl),d
;carwar.c:446: ply->rot = 0; // rotation
	ld	hl,#0x000E
	add	hl,bc
	ex	de,hl
	ld	a,#0x00
	ld	(de),a
;carwar.c:447: ply->dX = 0; // velocity X
	ld	hl,#0x0008
	add	hl,bc
	ld	(hl),#0x00
	inc	hl
	ld	(hl),#0x00
;carwar.c:448: ply->dY = 0; // velocity Y
	ld	hl,#0x000A
	add	hl,bc
	ld	(hl),#0x00
	inc	hl
	ld	(hl),#0x00
;carwar.c:449: ply->speed = 0;
	ld	hl,#0x000F
	add	hl,bc
	ld	(hl),#0x00
	ld	sp,ix
	pop	ix
	ret
_InitializePlayer_end::
;carwar.c:453: void CheckCollision(u8 car1, u8 car2)
;	---------------------------------
; Function CheckCollision
; ---------------------------------
_CheckCollision_start::
_CheckCollision:
	push	ix
	ld	ix,#0
	add	ix,sp
	ld	hl,#-6
	add	hl,sp
	ld	sp,hl
;carwar.c:456: dist = players[car1].posX - players[car2].posX;
	ld	a,4 (ix)
	rlca
	rlca
	rlca
	rlca
	and	a,#0xF0
	ld	-6 (ix),a
	add	a,#<(_players)
	ld	e,a
	ld	a,#>(_players)
	adc	a,#0x00
	ld	h, a
	ld	l, e
	ld	c,(hl)
	inc	hl
	ld	b,(hl)
	ld	a,5 (ix)
	rlca
	rlca
	rlca
	rlca
	and	a,#0xF0
	ld	-5 (ix),a
	add	a,#<(_players)
	ld	l, a
	ld	a, #>(_players)
	adc	a, #0x00
	ld	h, a
	ld	a,(hl)
	inc	hl
	ld	h,(hl)
	ld	l,a
	ld	a,c
	sub	a,l
	ld	l,a
	ld	a,b
	sbc	a,h
	ld	-2 (ix), l
;carwar.c:457: x = dist >> 8;
	ld	-1 (ix), a
	ld	e,a
	rlc	a
	sbc	a,a
	ld	d,a
;carwar.c:458: dist = players[car1].posY - players[car2].posY;
	ld	a,#<(_players)
	add	a,-6 (ix)
	ld	l, a
	ld	a, #>(_players)
	adc	a, #0x00
	ld	h, a
	inc	hl
	inc	hl
	ld	a,(hl)
	ld	-4 (ix),a
	inc	hl
	ld	a,(hl)
	ld	-3 (ix),a
	ld	a,#<(_players)
	add	a,-5 (ix)
	ld	l, a
	ld	a, #>(_players)
	adc	a, #0x00
	ld	h, a
	inc	hl
	inc	hl
	ld	a,(hl)
	inc	hl
	ld	h,(hl)
	ld	l,a
	ld	a,-4 (ix)
	sub	a,l
	ld	l,a
	ld	a,-3 (ix)
	sbc	a,h
	ld	-2 (ix), l
;carwar.c:459: y = dist >> 8;
	ld	-1 (ix), a
	ld	c,a
	rlc	a
	sbc	a,a
	ld	b,a
;carwar.c:460: dist = (x * x) + (y * y);
	push	bc
	push	de
	push	de
	call	__mulint_rrx_s
	pop	af
	pop	af
	ex	de,hl
	pop	bc
	push	de
	push	bc
	push	bc
	call	__mulint_rrx_s
	pop	af
	pop	af
	ld	b,h
	ld	c,l
	pop	de
	ld	a,e
	add	a,c
	ld	c,a
	ld	a,d
	adc	a,b
	ld	-2 (ix), c
	ld	-1 (ix), a
;carwar.c:471: if(dist < 11 * 11) // Collision occured
	ld	a,-2 (ix)
	sub	a,#0x79
	ld	a,-1 (ix)
	sbc	a,#0x00
	jp	PO,00106$
	xor	a,#0x80
00106$:
	jp	P,00103$
;carwar.c:473: dist = players[car1].speed;
	ld	a,#<(_players)
	add	a,-6 (ix)
	ld	c,a
	ld	a,#>(_players)
	adc	a,#0x00
	ld	b,a
	ld	hl,#0x000F
	add	hl,bc
	ld	a,(hl)
	ld	-2 (ix), a
	ld	-1 (ix),#0x00
;carwar.c:474: players[car1].speed = players[car2].speed;
	ld	a,#<(_players)
	add	a,-6 (ix)
	ld	c,a
	ld	a,#>(_players)
	adc	a,#0x00
	ld	b,a
	ld	hl,#0x000F
	add	hl,bc
	ld	c,l
	ld	b,h
	ld	a,#<(_players)
	add	a,-5 (ix)
	ld	e,a
	ld	a,#>(_players)
	adc	a,#0x00
	ld	d,a
	ld	hl,#0x000F
	add	hl,de
	ld	a,(hl)
	ld	(bc),a
;carwar.c:475: players[car1].posX = players[car1].prevX;
	ld	a,#<(_players)
	add	a,-6 (ix)
	ld	c,a
	ld	a,#>(_players)
	adc	a,#0x00
	ld	b,a
	ld	a,#<(_players)
	add	a,-6 (ix)
	ld	l, a
	ld	a, #>(_players)
	adc	a, #0x00
	ld	h, a
	inc	hl
	inc	hl
	inc	hl
	inc	hl
	ld	e,(hl)
	inc	hl
	ld	d,(hl)
	ld	l,c
	ld	h,b
	ld	(hl),e
	inc	hl
	ld	(hl),d
;carwar.c:476: players[car2].speed = dist;
	ld	a,#<(_players)
	add	a,-5 (ix)
	ld	c,a
	ld	a,#>(_players)
	adc	a,#0x00
	ld	b,a
	ld	hl,#0x000F
	add	hl,bc
	ld	c,l
	ld	b,h
	ld	a,-2 (ix)
	ld	(bc),a
;carwar.c:477: players[car2].posY = players[car2].prevY;
	ld	a,#<(_players)
	add	a,-5 (ix)
	ld	c,a
	ld	a,#>(_players)
	adc	a,#0x00
	ld	b,a
	inc	bc
	inc	bc
	ld	a,#<(_players)
	add	a,-5 (ix)
	ld	e,a
	ld	a,#>(_players)
	adc	a,#0x00
	ld	d,a
	ld	hl,#0x0006
	add	hl,de
	ld	e,(hl)
	inc	hl
	ld	d,(hl)
	ld	l,c
	ld	h,b
	ld	(hl),e
	inc	hl
	ld	(hl),d
00103$:
	ld	sp,ix
	pop	ix
	ret
_CheckCollision_end::
	.area _CODE
	.area _CABS
