;--------------------------------------------------------
; File Created by SDCC : free open source ANSI-C Compiler
; Version 2.8.0 #5117 (Mar 23 2008) (MINGW32)
; This file was generated Tue Feb 01 11:42:30 2011
;--------------------------------------------------------
	.module carwar
	.optsdcc -mz80
	
;--------------------------------------------------------
; Public variables in this module
;--------------------------------------------------------
	.globl _main
	.globl _defaultColor
	.globl _backgound
	.globl _charTable
	.globl _shadow
	.globl _car4
	.globl _car3
	.globl _car2
	.globl _car1
	.globl _MainLoop
	.globl _InitializePlayer
	.globl _SetScreen8
	.globl _SetSpriteMode
	.globl _SetFreq
	.globl _SetPage8
	.globl _DrawPoint8
	.globl _DrawLine8
	.globl _waitRetrace
	.globl _WaitForVDP
	.globl _WriteToVRAM8
	.globl _VPDCommandLoop
	.globl _RAMtoVRAM
	.globl _RAMtoVRAMTrans
	.globl _Fill8
	.globl _VRAMtoVRAM
	.globl _VRAMtoVRAMTrans
	.globl _VPDCommand32
	.globl _VPDCommand36
	.globl _PrintSprite
	.globl _SetSprite
;--------------------------------------------------------
; special function registers
;--------------------------------------------------------
_g_slotPort	=	0x00a8
;--------------------------------------------------------
;  ram data
;--------------------------------------------------------
	.area _DATA
;--------------------------------------------------------
; overlayable items in  ram 
;--------------------------------------------------------
	.area _OVERLAY
;--------------------------------------------------------
; external initialized ram data
;--------------------------------------------------------
;--------------------------------------------------------
; global & static initialisations
;--------------------------------------------------------
	.area _HOME
	.area _GSINIT
	.area _GSFINAL
	.area _GSINIT
;--------------------------------------------------------
; Home
;--------------------------------------------------------
	.area _HOME
	.area _HOME
;--------------------------------------------------------
; code
;--------------------------------------------------------
	.area _CODE
;carwar.c:220: void main(void)
;	genLabel
;	genFunction
;	---------------------------------
; Function main
; ---------------------------------
_main_start::
_main:
;carwar.c:226: _endasm;
;	genInline
	
		 di
		 ld sp, (#0xFC4A)
		 ei
		
;carwar.c:228: g_slotPort = (g_slotPort & 0xCF) | ((g_slotPort & 0x0C) << 2);
;	genAnd
;Z80 AOP_SFR for _g_slotPort banked:0 bc:1 de:0
	in	a,(_g_slotPort)
	and	a,#0xCF
	ld	c,a
;	genAnd
;Z80 AOP_SFR for _g_slotPort banked:0 bc:1 de:0
	in	a,(_g_slotPort)
	and	a,#0x0C
	ld	b,a
;	genLeftShift
	sla	b
	sla	b
;	genOr
;Z80 AOP_SFR for _g_slotPort banked:0 bc:1 de:0
	ld	a,c
	or	a,b
	out	(_g_slotPort),a
;carwar.c:230: MainLoop();
;	genCall
; _saveRegsForCall: sendSetSize: 0 deInUse: 0 bcInUse: 0 deSending: 0
;	genLabel
;	genEndFunction
	jp	_MainLoop
_main_end::
_car1:
	.db #0x00
	.db #0x00
	.db #0x00
	.db #0x00
	.db #0x00
	.db #0x00
	.db #0x00
	.db #0x00
	.db #0x00
	.db #0x00
	.db #0x00
	.db #0x00
	.db #0x00
	.db #0x00
	.db #0x00
	.db #0x00
	.db #0x00
	.db #0x00
	.db #0x00
	.db #0x00
	.db #0x00
	.db #0x00
	.db #0x00
	.db #0x00
	.db #0x00
	.db #0x00
	.db #0x00
	.db #0x00
	.db #0x04
	.db #0x04
	.db #0x04
	.db #0x10
	.db #0x21
	.db #0x00
	.db #0x00
	.db #0x00
	.db #0x00
	.db #0x00
	.db #0x00
	.db #0x6D
	.db #0x49
	.db #0x04
	.db #0x21
	.db #0x04
	.db #0xFB
	.db #0x21
	.db #0x21
	.db #0x91
	.db #0x92
	.db #0xBC
	.db #0x6D
	.db #0x00
	.db #0x00
	.db #0x04
	.db #0x21
	.db #0x42
	.db #0x04
	.db #0xD6
	.db #0x63
	.db #0x42
	.db #0xDA
	.db #0xB6
	.db #0x49
	.db #0x6D
	.db #0x00
	.db #0x00
	.db #0x04
	.db #0x21
	.db #0x63
	.db #0x04
	.db #0x1C
	.db #0x42
	.db #0x42
	.db #0xDA
	.db #0x92
	.db #0xFC
	.db #0x6D
	.db #0x00
	.db #0x00
	.db #0x04
	.db #0x04
	.db #0x04
	.db #0x04
	.db #0x04
	.db #0x04
	.db #0x92
	.db #0xDA
	.db #0xDA
	.db #0xDA
	.db #0x91
	.db #0x00
	.db #0x00
	.db #0x04
	.db #0x04
	.db #0x04
	.db #0x04
	.db #0x04
	.db #0x49
	.db #0x6D
	.db #0x6D
	.db #0x04
	.db #0x04
	.db #0x6D
	.db #0x00
	.db #0x00
	.db #0x00
	.db #0x04
	.db #0x04
	.db #0x00
	.db #0x00
	.db #0x00
	.db #0x00
	.db #0x00
	.db #0x04
	.db #0x04
	.db #0x00
	.db #0x00
	.db #0x00
	.db #0x00
	.db #0x00
	.db #0x00
	.db #0x00
	.db #0x00
	.db #0x00
	.db #0x00
	.db #0x00
	.db #0x00
	.db #0x00
	.db #0x00
	.db #0x00
	.db #0x00
	.db #0x00
	.db #0x00
	.db #0x00
	.db #0x00
	.db #0x00
	.db #0x00
	.db #0x00
	.db #0x00
	.db #0x00
	.db #0x00
	.db #0x00
	.db #0x00
	.db #0x00
	.db #0x00
	.db #0x00
	.db #0x00
	.db #0x00
	.db #0x00
	.db #0x00
	.db #0x00
	.db #0x00
	.db #0x00
	.db #0x00
	.db #0x00
	.db #0x00
	.db #0x00
	.db #0x00
	.db #0x00
	.db #0x00
	.db #0x00
	.db #0x00
	.db #0x00
	.db #0x00
	.db #0x00
	.db #0x00
	.db #0x00
	.db #0x00
	.db #0x00
	.db #0x00
	.db #0x00
	.db #0x00
	.db #0x00
	.db #0x00
	.db #0x10
	.db #0x21
	.db #0x00
	.db #0x6D
	.db #0xB8
	.db #0x49
	.db #0x00
	.db #0x00
	.db #0x00
	.db #0x00
	.db #0x00
	.db #0x04
	.db #0x04
	.db #0xFB
	.db #0x21
	.db #0x21
	.db #0x21
	.db #0xB6
	.db #0x49
	.db #0x6D
	.db #0x00
	.db #0x00
	.db #0x04
	.db #0x04
	.db #0x04
	.db #0x04
	.db #0xD6
	.db #0x63
	.db #0x42
	.db #0x21
	.db #0x92
	.db #0xDA
	.db #0x6D
	.db #0x00
	.db #0x6D
	.db #0x04
	.db #0x21
	.db #0x21
	.db #0x04
	.db #0x04
	.db #0x1C
	.db #0x42
	.db #0x21
	.db #0xDA
	.db #0xDC
	.db #0x49
	.db #0x00
	.db #0x00
	.db #0x04
	.db #0x04
	.db #0x42
	.db #0x42
	.db #0x04
	.db #0x04
	.db #0x04
	.db #0x92
	.db #0x6D
	.db #0x49
	.db #0x04
	.db #0x00
	.db #0x00
	.db #0x04
	.db #0x04
	.db #0x04
	.db #0x04
	.db #0x04
	.db #0x04
	.db #0x6D
	.db #0x6D
	.db #0x49
	.db #0x04
	.db #0x04
	.db #0x00
	.db #0x00
	.db #0x00
	.db #0x04
	.db #0x04
	.db #0x04
	.db #0x00
	.db #0x00
	.db #0x00
	.db #0x00
	.db #0x00
	.db #0x00
	.db #0x00
	.db #0x00
	.db #0x00
	.db #0x00
	.db #0x00
	.db #0x00
	.db #0x00
	.db #0x00
	.db #0x00
	.db #0x00
	.db #0x00
	.db #0x00
	.db #0x00
	.db #0x00
	.db #0x00
	.db #0x00
	.db #0x00
	.db #0x00
	.db #0x00
	.db #0x00
	.db #0x00
	.db #0x00
	.db #0x00
	.db #0x00
	.db #0x00
	.db #0x00
	.db #0x00
	.db #0x00
	.db #0x00
	.db #0x00
	.db #0x00
	.db #0x00
	.db #0x00
	.db #0x00
	.db #0x00
	.db #0x49
	.db #0x6D
	.db #0x00
	.db #0x00
	.db #0x00
	.db #0x00
	.db #0x00
	.db #0x00
	.db #0x00
	.db #0x00
	.db #0x00
	.db #0x00
	.db #0x6D
	.db #0x6D
	.db #0xBC
	.db #0x49
	.db #0x00
	.db #0x00
	.db #0x00
	.db #0x00
	.db #0x00
	.db #0x00
	.db #0x00
	.db #0x00
	.db #0x21
	.db #0x21
	.db #0xB6
	.db #0xDA
	.db #0x91
	.db #0x49
	.db #0x00
	.db #0x00
	.db #0x00
	.db #0x00
	.db #0x00
	.db #0x10
	.db #0x04
	.db #0x41
	.db #0x62
	.db #0x41
	.db #0xDA
	.db #0xDA
	.db #0xFC
	.db #0x6D
	.db #0x00
	.db #0x00
	.db #0x00
	.db #0x00
	.db #0xB2
	.db #0xFB
	.db #0x04
	.db #0x04
	.db #0x63
	.db #0x04
	.db #0xDA
	.db #0x91
	.db #0x04
	.db #0x00
	.db #0x00
	.db #0x00
	.db #0x04
	.db #0x21
	.db #0x04
	.db #0x1C
	.db #0x04
	.db #0x04
	.db #0x04
	.db #0x91
	.db #0x04
	.db #0x00
	.db #0x00
	.db #0x00
	.db #0x04
	.db #0x21
	.db #0x41
	.db #0x63
	.db #0x42
	.db #0x04
	.db #0x04
	.db #0x6D
	.db #0x00
	.db #0x00
	.db #0x00
	.db #0x00
	.db #0x00
	.db #0x6D
	.db #0x04
	.db #0x04
	.db #0x42
	.db #0x04
	.db #0x04
	.db #0x04
	.db #0x49
	.db #0x00
	.db #0x00
	.db #0x00
	.db #0x00
	.db #0x00
	.db #0x00
	.db #0x04
	.db #0x04
	.db #0x04
	.db #0x04
	.db #0x04
	.db #0x00
	.db #0x00
	.db #0x00
	.db #0x00
	.db #0x00
	.db #0x00
	.db #0x00
	.db #0x00
	.db #0x00
	.db #0x04
	.db #0x04
	.db #0x04
	.db #0x00
	.db #0x00
	.db #0x00
	.db #0x00
	.db #0x00
	.db #0x00
	.db #0x00
	.db #0x00
	.db #0x00
	.db #0x00
	.db #0x00
	.db #0x00
	.db #0x00
	.db #0x00
	.db #0x00
	.db #0x00
	.db #0x00
	.db #0x00
	.db #0x00
	.db #0x00
	.db #0x00
	.db #0x00
	.db #0x00
	.db #0x00
	.db #0x00
	.db #0x00
	.db #0xB6
	.db #0xB8
	.db #0x00
	.db #0x00
	.db #0x00
	.db #0x00
	.db #0x00
	.db #0x00
	.db #0x00
	.db #0x00
	.db #0x00
	.db #0x00
	.db #0x92
	.db #0xDA
	.db #0x6D
	.db #0x6D
	.db #0xB8
	.db #0x00
	.db #0x00
	.db #0x00
	.db #0x00
	.db #0x00
	.db #0x00
	.db #0x00
	.db #0x00
	.db #0xDA
	.db #0xDA
	.db #0xDA
	.db #0xB6
	.db #0x91
	.db #0x49
	.db #0x00
	.db #0x00
	.db #0x00
	.db #0x00
	.db #0x00
	.db #0x00
	.db #0x21
	.db #0x21
	.db #0x42
	.db #0xDA
	.db #0xDA
	.db #0x6D
	.db #0x24
	.db #0x00
	.db #0x00
	.db #0x00
	.db #0x00
	.db #0x00
	.db #0x10
	.db #0x04
	.db #0x21
	.db #0x42
	.db #0x63
	.db #0x91
	.db #0x49
	.db #0x04
	.db #0x00
	.db #0x00
	.db #0x00
	.db #0x00
	.db #0x00
	.db #0xB2
	.db #0xFB
	.db #0x04
	.db #0x04
	.db #0x63
	.db #0x24
	.db #0x24
	.db #0x00
	.db #0x00
	.db #0x00
	.db #0x00
	.db #0x00
	.db #0x00
	.db #0x04
	.db #0x04
	.db #0x1C
	.db #0x04
	.db #0x04
	.db #0x04
	.db #0x04
	.db #0x00
	.db #0x00
	.db #0x00
	.db #0x00
	.db #0x00
	.db #0x04
	.db #0x21
	.db #0x42
	.db #0x63
	.db #0x04
	.db #0x04
	.db #0x04
	.db #0x00
	.db #0x00
	.db #0x00
	.db #0x00
	.db #0x00
	.db #0x00
	.db #0x04
	.db #0x04
	.db #0x21
	.db #0x21
	.db #0x21
	.db #0x04
	.db #0x04
	.db #0x00
	.db #0x00
	.db #0x00
	.db #0x00
	.db #0x00
	.db #0x00
	.db #0x6D
	.db #0x04
	.db #0x04
	.db #0x04
	.db #0x04
	.db #0x04
	.db #0x00
	.db #0x00
	.db #0x00
	.db #0x00
	.db #0x00
	.db #0x00
	.db #0x00
	.db #0x00
	.db #0x00
	.db #0x04
	.db #0x04
	.db #0x04
	.db #0x04
	.db #0x00
	.db #0x00
	.db #0x00
	.db #0x00
	.db #0x00
	.db #0x00
	.db #0x00
	.db #0x00
	.db #0x6D
	.db #0x98
	.db #0x24
	.db #0x49
	.db #0x98
	.db #0x6D
	.db #0x00
	.db #0x00
	.db #0x00
	.db #0x00
	.db #0x00
	.db #0x00
	.db #0x00
	.db #0xB6
	.db #0x92
	.db #0xDA
	.db #0xDA
	.db #0x92
	.db #0xB6
	.db #0x00
	.db #0x00
	.db #0x00
	.db #0x00
	.db #0x00
	.db #0x00
	.db #0x04
	.db #0x91
	.db #0xDA
	.db #0xDA
	.db #0xDA
	.db #0xDA
	.db #0x92
	.db #0x04
	.db #0x00
	.db #0x00
	.db #0x00
	.db #0x00
	.db #0x00
	.db #0x04
	.db #0x6D
	.db #0x21
	.db #0x41
	.db #0x42
	.db #0x63
	.db #0x6D
	.db #0x04
	.db #0x00
	.db #0x00
	.db #0x00
	.db #0x00
	.db #0x00
	.db #0x00
	.db #0x24
	.db #0x41
	.db #0x42
	.db #0x63
	.db #0x42
	.db #0x24
	.db #0x00
	.db #0x00
	.db #0x00
	.db #0x00
	.db #0x00
	.db #0x00
	.db #0x00
	.db #0x04
	.db #0x10
	.db #0xFB
	.db #0xD6
	.db #0x1C
	.db #0x04
	.db #0x00
	.db #0x00
	.db #0x00
	.db #0x00
	.db #0x00
	.db #0x00
	.db #0x00
	.db #0x04
	.db #0x04
	.db #0x04
	.db #0x04
	.db #0x04
	.db #0x04
	.db #0x00
	.db #0x00
	.db #0x00
	.db #0x00
	.db #0x00
	.db #0x00
	.db #0x00
	.db #0x04
	.db #0x21
	.db #0x42
	.db #0x63
	.db #0x21
	.db #0x04
	.db #0x00
	.db #0x00
	.db #0x00
	.db #0x00
	.db #0x00
	.db #0x00
	.db #0x04
	.db #0x04
	.db #0x04
	.db #0x21
	.db #0x21
	.db #0x04
	.db #0x04
	.db #0x04
	.db #0x00
	.db #0x00
	.db #0x00
	.db #0x00
	.db #0x00
	.db #0x04
	.db #0x04
	.db #0x04
	.db #0x04
	.db #0x04
	.db #0x04
	.db #0x04
	.db #0x04
	.db #0x00
	.db #0x00
	.db #0x00
	.db #0x00
	.db #0x00
	.db #0x00
	.db #0x04
	.db #0x6D
	.db #0x04
	.db #0x04
	.db #0x04
	.db #0x04
	.db #0x00
	.db #0x00
	.db #0x00
	.db #0x00
	.db #0x00
	.db #0x00
	.db #0x00
	.db #0x00
	.db #0x49
	.db #0x98
	.db #0x6D
	.db #0x00
	.db #0x00
	.db #0x00
	.db #0x00
	.db #0x00
	.db #0x00
	.db #0x00
	.db #0x00
	.db #0x6D
	.db #0x98
	.db #0x49
	.db #0xDA
	.db #0x92
	.db #0x00
	.db #0x00
	.db #0x00
	.db #0x00
	.db #0x00
	.db #0x00
	.db #0x00
	.db #0x00
	.db #0x92
	.db #0x92
	.db #0xDA
	.db #0xDA
	.db #0xDA
	.db #0x6D
	.db #0x00
	.db #0x00
	.db #0x00
	.db #0x00
	.db #0x00
	.db #0x00
	.db #0x00
	.db #0x04
	.db #0x91
	.db #0x6D
	.db #0x41
	.db #0x42
	.db #0x42
	.db #0x04
	.db #0x00
	.db #0x00
	.db #0x00
	.db #0x00
	.db #0x00
	.db #0x00
	.db #0x04
	.db #0x6D
	.db #0x41
	.db #0x42
	.db #0x63
	.db #0x1C
	.db #0x04
	.db #0x00
	.db #0x00
	.db #0x00
	.db #0x00
	.db #0x00
	.db #0x00
	.db #0x00
	.db #0x24
	.db #0x10
	.db #0xFB
	.db #0xD6
	.db #0x04
	.db #0x04
	.db #0x04
	.db #0x00
	.db #0x00
	.db #0x00
	.db #0x00
	.db #0x00
	.db #0x00
	.db #0x04
	.db #0x04
	.db #0x04
	.db #0x04
	.db #0x63
	.db #0x21
	.db #0x04
	.db #0x00
	.db #0x00
	.db #0x00
	.db #0x00
	.db #0x00
	.db #0x00
	.db #0x00
	.db #0x04
	.db #0x04
	.db #0x63
	.db #0x42
	.db #0x21
	.db #0x04
	.db #0x04
	.db #0x00
	.db #0x00
	.db #0x00
	.db #0x00
	.db #0x00
	.db #0x00
	.db #0x00
	.db #0x04
	.db #0x04
	.db #0x42
	.db #0x04
	.db #0x04
	.db #0x04
	.db #0x00
	.db #0x00
	.db #0x00
	.db #0x00
	.db #0x00
	.db #0x00
	.db #0x00
	.db #0x04
	.db #0x04
	.db #0x04
	.db #0x04
	.db #0x04
	.db #0x00
	.db #0x00
	.db #0x00
	.db #0x00
	.db #0x00
	.db #0x00
	.db #0x00
	.db #0x00
	.db #0x00
	.db #0x04
	.db #0x6D
	.db #0x00
	.db #0x00
	.db #0x00
	.db #0x00
	.db #0x00
	.db #0x00
	.db #0x00
	.db #0x00
	.db #0x00
	.db #0x00
	.db #0x00
	.db #0x00
	.db #0x00
	.db #0x00
	.db #0x00
	.db #0x00
	.db #0x00
	.db #0x00
	.db #0x00
	.db #0x00
	.db #0x49
	.db #0xBC
	.db #0x6D
	.db #0x6D
	.db #0x00
	.db #0x00
	.db #0x00
	.db #0x00
	.db #0x00
	.db #0x00
	.db #0x00
	.db #0x00
	.db #0x49
	.db #0xDA
	.db #0xDA
	.db #0xB6
	.db #0x21
	.db #0x49
	.db #0x00
	.db #0x00
	.db #0x00
	.db #0x00
	.db #0x00
	.db #0x00
	.db #0x00
	.db #0xFC
	.db #0xDA
	.db #0xDA
	.db #0x41
	.db #0x62
	.db #0x41
	.db #0x04
	.db #0x1C
	.db #0x00
	.db #0x00
	.db #0x00
	.db #0x00
	.db #0x00
	.db #0x6D
	.db #0xDA
	.db #0x49
	.db #0x63
	.db #0x04
	.db #0x04
	.db #0xFB
	.db #0x04
	.db #0x04
	.db #0x00
	.db #0x00
	.db #0x00
	.db #0x00
	.db #0x04
	.db #0x6D
	.db #0x04
	.db #0x04
	.db #0x04
	.db #0x10
	.db #0x04
	.db #0x21
	.db #0x04
	.db #0x04
	.db #0x00
	.db #0x00
	.db #0x00
	.db #0x00
	.db #0x04
	.db #0x49
	.db #0x04
	.db #0x04
	.db #0x21
	.db #0x63
	.db #0x41
	.db #0x21
	.db #0x04
	.db #0x04
	.db #0x00
	.db #0x00
	.db #0x00
	.db #0x00
	.db #0x00
	.db #0x04
	.db #0x04
	.db #0x41
	.db #0x42
	.db #0x04
	.db #0x04
	.db #0x04
	.db #0x04
	.db #0x00
	.db #0x00
	.db #0x00
	.db #0x00
	.db #0x00
	.db #0x00
	.db #0x04
	.db #0x04
	.db #0x04
	.db #0x04
	.db #0x04
	.db #0x04
	.db #0x00
	.db #0x00
	.db #0x00
	.db #0x00
	.db #0x00
	.db #0x00
	.db #0x00
	.db #0x00
	.db #0x04
	.db #0x04
	.db #0x04
	.db #0x6D
	.db #0x00
	.db #0x00
	.db #0x00
	.db #0x00
	.db #0x00
	.db #0x00
	.db #0x00
	.db #0x00
	.db #0x00
	.db #0x00
	.db #0x00
	.db #0x00
	.db #0x00
	.db #0x00
	.db #0x00
	.db #0x00
	.db #0x00
	.db #0x00
	.db #0x00
	.db #0x00
	.db #0x00
	.db #0x00
	.db #0x00
	.db #0x00
	.db #0x00
	.db #0x00
	.db #0x00
	.db #0x00
	.db #0x00
	.db #0x00
	.db #0x00
	.db #0x49
	.db #0x49
	.db #0x00
	.db #0x00
	.db #0x00
	.db #0x00
	.db #0x00
	.db #0x00
	.db #0x00
	.db #0x00
	.db #0x00
	.db #0x00
	.db #0x6D
	.db #0xBC
	.db #0x91
	.db #0x49
	.db #0x21
	.db #0x04
	.db #0x1C
	.db #0x00
	.db #0x00
	.db #0x00
	.db #0x00
	.db #0x00
	.db #0x6D
	.db #0x49
	.db #0xDA
	.db #0xDA
	.db #0x21
	.db #0x21
	.db #0xFB
	.db #0x04
	.db #0x04
	.db #0x00
	.db #0x00
	.db #0x00
	.db #0x00
	.db #0xFC
	.db #0xDA
	.db #0xDA
	.db #0x21
	.db #0x42
	.db #0x10
	.db #0x04
	.db #0x04
	.db #0x21
	.db #0x04
	.db #0x04
	.db #0x00
	.db #0x00
	.db #0x04
	.db #0x49
	.db #0x6D
	.db #0x21
	.db #0x42
	.db #0x04
	.db #0x04
	.db #0x04
	.db #0x42
	.db #0x21
	.db #0x04
	.db #0x04
	.db #0x00
	.db #0x04
	.db #0x04
	.db #0x6D
	.db #0x49
	.db #0x04
	.db #0x04
	.db #0x21
	.db #0x42
	.db #0x63
	.db #0x04
	.db #0x04
	.db #0x04
	.db #0x00
	.db #0x00
	.db #0x00
	.db #0x04
	.db #0x04
	.db #0x04
	.db #0x04
	.db #0x04
	.db #0x21
	.db #0x04
	.db #0x04
	.db #0x04
	.db #0x04
	.db #0x00
	.db #0x00
	.db #0x00
	.db #0x00
	.db #0x00
	.db #0x00
	.db #0x04
	.db #0x04
	.db #0x04
	.db #0x04
	.db #0x04
	.db #0x6D
	.db #0x00
	.db #0x00
	.db #0x00
	.db #0x00
	.db #0x00
	.db #0x00
	.db #0x00
	.db #0x00
	.db #0x00
	.db #0x04
	.db #0x04
	.db #0x04
	.db #0x00
	.db #0x00
	.db #0x00
	.db #0x00
	.db #0x00
	.db #0x00
	.db #0x00
	.db #0x00
	.db #0x00
	.db #0x00
	.db #0x00
	.db #0x00
	.db #0x00
	.db #0x00
	.db #0x00
	.db #0x00
	.db #0x00
	.db #0x00
	.db #0x00
	.db #0x00
	.db #0x00
	.db #0x00
	.db #0x00
	.db #0x00
	.db #0x00
	.db #0x00
	.db #0x00
	.db #0x00
	.db #0x00
	.db #0x00
	.db #0x00
	.db #0x00
	.db #0x00
	.db #0x00
	.db #0x00
	.db #0x00
	.db #0x00
	.db #0x00
	.db #0x00
	.db #0x00
	.db #0x00
	.db #0x00
	.db #0x00
	.db #0x00
	.db #0x00
	.db #0x00
	.db #0x00
	.db #0x21
	.db #0x1C
	.db #0x04
	.db #0x04
	.db #0x04
	.db #0x00
	.db #0x00
	.db #0x00
	.db #0x6D
	.db #0xBC
	.db #0x92
	.db #0x91
	.db #0x21
	.db #0x21
	.db #0xFB
	.db #0x04
	.db #0x21
	.db #0x04
	.db #0x04
	.db #0x00
	.db #0x00
	.db #0x49
	.db #0xDA
	.db #0xB6
	.db #0xDA
	.db #0x42
	.db #0x63
	.db #0xD6
	.db #0x04
	.db #0x42
	.db #0x21
	.db #0x04
	.db #0x00
	.db #0x00
	.db #0x6D
	.db #0xFC
	.db #0x92
	.db #0xDA
	.db #0x42
	.db #0x42
	.db #0x10
	.db #0x04
	.db #0x63
	.db #0x21
	.db #0x04
	.db #0x00
	.db #0x00
	.db #0x91
	.db #0xDA
	.db #0xDA
	.db #0xDA
	.db #0x92
	.db #0x04
	.db #0x04
	.db #0x04
	.db #0x04
	.db #0x04
	.db #0x6D
	.db #0x00
	.db #0x00
	.db #0x6D
	.db #0x24
	.db #0x24
	.db #0x6D
	.db #0x6D
	.db #0x49
	.db #0x04
	.db #0x04
	.db #0x24
	.db #0x24
	.db #0x04
	.db #0x00
	.db #0x00
	.db #0x00
	.db #0x04
	.db #0x04
	.db #0x00
	.db #0x00
	.db #0x00
	.db #0x00
	.db #0x00
	.db #0x04
	.db #0x04
	.db #0x00
	.db #0x00
	.db #0x00
	.db #0x00
	.db #0x00
	.db #0x00
	.db #0x00
	.db #0x00
	.db #0x00
	.db #0x00
	.db #0x00
	.db #0x00
	.db #0x00
	.db #0x00
	.db #0x00
	.db #0x00
	.db #0x00
	.db #0x00
	.db #0x00
	.db #0x00
	.db #0x00
	.db #0x00
	.db #0x00
	.db #0x00
	.db #0x00
	.db #0x00
	.db #0x00
	.db #0x00
	.db #0x00
	.db #0x00
	.db #0x00
	.db #0x00
	.db #0x00
	.db #0x00
	.db #0x00
	.db #0x00
	.db #0x00
	.db #0x00
	.db #0x00
	.db #0x00
	.db #0x00
	.db #0x00
	.db #0x00
	.db #0x00
	.db #0x00
	.db #0x00
	.db #0x00
	.db #0x00
	.db #0x04
	.db #0x04
	.db #0x04
	.db #0x00
	.db #0x00
	.db #0x00
	.db #0x00
	.db #0x00
	.db #0x00
	.db #0x00
	.db #0x00
	.db #0x21
	.db #0x1C
	.db #0x21
	.db #0x21
	.db #0x04
	.db #0x04
	.db #0x00
	.db #0x00
	.db #0x00
	.db #0x00
	.db #0x00
	.db #0x04
	.db #0x21
	.db #0x21
	.db #0xFB
	.db #0xAE
	.db #0x63
	.db #0x21
	.db #0x04
	.db #0x04
	.db #0x6D
	.db #0x00
	.db #0x00
	.db #0x92
	.db #0x91
	.db #0x42
	.db #0x63
	.db #0x04
	.db #0x1C
	.db #0x04
	.db #0x42
	.db #0x04
	.db #0x04
	.db #0x00
	.db #0x00
	.db #0xB6
	.db #0xB6
	.db #0xDA
	.db #0xB6
	.db #0x42
	.db #0x42
	.db #0x04
	.db #0x04
	.db #0x04
	.db #0x04
	.db #0x04
	.db #0x00
	.db #0x00
	.db #0xBC
	.db #0xDA
	.db #0xDA
	.db #0xDA
	.db #0xB6
	.db #0x04
	.db #0x04
	.db #0x04
	.db #0x04
	.db #0x04
	.db #0x00
	.db #0x00
	.db #0x00
	.db #0x6D
	.db #0x24
	.db #0xB6
	.db #0x92
	.db #0x92
	.db #0x6D
	.db #0x49
	.db #0x04
	.db #0x00
	.db #0x00
	.db #0x00
	.db #0x00
	.db #0x00
	.db #0x00
	.db #0x6D
	.db #0xFC
	.db #0x6D
	.db #0x04
	.db #0x49
	.db #0x00
	.db #0x00
	.db #0x00
	.db #0x00
	.db #0x00
	.db #0x00
	.db #0x00
	.db #0x00
	.db #0x00
	.db #0x49
	.db #0x04
	.db #0x00
	.db #0x00
	.db #0x00
	.db #0x00
	.db #0x00
	.db #0x00
	.db #0x00
	.db #0x00
	.db #0x00
	.db #0x00
	.db #0x00
	.db #0x00
	.db #0x00
	.db #0x00
	.db #0x00
	.db #0x00
	.db #0x00
	.db #0x00
	.db #0x00
	.db #0x00
	.db #0x00
	.db #0x00
	.db #0x00
	.db #0x00
	.db #0x00
	.db #0x00
	.db #0x00
	.db #0x00
	.db #0x00
	.db #0x00
	.db #0x00
	.db #0x00
	.db #0x00
	.db #0x00
	.db #0x00
	.db #0x00
	.db #0x00
	.db #0x00
	.db #0x00
	.db #0x00
	.db #0x04
	.db #0x04
	.db #0x04
	.db #0x04
	.db #0x00
	.db #0x00
	.db #0x00
	.db #0x00
	.db #0x00
	.db #0x00
	.db #0x00
	.db #0x00
	.db #0x04
	.db #0x1C
	.db #0x21
	.db #0x21
	.db #0x04
	.db #0x04
	.db #0x6D
	.db #0x00
	.db #0x00
	.db #0x00
	.db #0x00
	.db #0x00
	.db #0x04
	.db #0x42
	.db #0xB2
	.db #0xD6
	.db #0x42
	.db #0x21
	.db #0x04
	.db #0x04
	.db #0x00
	.db #0x00
	.db #0x00
	.db #0x00
	.db #0x6D
	.db #0x04
	.db #0x21
	.db #0x42
	.db #0x04
	.db #0x10
	.db #0x21
	.db #0x04
	.db #0x04
	.db #0x00
	.db #0x00
	.db #0x00
	.db #0x6D
	.db #0x92
	.db #0xB6
	.db #0x92
	.db #0x41
	.db #0x63
	.db #0x04
	.db #0x04
	.db #0x04
	.db #0x04
	.db #0x00
	.db #0x00
	.db #0x6D
	.db #0xFC
	.db #0x92
	.db #0xB6
	.db #0xDA
	.db #0x92
	.db #0x04
	.db #0x04
	.db #0x04
	.db #0x04
	.db #0x00
	.db #0x00
	.db #0x00
	.db #0x24
	.db #0x49
	.db #0xB6
	.db #0xDA
	.db #0xDA
	.db #0xDA
	.db #0x49
	.db #0x04
	.db #0x00
	.db #0x00
	.db #0x00
	.db #0x00
	.db #0x00
	.db #0x00
	.db #0x6D
	.db #0x49
	.db #0xFC
	.db #0xDA
	.db #0x49
	.db #0x24
	.db #0x00
	.db #0x00
	.db #0x00
	.db #0x00
	.db #0x00
	.db #0x00
	.db #0x00
	.db #0x00
	.db #0x6D
	.db #0x6D
	.db #0x04
	.db #0x04
	.db #0x00
	.db #0x00
	.db #0x00
	.db #0x00
	.db #0x00
	.db #0x00
	.db #0x00
	.db #0x00
	.db #0x00
	.db #0x00
	.db #0x24
	.db #0x00
	.db #0x00
	.db #0x00
	.db #0x00
	.db #0x00
	.db #0x00
	.db #0x00
	.db #0x00
	.db #0x00
	.db #0x00
	.db #0x00
	.db #0x00
	.db #0x00
	.db #0x00
	.db #0x00
	.db #0x00
	.db #0x00
	.db #0x00
	.db #0x00
	.db #0x00
	.db #0x00
	.db #0x00
	.db #0x00
	.db #0x00
	.db #0x00
	.db #0x00
	.db #0x00
	.db #0x04
	.db #0x04
	.db #0x04
	.db #0x6D
	.db #0x00
	.db #0x00
	.db #0x00
	.db #0x00
	.db #0x00
	.db #0x00
	.db #0x00
	.db #0x00
	.db #0x04
	.db #0x21
	.db #0x21
	.db #0x04
	.db #0x04
	.db #0x04
	.db #0x00
	.db #0x00
	.db #0x00
	.db #0x00
	.db #0x00
	.db #0x00
	.db #0x04
	.db #0x1C
	.db #0xFB
	.db #0x63
	.db #0x42
	.db #0x21
	.db #0x04
	.db #0x00
	.db #0x00
	.db #0x00
	.db #0x00
	.db #0x00
	.db #0x00
	.db #0x04
	.db #0x41
	.db #0xAE
	.db #0xD6
	.db #0x10
	.db #0x04
	.db #0x04
	.db #0x00
	.db #0x00
	.db #0x00
	.db #0x00
	.db #0x00
	.db #0x04
	.db #0x04
	.db #0x21
	.db #0x42
	.db #0x62
	.db #0x63
	.db #0x04
	.db #0x00
	.db #0x00
	.db #0x00
	.db #0x00
	.db #0x00
	.db #0x00
	.db #0x91
	.db #0xDA
	.db #0xDA
	.db #0xDA
	.db #0x42
	.db #0x04
	.db #0x04
	.db #0x00
	.db #0x00
	.db #0x00
	.db #0x00
	.db #0x00
	.db #0x24
	.db #0xB6
	.db #0xDA
	.db #0xDA
	.db #0xDA
	.db #0xDA
	.db #0x6D
	.db #0x00
	.db #0x00
	.db #0x00
	.db #0x00
	.db #0x00
	.db #0x00
	.db #0x04
	.db #0xFC
	.db #0x92
	.db #0xB6
	.db #0xB6
	.db #0xDA
	.db #0x24
	.db #0x00
	.db #0x00
	.db #0x00
	.db #0x00
	.db #0x00
	.db #0x00
	.db #0x00
	.db #0x24
	.db #0x6D
	.db #0x6D
	.db #0xFC
	.db #0xB6
	.db #0x04
	.db #0x00
	.db #0x00
	.db #0x00
	.db #0x00
	.db #0x00
	.db #0x00
	.db #0x00
	.db #0x00
	.db #0x24
	.db #0x49
	.db #0x24
	.db #0x00
	.db #0x00
	.db #0x00
	.db #0x00
	.db #0x00
	.db #0x00
	.db #0x00
	.db #0x00
	.db #0x00
	.db #0x00
	.db #0x00
	.db #0x00
	.db #0x00
	.db #0x00
	.db #0x00
	.db #0x00
	.db #0x00
	.db #0x00
	.db #0x00
	.db #0x00
	.db #0x00
	.db #0x00
	.db #0x00
	.db #0x04
	.db #0x04
	.db #0x04
	.db #0x04
	.db #0x6D
	.db #0x04
	.db #0x00
	.db #0x00
	.db #0x00
	.db #0x00
	.db #0x00
	.db #0x00
	.db #0x04
	.db #0x04
	.db #0x04
	.db #0x21
	.db #0x21
	.db #0x04
	.db #0x04
	.db #0x04
	.db #0x00
	.db #0x00
	.db #0x00
	.db #0x00
	.db #0x00
	.db #0x04
	.db #0x04
	.db #0x21
	.db #0x42
	.db #0x63
	.db #0x21
	.db #0x04
	.db #0x04
	.db #0x00
	.db #0x00
	.db #0x00
	.db #0x00
	.db #0x00
	.db #0x00
	.db #0x04
	.db #0x1C
	.db #0xFB
	.db #0xD6
	.db #0x10
	.db #0x04
	.db #0x00
	.db #0x00
	.db #0x00
	.db #0x00
	.db #0x00
	.db #0x00
	.db #0x00
	.db #0x04
	.db #0x41
	.db #0x42
	.db #0x62
	.db #0x63
	.db #0x04
	.db #0x00
	.db #0x00
	.db #0x00
	.db #0x00
	.db #0x00
	.db #0x00
	.db #0x00
	.db #0x04
	.db #0x21
	.db #0x42
	.db #0x63
	.db #0x42
	.db #0x04
	.db #0x00
	.db #0x00
	.db #0x00
	.db #0x00
	.db #0x00
	.db #0x00
	.db #0x04
	.db #0x6D
	.db #0xDA
	.db #0xDA
	.db #0xDA
	.db #0xDA
	.db #0x6D
	.db #0x04
	.db #0x00
	.db #0x00
	.db #0x00
	.db #0x00
	.db #0x00
	.db #0x04
	.db #0x91
	.db #0xB6
	.db #0xDA
	.db #0xDA
	.db #0xB6
	.db #0x92
	.db #0x04
	.db #0x00
	.db #0x00
	.db #0x00
	.db #0x00
	.db #0x00
	.db #0x00
	.db #0xB6
	.db #0xFC
	.db #0x24
	.db #0x24
	.db #0xFC
	.db #0xB6
	.db #0x00
	.db #0x00
	.db #0x00
	.db #0x00
	.db #0x00
	.db #0x00
	.db #0x00
	.db #0x24
	.db #0x6D
	.db #0x6D
	.db #0x6D
	.db #0x6D
	.db #0x24
	.db #0x00
	.db #0x00
	.db #0x00
	.db #0x00
	.db #0x00
	.db #0x00
	.db #0x00
	.db #0x00
	.db #0x00
	.db #0x00
	.db #0x00
	.db #0x00
	.db #0x00
	.db #0x00
	.db #0x00
	.db #0x00
	.db #0x00
	.db #0x00
	.db #0x00
	.db #0x00
	.db #0x00
	.db #0x04
	.db #0x04
	.db #0x6D
	.db #0x00
	.db #0x00
	.db #0x00
	.db #0x00
	.db #0x00
	.db #0x00
	.db #0x00
	.db #0x00
	.db #0x04
	.db #0x04
	.db #0x04
	.db #0x21
	.db #0x04
	.db #0x04
	.db #0x00
	.db #0x00
	.db #0x00
	.db #0x00
	.db #0x00
	.db #0x00
	.db #0x00
	.db #0x04
	.db #0x21
	.db #0x42
	.db #0x63
	.db #0x21
	.db #0x1C
	.db #0x04
	.db #0x00
	.db #0x00
	.db #0x00
	.db #0x00
	.db #0x00
	.db #0x00
	.db #0x04
	.db #0x21
	.db #0x1C
	.db #0xFB
	.db #0xD6
	.db #0x63
	.db #0x04
	.db #0x00
	.db #0x00
	.db #0x00
	.db #0x00
	.db #0x00
	.db #0x00
	.db #0x04
	.db #0x04
	.db #0x41
	.db #0x42
	.db #0x62
	.db #0x42
	.db #0x6D
	.db #0x24
	.db #0x00
	.db #0x00
	.db #0x00
	.db #0x00
	.db #0x00
	.db #0x00
	.db #0x04
	.db #0x21
	.db #0x42
	.db #0x63
	.db #0xDA
	.db #0xDA
	.db #0x6D
	.db #0x24
	.db #0x00
	.db #0x00
	.db #0x00
	.db #0x00
	.db #0x00
	.db #0x04
	.db #0x6D
	.db #0xDA
	.db #0xDA
	.db #0xDA
	.db #0xDA
	.db #0xDA
	.db #0x49
	.db #0x00
	.db #0x00
	.db #0x00
	.db #0x00
	.db #0x00
	.db #0x00
	.db #0x49
	.db #0x91
	.db #0x92
	.db #0x6D
	.db #0x24
	.db #0xFC
	.db #0x24
	.db #0x00
	.db #0x00
	.db #0x00
	.db #0x00
	.db #0x00
	.db #0x00
	.db #0x24
	.db #0x04
	.db #0xFC
	.db #0x6D
	.db #0x91
	.db #0x24
	.db #0x00
	.db #0x00
	.db #0x00
	.db #0x00
	.db #0x00
	.db #0x00
	.db #0x00
	.db #0x00
	.db #0x04
	.db #0x49
	.db #0x24
	.db #0x00
	.db #0x00
	.db #0x00
	.db #0x00
	.db #0x00
	.db #0x00
	.db #0x00
	.db #0x00
	.db #0x00
	.db #0x00
	.db #0x00
	.db #0x00
	.db #0x00
	.db #0x00
	.db #0x00
	.db #0x00
	.db #0x00
	.db #0x00
	.db #0x00
	.db #0x00
	.db #0x00
	.db #0x6D
	.db #0x00
	.db #0x00
	.db #0x00
	.db #0x00
	.db #0x00
	.db #0x00
	.db #0x00
	.db #0x00
	.db #0x00
	.db #0x00
	.db #0x00
	.db #0x04
	.db #0x04
	.db #0x21
	.db #0x21
	.db #0x10
	.db #0x00
	.db #0x00
	.db #0x00
	.db #0x00
	.db #0x00
	.db #0x00
	.db #0x00
	.db #0x04
	.db #0x04
	.db #0x21
	.db #0x42
	.db #0xD6
	.db #0xB2
	.db #0x63
	.db #0x04
	.db #0x00
	.db #0x00
	.db #0x00
	.db #0x00
	.db #0x00
	.db #0x04
	.db #0x04
	.db #0x21
	.db #0x1C
	.db #0x04
	.db #0x62
	.db #0x42
	.db #0x49
	.db #0x6D
	.db #0x00
	.db #0x00
	.db #0x00
	.db #0x00
	.db #0x04
	.db #0x04
	.db #0x04
	.db #0x21
	.db #0x42
	.db #0x42
	.db #0x92
	.db #0xB6
	.db #0x92
	.db #0x6D
	.db #0x00
	.db #0x00
	.db #0x00
	.db #0x00
	.db #0x04
	.db #0x04
	.db #0x04
	.db #0x21
	.db #0x92
	.db #0xDA
	.db #0xB6
	.db #0x92
	.db #0xBC
	.db #0x6D
	.db #0x00
	.db #0x00
	.db #0x00
	.db #0x00
	.db #0x04
	.db #0x04
	.db #0x49
	.db #0xDA
	.db #0xDA
	.db #0xDA
	.db #0x24
	.db #0x49
	.db #0x24
	.db #0x00
	.db #0x00
	.db #0x00
	.db #0x00
	.db #0x00
	.db #0x00
	.db #0x04
	.db #0x49
	.db #0xDA
	.db #0xFC
	.db #0x6D
	.db #0x24
	.db #0x00
	.db #0x00
	.db #0x00
	.db #0x00
	.db #0x00
	.db #0x00
	.db #0x00
	.db #0x00
	.db #0x04
	.db #0xB6
	.db #0x49
	.db #0x24
	.db #0x00
	.db #0x00
	.db #0x00
	.db #0x00
	.db #0x00
	.db #0x00
	.db #0x00
	.db #0x00
	.db #0x00
	.db #0x00
	.db #0x00
	.db #0x24
	.db #0x00
	.db #0x00
	.db #0x00
	.db #0x00
	.db #0x00
	.db #0x00
	.db #0x00
	.db #0x00
	.db #0x00
	.db #0x00
	.db #0x00
	.db #0x00
	.db #0x00
	.db #0x00
	.db #0x00
	.db #0x00
	.db #0x00
	.db #0x00
	.db #0x00
	.db #0x00
	.db #0x00
	.db #0x00
	.db #0x00
	.db #0x00
	.db #0x00
	.db #0x00
	.db #0x00
	.db #0x00
	.db #0x00
	.db #0x00
	.db #0x00
	.db #0x6D
	.db #0x04
	.db #0x04
	.db #0x04
	.db #0x04
	.db #0x10
	.db #0x00
	.db #0x00
	.db #0x00
	.db #0x00
	.db #0x00
	.db #0x00
	.db #0x24
	.db #0x04
	.db #0x21
	.db #0x21
	.db #0x04
	.db #0xFB
	.db #0x21
	.db #0x21
	.db #0x24
	.db #0x24
	.db #0x00
	.db #0x00
	.db #0x00
	.db #0x00
	.db #0x04
	.db #0x42
	.db #0x63
	.db #0x04
	.db #0xD6
	.db #0x42
	.db #0x42
	.db #0x91
	.db #0x92
	.db #0xBC
	.db #0x49
	.db #0x00
	.db #0x00
	.db #0x04
	.db #0x21
	.db #0x42
	.db #0x04
	.db #0x1C
	.db #0x42
	.db #0x42
	.db #0xDA
	.db #0xB6
	.db #0x24
	.db #0x49
	.db #0x00
	.db #0x00
	.db #0x04
	.db #0x04
	.db #0x04
	.db #0x04
	.db #0x04
	.db #0x04
	.db #0xB6
	.db #0xDA
	.db #0xDA
	.db #0xFC
	.db #0x6D
	.db #0x00
	.db #0x00
	.db #0x04
	.db #0x04
	.db #0x04
	.db #0x04
	.db #0x49
	.db #0x6D
	.db #0xB6
	.db #0xDA
	.db #0xDA
	.db #0x91
	.db #0x6D
	.db #0x00
	.db #0x00
	.db #0x00
	.db #0x04
	.db #0x04
	.db #0x00
	.db #0x00
	.db #0x49
	.db #0x49
	.db #0x24
	.db #0x24
	.db #0x6D
	.db #0x49
	.db #0x00
	.db #0x00
	.db #0x00
	.db #0x00
	.db #0x00
	.db #0x00
	.db #0x00
	.db #0x00
	.db #0x00
	.db #0x04
	.db #0x04
	.db #0x00
	.db #0x00
	.db #0x00
	.db #0x00
	.db #0x00
	.db #0x00
	.db #0x00
	.db #0x00
	.db #0x00
	.db #0x00
	.db #0x00
	.db #0x00
	.db #0x00
	.db #0x00
	.db #0x00
	.db #0x00
_car2:
	.db #0x00
	.db #0x00
	.db #0x00
	.db #0x00
	.db #0x00
	.db #0x00
	.db #0x00
	.db #0x00
	.db #0x00
	.db #0x00
	.db #0x00
	.db #0x00
	.db #0x00
	.db #0x00
	.db #0x00
	.db #0x00
	.db #0x42
	.db #0xDC
	.db #0x63
	.db #0x00
	.db #0x00
	.db #0x00
	.db #0x00
	.db #0x00
	.db #0x00
	.db #0x00
	.db #0x00
	.db #0x14
	.db #0x42
	.db #0x42
	.db #0xB8
	.db #0x63
	.db #0xBC
	.db #0xB8
	.db #0x98
	.db #0x74
	.db #0xBC
	.db #0x50
	.db #0x00
	.db #0xB2
	.db #0x74
	.db #0x42
	.db #0x41
	.db #0xB8
	.db #0x62
	.db #0xB8
	.db #0x04
	.db #0x04
	.db #0x04
	.db #0x04
	.db #0x74
	.db #0x00
	.db #0x00
	.db #0x74
	.db #0x42
	.db #0x21
	.db #0x74
	.db #0x42
	.db #0xB8
	.db #0x49
	.db #0x49
	.db #0x24
	.db #0x24
	.db #0x04
	.db #0x00
	.db #0x00
	.db #0x98
	.db #0x42
	.db #0x21
	.db #0x50
	.db #0x21
	.db #0x74
	.db #0x24
	.db #0x24
	.db #0x24
	.db #0x24
	.db #0xBC
	.db #0x00
	.db #0x00
	.db #0x18
	.db #0xBC
	.db #0xB8
	.db #0x74
	.db #0x74
	.db #0x74
	.db #0x98
	.db #0xBC
	.db #0xB8
	.db #0xFC
	.db #0x74
	.db #0x00
	.db #0x00
	.db #0x98
	.db #0x24
	.db #0x24
	.db #0x50
	.db #0x74
	.db #0x74
	.db #0x50
	.db #0x24
	.db #0x24
	.db #0x74
	.db #0x50
	.db #0x00
	.db #0x00
	.db #0x00
	.db #0x04
	.db #0x04
	.db #0x00
	.db #0x00
	.db #0x00
	.db #0x00
	.db #0x04
	.db #0x04
	.db #0x00
	.db #0x00
	.db #0x00
	.db #0x00
	.db #0x00
	.db #0x00
	.db #0x00
	.db #0x00
	.db #0x00
	.db #0x00
	.db #0x00
	.db #0x00
	.db #0x00
	.db #0x00
	.db #0x00
	.db #0x00
	.db #0x00
	.db #0x00
	.db #0x00
	.db #0x00
	.db #0x00
	.db #0x00
	.db #0x00
	.db #0x00
	.db #0x00
	.db #0x00
	.db #0x00
	.db #0x00
	.db #0x00
	.db #0x00
	.db #0x00
	.db #0x00
	.db #0x00
	.db #0x00
	.db #0x00
	.db #0x00
	.db #0x00
	.db #0x00
	.db #0x00
	.db #0x00
	.db #0x00
	.db #0x00
	.db #0x00
	.db #0x00
	.db #0x00
	.db #0x00
	.db #0x00
	.db #0x00
	.db #0x00
	.db #0x50
	.db #0x74
	.db #0xBC
	.db #0x00
	.db #0x00
	.db #0x00
	.db #0x00
	.db #0x00
	.db #0x42
	.db #0x98
	.db #0x63
	.db #0x50
	.db #0x74
	.db #0x98
	.db #0x04
	.db #0x04
	.db #0x50
	.db #0x00
	.db #0x00
	.db #0x00
	.db #0x74
	.db #0x42
	.db #0xDC
	.db #0x63
	.db #0x62
	.db #0x74
	.db #0x04
	.db #0x24
	.db #0x24
	.db #0x04
	.db #0x00
	.db #0x00
	.db #0x14
	.db #0x42
	.db #0x41
	.db #0x21
	.db #0xB8
	.db #0x62
	.db #0xBC
	.db #0x49
	.db #0x24
	.db #0x74
	.db #0xBC
	.db #0x74
	.db #0x00
	.db #0xB2
	.db #0x74
	.db #0x42
	.db #0x21
	.db #0x98
	.db #0x21
	.db #0xB8
	.db #0xBC
	.db #0xBC
	.db #0x98
	.db #0xFC
	.db #0x50
	.db #0x00
	.db #0x24
	.db #0x74
	.db #0x42
	.db #0x98
	.db #0x74
	.db #0x98
	.db #0x98
	.db #0x74
	.db #0x04
	.db #0x50
	.db #0x74
	.db #0x00
	.db #0x00
	.db #0x00
	.db #0x1C
	.db #0xBC
	.db #0xB8
	.db #0x98
	.db #0x50
	.db #0x74
	.db #0x50
	.db #0x04
	.db #0x04
	.db #0x00
	.db #0x00
	.db #0x00
	.db #0x00
	.db #0x24
	.db #0x98
	.db #0x04
	.db #0x50
	.db #0x00
	.db #0x00
	.db #0x00
	.db #0x00
	.db #0x00
	.db #0x00
	.db #0x00
	.db #0x00
	.db #0x00
	.db #0x00
	.db #0x00
	.db #0x04
	.db #0x04
	.db #0x00
	.db #0x00
	.db #0x00
	.db #0x00
	.db #0x00
	.db #0x00
	.db #0x00
	.db #0x00
	.db #0x00
	.db #0x00
	.db #0x00
	.db #0x00
	.db #0x00
	.db #0x00
	.db #0x00
	.db #0x00
	.db #0x00
	.db #0x00
	.db #0x00
	.db #0x00
	.db #0x00
	.db #0x00
	.db #0x00
	.db #0x00
	.db #0x00
	.db #0x00
	.db #0x00
	.db #0x00
	.db #0xB8
	.db #0xBC
	.db #0x00
	.db #0x00
	.db #0x00
	.db #0x00
	.db #0x00
	.db #0x00
	.db #0x00
	.db #0x00
	.db #0x00
	.db #0x00
	.db #0xB8
	.db #0x04
	.db #0x04
	.db #0x24
	.db #0x00
	.db #0x00
	.db #0x00
	.db #0x00
	.db #0x00
	.db #0x00
	.db #0x00
	.db #0x00
	.db #0x74
	.db #0x04
	.db #0x04
	.db #0x49
	.db #0x24
	.db #0x50
	.db #0x00
	.db #0x00
	.db #0x00
	.db #0x00
	.db #0x00
	.db #0x98
	.db #0x41
	.db #0x63
	.db #0xDC
	.db #0x49
	.db #0x24
	.db #0x04
	.db #0x04
	.db #0xFC
	.db #0x00
	.db #0x00
	.db #0x00
	.db #0xB8
	.db #0x63
	.db #0xDC
	.db #0x62
	.db #0x62
	.db #0xBC
	.db #0x04
	.db #0x04
	.db #0xBC
	.db #0x98
	.db #0x00
	.db #0x00
	.db #0x50
	.db #0x63
	.db #0x42
	.db #0x42
	.db #0xBC
	.db #0x41
	.db #0xB8
	.db #0x74
	.db #0x98
	.db #0xBC
	.db #0x04
	.db #0x00
	.db #0x00
	.db #0x18
	.db #0x74
	.db #0x42
	.db #0x42
	.db #0x21
	.db #0x98
	.db #0x74
	.db #0x74
	.db #0x50
	.db #0x04
	.db #0x00
	.db #0x00
	.db #0x00
	.db #0xB2
	.db #0x74
	.db #0x98
	.db #0x41
	.db #0x74
	.db #0x74
	.db #0x74
	.db #0x00
	.db #0x00
	.db #0x00
	.db #0x00
	.db #0x00
	.db #0x00
	.db #0x00
	.db #0x00
	.db #0x1C
	.db #0x74
	.db #0xBC
	.db #0x98
	.db #0x04
	.db #0x00
	.db #0x00
	.db #0x00
	.db #0x00
	.db #0x00
	.db #0x00
	.db #0x00
	.db #0x00
	.db #0x00
	.db #0x74
	.db #0x74
	.db #0x04
	.db #0x00
	.db #0x00
	.db #0x00
	.db #0x00
	.db #0x00
	.db #0x00
	.db #0x00
	.db #0x00
	.db #0x00
	.db #0x00
	.db #0x00
	.db #0x00
	.db #0x00
	.db #0x00
	.db #0x00
	.db #0x00
	.db #0x00
	.db #0x00
	.db #0x00
	.db #0x00
	.db #0x00
	.db #0x00
	.db #0x00
	.db #0x00
	.db #0x00
	.db #0x74
	.db #0x04
	.db #0x00
	.db #0x00
	.db #0x00
	.db #0x00
	.db #0x00
	.db #0x00
	.db #0x00
	.db #0x00
	.db #0x00
	.db #0x00
	.db #0xB8
	.db #0x04
	.db #0x24
	.db #0x04
	.db #0x24
	.db #0x00
	.db #0x00
	.db #0x00
	.db #0x00
	.db #0x00
	.db #0x00
	.db #0x00
	.db #0xBC
	.db #0x04
	.db #0x24
	.db #0x24
	.db #0x04
	.db #0xBC
	.db #0x00
	.db #0x00
	.db #0x00
	.db #0x00
	.db #0x00
	.db #0x00
	.db #0x00
	.db #0x98
	.db #0x04
	.db #0x49
	.db #0x24
	.db #0x04
	.db #0xFC
	.db #0x98
	.db #0x00
	.db #0x00
	.db #0x00
	.db #0x00
	.db #0x00
	.db #0x74
	.db #0xDC
	.db #0xBC
	.db #0x24
	.db #0x04
	.db #0x98
	.db #0xBC
	.db #0x04
	.db #0x00
	.db #0x00
	.db #0x00
	.db #0x00
	.db #0x50
	.db #0x74
	.db #0x62
	.db #0x63
	.db #0xBC
	.db #0xB8
	.db #0x74
	.db #0x04
	.db #0x00
	.db #0x00
	.db #0x00
	.db #0x00
	.db #0x00
	.db #0x98
	.db #0x74
	.db #0xDC
	.db #0xBC
	.db #0x63
	.db #0x41
	.db #0x74
	.db #0x00
	.db #0x00
	.db #0x00
	.db #0x00
	.db #0x00
	.db #0x74
	.db #0xB8
	.db #0x42
	.db #0x42
	.db #0x42
	.db #0xB8
	.db #0x74
	.db #0x50
	.db #0x00
	.db #0x00
	.db #0x00
	.db #0x00
	.db #0x00
	.db #0x50
	.db #0x18
	.db #0x63
	.db #0x42
	.db #0x42
	.db #0x21
	.db #0x98
	.db #0x00
	.db #0x00
	.db #0x00
	.db #0x00
	.db #0x00
	.db #0x00
	.db #0x00
	.db #0xB2
	.db #0x74
	.db #0x98
	.db #0x42
	.db #0x74
	.db #0x04
	.db #0x00
	.db #0x00
	.db #0x00
	.db #0x00
	.db #0x00
	.db #0x00
	.db #0x00
	.db #0x00
	.db #0x00
	.db #0x74
	.db #0x74
	.db #0x18
	.db #0x00
	.db #0x00
	.db #0x00
	.db #0x00
	.db #0x00
	.db #0x00
	.db #0x00
	.db #0x00
	.db #0x00
	.db #0xBC
	.db #0x74
	.db #0x04
	.db #0x04
	.db #0x74
	.db #0xBC
	.db #0x00
	.db #0x00
	.db #0x00
	.db #0x00
	.db #0x00
	.db #0x00
	.db #0x98
	.db #0xB8
	.db #0x04
	.db #0x24
	.db #0x24
	.db #0x04
	.db #0xFC
	.db #0x98
	.db #0x00
	.db #0x00
	.db #0x00
	.db #0x00
	.db #0x00
	.db #0xBC
	.db #0xBC
	.db #0x04
	.db #0x49
	.db #0x24
	.db #0x04
	.db #0xBC
	.db #0xBC
	.db #0x00
	.db #0x00
	.db #0x00
	.db #0x00
	.db #0x00
	.db #0x04
	.db #0x98
	.db #0x04
	.db #0x49
	.db #0x24
	.db #0x04
	.db #0x98
	.db #0x04
	.db #0x00
	.db #0x00
	.db #0x00
	.db #0x00
	.db #0x00
	.db #0x00
	.db #0x74
	.db #0xDC
	.db #0xBC
	.db #0xBC
	.db #0xB8
	.db #0x74
	.db #0x00
	.db #0x00
	.db #0x00
	.db #0x00
	.db #0x00
	.db #0x00
	.db #0x00
	.db #0x74
	.db #0x62
	.db #0x63
	.db #0x63
	.db #0x41
	.db #0x74
	.db #0x00
	.db #0x00
	.db #0x00
	.db #0x00
	.db #0x00
	.db #0x00
	.db #0x98
	.db #0x74
	.db #0xDC
	.db #0xBC
	.db #0xBC
	.db #0xB8
	.db #0x74
	.db #0x98
	.db #0x00
	.db #0x00
	.db #0x00
	.db #0x00
	.db #0x00
	.db #0xBC
	.db #0x98
	.db #0x42
	.db #0x42
	.db #0x42
	.db #0x21
	.db #0x98
	.db #0xBC
	.db #0x00
	.db #0x00
	.db #0x00
	.db #0x00
	.db #0x00
	.db #0x04
	.db #0xB8
	.db #0x63
	.db #0x42
	.db #0x42
	.db #0x41
	.db #0x74
	.db #0x04
	.db #0x00
	.db #0x00
	.db #0x00
	.db #0x00
	.db #0x00
	.db #0x00
	.db #0x18
	.db #0x74
	.db #0x98
	.db #0x98
	.db #0x74
	.db #0x18
	.db #0x00
	.db #0x00
	.db #0x00
	.db #0x00
	.db #0x00
	.db #0x00
	.db #0x00
	.db #0x00
	.db #0xB2
	.db #0x00
	.db #0x00
	.db #0x00
	.db #0x00
	.db #0x00
	.db #0x00
	.db #0x00
	.db #0x00
	.db #0x00
	.db #0x00
	.db #0x00
	.db #0x00
	.db #0x04
	.db #0x74
	.db #0x00
	.db #0x00
	.db #0x00
	.db #0x00
	.db #0x00
	.db #0x00
	.db #0x00
	.db #0x00
	.db #0x00
	.db #0x00
	.db #0x04
	.db #0x24
	.db #0x04
	.db #0xB8
	.db #0x00
	.db #0x00
	.db #0x00
	.db #0x00
	.db #0x00
	.db #0x00
	.db #0x00
	.db #0x00
	.db #0xBC
	.db #0x04
	.db #0x24
	.db #0x24
	.db #0x04
	.db #0xBC
	.db #0x00
	.db #0x00
	.db #0x00
	.db #0x00
	.db #0x00
	.db #0x00
	.db #0x98
	.db #0xFC
	.db #0x04
	.db #0x24
	.db #0x49
	.db #0x04
	.db #0x98
	.db #0x00
	.db #0x00
	.db #0x00
	.db #0x00
	.db #0x00
	.db #0x00
	.db #0x74
	.db #0xBC
	.db #0x98
	.db #0x04
	.db #0x24
	.db #0xBC
	.db #0xDC
	.db #0x74
	.db #0x00
	.db #0x00
	.db #0x00
	.db #0x00
	.db #0x00
	.db #0x04
	.db #0x50
	.db #0x74
	.db #0xB8
	.db #0xBC
	.db #0x63
	.db #0x62
	.db #0x74
	.db #0x50
	.db #0x00
	.db #0x00
	.db #0x00
	.db #0x00
	.db #0x00
	.db #0x04
	.db #0x74
	.db #0x41
	.db #0x63
	.db #0xBC
	.db #0xDC
	.db #0x74
	.db #0x98
	.db #0x50
	.db #0x00
	.db #0x00
	.db #0x00
	.db #0x00
	.db #0x00
	.db #0x50
	.db #0x74
	.db #0xB8
	.db #0x42
	.db #0x42
	.db #0x42
	.db #0xB8
	.db #0x74
	.db #0x00
	.db #0x00
	.db #0x00
	.db #0x00
	.db #0x00
	.db #0x00
	.db #0x98
	.db #0x21
	.db #0x42
	.db #0x42
	.db #0x63
	.db #0x18
	.db #0x00
	.db #0x00
	.db #0x00
	.db #0x00
	.db #0x00
	.db #0x00
	.db #0x00
	.db #0x04
	.db #0x74
	.db #0x42
	.db #0x98
	.db #0x74
	.db #0x00
	.db #0x00
	.db #0x00
	.db #0x00
	.db #0x00
	.db #0x00
	.db #0x00
	.db #0x00
	.db #0x00
	.db #0x04
	.db #0x18
	.db #0xB2
	.db #0x00
	.db #0x00
	.db #0x00
	.db #0x00
	.db #0x00
	.db #0x00
	.db #0x00
	.db #0x00
	.db #0x00
	.db #0xBC
	.db #0xB8
	.db #0x00
	.db #0x00
	.db #0x00
	.db #0x00
	.db #0x00
	.db #0x00
	.db #0x00
	.db #0x00
	.db #0x00
	.db #0x00
	.db #0x24
	.db #0x04
	.db #0x04
	.db #0xB8
	.db #0x00
	.db #0x00
	.db #0x00
	.db #0x00
	.db #0x00
	.db #0x00
	.db #0x00
	.db #0x04
	.db #0x74
	.db #0x24
	.db #0x49
	.db #0x04
	.db #0x04
	.db #0x74
	.db #0x00
	.db #0x00
	.db #0x00
	.db #0x00
	.db #0x00
	.db #0x00
	.db #0xFC
	.db #0x04
	.db #0x04
	.db #0x24
	.db #0x49
	.db #0xDC
	.db #0x63
	.db #0x41
	.db #0x98
	.db #0x00
	.db #0x00
	.db #0x00
	.db #0x00
	.db #0x98
	.db #0xBC
	.db #0x04
	.db #0x04
	.db #0xBC
	.db #0x62
	.db #0x62
	.db #0xDC
	.db #0x63
	.db #0xB8
	.db #0x00
	.db #0x00
	.db #0x00
	.db #0x04
	.db #0xBC
	.db #0x98
	.db #0x74
	.db #0xB8
	.db #0x41
	.db #0xBC
	.db #0x42
	.db #0x42
	.db #0x63
	.db #0x50
	.db #0x00
	.db #0x00
	.db #0x00
	.db #0x04
	.db #0x50
	.db #0x74
	.db #0x74
	.db #0x98
	.db #0x21
	.db #0x42
	.db #0x42
	.db #0x74
	.db #0x18
	.db #0x00
	.db #0x00
	.db #0x00
	.db #0x00
	.db #0x00
	.db #0x00
	.db #0x74
	.db #0x74
	.db #0x74
	.db #0x41
	.db #0x98
	.db #0x74
	.db #0x00
	.db #0x00
	.db #0x00
	.db #0x00
	.db #0x00
	.db #0x00
	.db #0x00
	.db #0x00
	.db #0x98
	.db #0xBC
	.db #0x1C
	.db #0x98
	.db #0x00
	.db #0x00
	.db #0x00
	.db #0x00
	.db #0x00
	.db #0x00
	.db #0x00
	.db #0x00
	.db #0x00
	.db #0x04
	.db #0x04
	.db #0x74
	.db #0xB2
	.db #0x00
	.db #0x00
	.db #0x00
	.db #0x00
	.db #0x00
	.db #0x00
	.db #0x00
	.db #0x00
	.db #0x00
	.db #0x00
	.db #0x00
	.db #0x00
	.db #0x00
	.db #0x00
	.db #0x00
	.db #0x00
	.db #0x00
	.db #0x00
	.db #0x00
	.db #0x00
	.db #0x00
	.db #0x00
	.db #0x00
	.db #0x00
	.db #0x00
	.db #0x00
	.db #0x00
	.db #0x00
	.db #0x00
	.db #0x00
	.db #0x00
	.db #0xDC
	.db #0x74
	.db #0x50
	.db #0x00
	.db #0x00
	.db #0x00
	.db #0x00
	.db #0x00
	.db #0x00
	.db #0x00
	.db #0x00
	.db #0x00
	.db #0x74
	.db #0x04
	.db #0x04
	.db #0x98
	.db #0x74
	.db #0x50
	.db #0x63
	.db #0x98
	.db #0x42
	.db #0x00
	.db #0x00
	.db #0x00
	.db #0x00
	.db #0x04
	.db #0x24
	.db #0x24
	.db #0x04
	.db #0x74
	.db #0x62
	.db #0x63
	.db #0xDC
	.db #0x42
	.db #0x50
	.db #0x00
	.db #0x00
	.db #0x74
	.db #0xBC
	.db #0x74
	.db #0x24
	.db #0x49
	.db #0xBC
	.db #0x62
	.db #0xB8
	.db #0x21
	.db #0x41
	.db #0x42
	.db #0x14
	.db #0x00
	.db #0x50
	.db #0xFC
	.db #0x98
	.db #0xBC
	.db #0xBC
	.db #0xB8
	.db #0x21
	.db #0x98
	.db #0x21
	.db #0x42
	.db #0x74
	.db #0x00
	.db #0x00
	.db #0x00
	.db #0x74
	.db #0x04
	.db #0x50
	.db #0x74
	.db #0x98
	.db #0x98
	.db #0x74
	.db #0x98
	.db #0x42
	.db #0x74
	.db #0x00
	.db #0x00
	.db #0x00
	.db #0x00
	.db #0x04
	.db #0x04
	.db #0x50
	.db #0x74
	.db #0x50
	.db #0x98
	.db #0xB8
	.db #0xBC
	.db #0x1C
	.db #0xB2
	.db #0x00
	.db #0x00
	.db #0x00
	.db #0x00
	.db #0x00
	.db #0x00
	.db #0x00
	.db #0x00
	.db #0x04
	.db #0x50
	.db #0x98
	.db #0x50
	.db #0x00
	.db #0x00
	.db #0x00
	.db #0x00
	.db #0x00
	.db #0x00
	.db #0x00
	.db #0x00
	.db #0x00
	.db #0x04
	.db #0x04
	.db #0x00
	.db #0x00
	.db #0x00
	.db #0x00
	.db #0x00
	.db #0x00
	.db #0x00
	.db #0x00
	.db #0x00
	.db #0x00
	.db #0x00
	.db #0x00
	.db #0x00
	.db #0x00
	.db #0x00
	.db #0x00
	.db #0x00
	.db #0x00
	.db #0x00
	.db #0x00
	.db #0x00
	.db #0x00
	.db #0x00
	.db #0x00
	.db #0x00
	.db #0x00
	.db #0x00
	.db #0x00
	.db #0x00
	.db #0x00
	.db #0x00
	.db #0x00
	.db #0x00
	.db #0x00
	.db #0x00
	.db #0x00
	.db #0x00
	.db #0x63
	.db #0xDC
	.db #0x42
	.db #0x00
	.db #0x00
	.db #0x00
	.db #0x00
	.db #0x50
	.db #0xBC
	.db #0x74
	.db #0x98
	.db #0xB8
	.db #0xBC
	.db #0x63
	.db #0xB8
	.db #0x42
	.db #0x42
	.db #0x14
	.db #0x00
	.db #0x00
	.db #0x74
	.db #0x04
	.db #0x04
	.db #0x04
	.db #0x04
	.db #0xB8
	.db #0x62
	.db #0xB8
	.db #0x41
	.db #0x42
	.db #0x74
	.db #0x00
	.db #0x00
	.db #0x04
	.db #0x24
	.db #0x24
	.db #0x49
	.db #0x49
	.db #0xB8
	.db #0x42
	.db #0x74
	.db #0x21
	.db #0x42
	.db #0x74
	.db #0x00
	.db #0x00
	.db #0xBC
	.db #0x24
	.db #0x24
	.db #0x24
	.db #0x24
	.db #0x74
	.db #0x21
	.db #0x50
	.db #0x21
	.db #0x42
	.db #0x98
	.db #0x00
	.db #0x00
	.db #0x74
	.db #0xFC
	.db #0xB8
	.db #0xBC
	.db #0x98
	.db #0x74
	.db #0x74
	.db #0x74
	.db #0xB8
	.db #0xBC
	.db #0x18
	.db #0xB2
	.db #0x00
	.db #0x50
	.db #0x74
	.db #0x04
	.db #0x04
	.db #0x50
	.db #0x74
	.db #0x74
	.db #0x50
	.db #0x04
	.db #0x04
	.db #0x98
	.db #0x00
	.db #0x00
	.db #0x00
	.db #0x00
	.db #0x04
	.db #0x04
	.db #0x00
	.db #0x00
	.db #0x00
	.db #0x00
	.db #0x04
	.db #0x04
	.db #0x00
	.db #0x00
	.db #0x00
	.db #0x00
	.db #0x00
	.db #0x00
	.db #0x00
	.db #0x00
	.db #0x00
	.db #0x00
	.db #0x00
	.db #0x00
	.db #0x00
	.db #0x00
	.db #0x00
	.db #0x00
	.db #0x00
	.db #0x00
	.db #0x00
	.db #0x00
	.db #0x00
	.db #0x00
	.db #0x00
	.db #0x00
	.db #0x00
	.db #0x00
	.db #0x00
	.db #0x00
	.db #0x00
	.db #0x00
	.db #0x00
	.db #0x00
	.db #0x00
	.db #0x00
	.db #0x00
	.db #0x00
	.db #0x00
	.db #0x00
	.db #0x00
	.db #0x00
	.db #0x00
	.db #0x00
	.db #0x00
	.db #0x00
	.db #0x00
	.db #0x00
	.db #0x00
	.db #0x63
	.db #0x98
	.db #0x42
	.db #0x42
	.db #0x14
	.db #0x00
	.db #0x00
	.db #0x00
	.db #0x00
	.db #0x00
	.db #0x50
	.db #0xB8
	.db #0xBC
	.db #0x63
	.db #0xDC
	.db #0x42
	.db #0x42
	.db #0x74
	.db #0x00
	.db #0x00
	.db #0x00
	.db #0xBC
	.db #0x74
	.db #0x98
	.db #0x04
	.db #0xDC
	.db #0x62
	.db #0x62
	.db #0xB8
	.db #0x42
	.db #0x74
	.db #0x50
	.db #0x00
	.db #0x74
	.db #0x74
	.db #0x04
	.db #0x04
	.db #0x49
	.db #0x49
	.db #0xB8
	.db #0x42
	.db #0x98
	.db #0x21
	.db #0x42
	.db #0x98
	.db #0xB2
	.db #0x50
	.db #0x04
	.db #0x24
	.db #0x24
	.db #0x24
	.db #0x24
	.db #0xB8
	.db #0x21
	.db #0x74
	.db #0xB8
	.db #0xBC
	.db #0x18
	.db #0x00
	.db #0x00
	.db #0xBC
	.db #0x24
	.db #0x24
	.db #0xBC
	.db #0xBC
	.db #0xBC
	.db #0x98
	.db #0x98
	.db #0x74
	.db #0x04
	.db #0x50
	.db #0x00
	.db #0x00
	.db #0x74
	.db #0xFC
	.db #0xB8
	.db #0x04
	.db #0x50
	.db #0x74
	.db #0x74
	.db #0x50
	.db #0x04
	.db #0x04
	.db #0x00
	.db #0x00
	.db #0x00
	.db #0x00
	.db #0x50
	.db #0x74
	.db #0x04
	.db #0x04
	.db #0x00
	.db #0x00
	.db #0x00
	.db #0x00
	.db #0x00
	.db #0x00
	.db #0x00
	.db #0x00
	.db #0x00
	.db #0x00
	.db #0x00
	.db #0x00
	.db #0x00
	.db #0x00
	.db #0x00
	.db #0x00
	.db #0x00
	.db #0x00
	.db #0x00
	.db #0x00
	.db #0x00
	.db #0x00
	.db #0x00
	.db #0x00
	.db #0x00
	.db #0x00
	.db #0x00
	.db #0x00
	.db #0x00
	.db #0x00
	.db #0x00
	.db #0x00
	.db #0x00
	.db #0x00
	.db #0x00
	.db #0x00
	.db #0x00
	.db #0x00
	.db #0x00
	.db #0x50
	.db #0x14
	.db #0x74
	.db #0x00
	.db #0x00
	.db #0x00
	.db #0x00
	.db #0x00
	.db #0x00
	.db #0x00
	.db #0x00
	.db #0x00
	.db #0x74
	.db #0x42
	.db #0x42
	.db #0x42
	.db #0x74
	.db #0x00
	.db #0x00
	.db #0x00
	.db #0x00
	.db #0x00
	.db #0x00
	.db #0x00
	.db #0x63
	.db #0xB8
	.db #0xBC
	.db #0x74
	.db #0x42
	.db #0x21
	.db #0x98
	.db #0xB2
	.db #0x00
	.db #0x00
	.db #0x00
	.db #0x00
	.db #0x50
	.db #0x62
	.db #0x62
	.db #0x98
	.db #0xBC
	.db #0x74
	.db #0x21
	.db #0xBC
	.db #0x1C
	.db #0x00
	.db #0x00
	.db #0x00
	.db #0x74
	.db #0xB8
	.db #0xBC
	.db #0x62
	.db #0x42
	.db #0x74
	.db #0xB8
	.db #0xBC
	.db #0x04
	.db #0x00
	.db #0x00
	.db #0x00
	.db #0xB8
	.db #0xB8
	.db #0x04
	.db #0x49
	.db #0xBC
	.db #0x42
	.db #0x21
	.db #0x74
	.db #0x04
	.db #0x00
	.db #0x00
	.db #0x00
	.db #0x74
	.db #0xFC
	.db #0x04
	.db #0x24
	.db #0x49
	.db #0x24
	.db #0xBC
	.db #0xB8
	.db #0x74
	.db #0x00
	.db #0x00
	.db #0x00
	.db #0x00
	.db #0x50
	.db #0x04
	.db #0x24
	.db #0x24
	.db #0x24
	.db #0x98
	.db #0xBC
	.db #0x74
	.db #0x00
	.db #0x00
	.db #0x00
	.db #0x00
	.db #0x00
	.db #0x00
	.db #0x04
	.db #0x04
	.db #0x24
	.db #0xFC
	.db #0xBC
	.db #0x04
	.db #0x00
	.db #0x00
	.db #0x00
	.db #0x00
	.db #0x00
	.db #0x00
	.db #0x00
	.db #0x00
	.db #0x04
	.db #0x74
	.db #0x74
	.db #0x04
	.db #0x00
	.db #0x00
	.db #0x00
	.db #0x00
	.db #0x00
	.db #0x00
	.db #0x00
	.db #0x00
	.db #0x00
	.db #0x00
	.db #0x00
	.db #0x00
	.db #0x00
	.db #0x00
	.db #0x00
	.db #0x00
	.db #0x00
	.db #0x00
	.db #0x00
	.db #0x00
	.db #0x00
	.db #0x00
	.db #0x00
	.db #0x00
	.db #0x00
	.db #0x00
	.db #0x18
	.db #0x74
	.db #0x00
	.db #0x00
	.db #0x00
	.db #0x00
	.db #0x00
	.db #0x00
	.db #0x00
	.db #0x00
	.db #0x00
	.db #0x50
	.db #0x74
	.db #0x41
	.db #0x42
	.db #0x98
	.db #0x74
	.db #0x00
	.db #0x00
	.db #0x00
	.db #0x00
	.db #0x00
	.db #0x00
	.db #0x00
	.db #0xBC
	.db #0x98
	.db #0xB8
	.db #0x42
	.db #0x42
	.db #0x63
	.db #0x18
	.db #0x00
	.db #0x00
	.db #0x00
	.db #0x00
	.db #0x00
	.db #0x24
	.db #0x74
	.db #0xB8
	.db #0xBC
	.db #0xBC
	.db #0xBC
	.db #0xDC
	.db #0xB8
	.db #0x00
	.db #0x00
	.db #0x00
	.db #0x00
	.db #0x00
	.db #0x50
	.db #0x74
	.db #0x41
	.db #0x63
	.db #0xBC
	.db #0xDC
	.db #0x98
	.db #0xBC
	.db #0x00
	.db #0x00
	.db #0x00
	.db #0x00
	.db #0x00
	.db #0x98
	.db #0x74
	.db #0xB8
	.db #0x42
	.db #0x63
	.db #0x62
	.db #0x74
	.db #0x04
	.db #0x00
	.db #0x00
	.db #0x00
	.db #0x00
	.db #0xBC
	.db #0xBC
	.db #0x04
	.db #0x24
	.db #0xBC
	.db #0xDC
	.db #0x74
	.db #0x74
	.db #0x00
	.db #0x00
	.db #0x00
	.db #0x00
	.db #0x00
	.db #0x98
	.db #0xBC
	.db #0x04
	.db #0x24
	.db #0x49
	.db #0x04
	.db #0x50
	.db #0x00
	.db #0x00
	.db #0x00
	.db #0x00
	.db #0x00
	.db #0x50
	.db #0x98
	.db #0x04
	.db #0x24
	.db #0x24
	.db #0x49
	.db #0x04
	.db #0xBC
	.db #0x00
	.db #0x00
	.db #0x00
	.db #0x00
	.db #0x00
	.db #0x04
	.db #0x50
	.db #0x74
	.db #0x24
	.db #0x24
	.db #0x04
	.db #0xFC
	.db #0xBC
	.db #0x00
	.db #0x00
	.db #0x00
	.db #0x00
	.db #0x00
	.db #0x00
	.db #0x00
	.db #0x50
	.db #0x74
	.db #0x74
	.db #0x74
	.db #0xFC
	.db #0x04
	.db #0x00
	.db #0x00
	.db #0x00
	.db #0x00
	.db #0x00
	.db #0x00
	.db #0x00
	.db #0x14
	.db #0x74
	.db #0x98
	.db #0x74
	.db #0x74
	.db #0x14
	.db #0x00
	.db #0x00
	.db #0x00
	.db #0x00
	.db #0x00
	.db #0x00
	.db #0x00
	.db #0xB8
	.db #0x63
	.db #0x42
	.db #0x42
	.db #0x41
	.db #0x74
	.db #0x00
	.db #0x00
	.db #0x00
	.db #0x00
	.db #0x00
	.db #0x00
	.db #0xBC
	.db #0x98
	.db #0xDC
	.db #0xBC
	.db #0xBC
	.db #0xB8
	.db #0x74
	.db #0xBC
	.db #0x00
	.db #0x00
	.db #0x00
	.db #0x00
	.db #0x00
	.db #0x98
	.db #0x74
	.db #0xDC
	.db #0xBC
	.db #0xBC
	.db #0xB8
	.db #0x74
	.db #0x98
	.db #0x00
	.db #0x00
	.db #0x00
	.db #0x00
	.db #0x00
	.db #0x24
	.db #0x74
	.db #0x62
	.db #0x63
	.db #0x63
	.db #0x41
	.db #0x50
	.db #0x04
	.db #0x00
	.db #0x00
	.db #0x00
	.db #0x00
	.db #0x00
	.db #0x00
	.db #0x74
	.db #0xDC
	.db #0xBC
	.db #0xBC
	.db #0xB8
	.db #0x74
	.db #0x00
	.db #0x00
	.db #0x00
	.db #0x00
	.db #0x00
	.db #0x00
	.db #0x00
	.db #0x98
	.db #0x04
	.db #0x49
	.db #0x24
	.db #0x04
	.db #0x98
	.db #0x00
	.db #0x00
	.db #0x00
	.db #0x00
	.db #0x00
	.db #0x00
	.db #0xBC
	.db #0xBC
	.db #0x04
	.db #0x49
	.db #0x24
	.db #0x04
	.db #0xBC
	.db #0xBC
	.db #0x00
	.db #0x00
	.db #0x00
	.db #0x00
	.db #0x00
	.db #0x98
	.db #0xB8
	.db #0x04
	.db #0x24
	.db #0x24
	.db #0x04
	.db #0xBC
	.db #0x98
	.db #0x00
	.db #0x00
	.db #0x00
	.db #0x00
	.db #0x00
	.db #0x24
	.db #0xFC
	.db #0x74
	.db #0x24
	.db #0x24
	.db #0x74
	.db #0xFC
	.db #0x04
	.db #0x00
	.db #0x00
	.db #0x00
	.db #0x00
	.db #0x00
	.db #0x00
	.db #0x00
	.db #0x50
	.db #0x74
	.db #0x74
	.db #0x50
	.db #0x00
	.db #0x00
	.db #0x00
	.db #0x00
	.db #0x00
	.db #0x00
	.db #0x00
	.db #0x00
	.db #0x00
	.db #0x00
	.db #0x74
	.db #0x18
	.db #0x00
	.db #0x00
	.db #0x00
	.db #0x00
	.db #0x00
	.db #0x00
	.db #0x00
	.db #0x00
	.db #0x00
	.db #0x74
	.db #0x98
	.db #0x42
	.db #0x41
	.db #0x74
	.db #0x50
	.db #0x00
	.db #0x00
	.db #0x00
	.db #0x00
	.db #0x00
	.db #0x00
	.db #0x18
	.db #0x63
	.db #0x42
	.db #0x42
	.db #0xB8
	.db #0x98
	.db #0xBC
	.db #0x00
	.db #0x00
	.db #0x00
	.db #0x00
	.db #0x00
	.db #0x00
	.db #0xB8
	.db #0xDC
	.db #0xBC
	.db #0xBC
	.db #0xBC
	.db #0xB8
	.db #0x74
	.db #0x00
	.db #0x00
	.db #0x00
	.db #0x00
	.db #0x00
	.db #0x00
	.db #0x50
	.db #0x98
	.db #0xDC
	.db #0xBC
	.db #0x63
	.db #0x41
	.db #0x74
	.db #0x50
	.db #0x00
	.db #0x00
	.db #0x00
	.db #0x00
	.db #0x00
	.db #0x24
	.db #0xB8
	.db #0x62
	.db #0x63
	.db #0x42
	.db #0xB8
	.db #0x74
	.db #0x98
	.db #0x00
	.db #0x00
	.db #0x00
	.db #0x00
	.db #0x00
	.db #0x00
	.db #0x74
	.db #0x74
	.db #0xDC
	.db #0xBC
	.db #0x24
	.db #0x04
	.db #0xBC
	.db #0xBC
	.db #0x00
	.db #0x00
	.db #0x00
	.db #0x00
	.db #0x00
	.db #0x00
	.db #0x98
	.db #0x04
	.db #0x49
	.db #0x24
	.db #0x04
	.db #0x50
	.db #0x98
	.db #0x50
	.db #0x00
	.db #0x00
	.db #0x00
	.db #0x00
	.db #0x00
	.db #0xBC
	.db #0x04
	.db #0x49
	.db #0x24
	.db #0x24
	.db #0x04
	.db #0xFC
	.db #0x04
	.db #0x00
	.db #0x00
	.db #0x00
	.db #0x00
	.db #0x00
	.db #0x50
	.db #0xFC
	.db #0x04
	.db #0x24
	.db #0x24
	.db #0x74
	.db #0x50
	.db #0x00
	.db #0x00
	.db #0x00
	.db #0x00
	.db #0x00
	.db #0x00
	.db #0x24
	.db #0xB8
	.db #0x74
	.db #0x74
	.db #0x74
	.db #0x50
	.db #0x00
	.db #0x00
	.db #0x00
	.db #0x00
	.db #0x00
	.db #0x00
	.db #0x00
	.db #0xB2
	.db #0x14
	.db #0x00
	.db #0x00
	.db #0x00
	.db #0x00
	.db #0x00
	.db #0x00
	.db #0x00
	.db #0x00
	.db #0x00
	.db #0x00
	.db #0x74
	.db #0x42
	.db #0x42
	.db #0x42
	.db #0x74
	.db #0x00
	.db #0x00
	.db #0x00
	.db #0x00
	.db #0x00
	.db #0x00
	.db #0x00
	.db #0x98
	.db #0x21
	.db #0x42
	.db #0x74
	.db #0xBC
	.db #0xB8
	.db #0x63
	.db #0x00
	.db #0x00
	.db #0x00
	.db #0x00
	.db #0x00
	.db #0x1C
	.db #0xBC
	.db #0x21
	.db #0x74
	.db #0xBC
	.db #0x98
	.db #0x62
	.db #0x62
	.db #0x50
	.db #0x00
	.db #0x00
	.db #0x00
	.db #0x00
	.db #0x00
	.db #0x04
	.db #0xBC
	.db #0xB8
	.db #0x74
	.db #0x42
	.db #0x62
	.db #0xBC
	.db #0xB8
	.db #0x74
	.db #0x00
	.db #0x00
	.db #0x00
	.db #0x00
	.db #0x00
	.db #0x04
	.db #0x74
	.db #0x21
	.db #0x42
	.db #0xBC
	.db #0x49
	.db #0x04
	.db #0xB8
	.db #0x74
	.db #0x00
	.db #0x00
	.db #0x00
	.db #0x00
	.db #0x00
	.db #0x74
	.db #0xB8
	.db #0xBC
	.db #0x24
	.db #0x49
	.db #0x24
	.db #0x04
	.db #0xFC
	.db #0x50
	.db #0x00
	.db #0x00
	.db #0x00
	.db #0x00
	.db #0x00
	.db #0x74
	.db #0xBC
	.db #0x98
	.db #0x24
	.db #0x24
	.db #0x24
	.db #0x74
	.db #0x74
	.db #0x00
	.db #0x00
	.db #0x00
	.db #0x00
	.db #0x00
	.db #0x00
	.db #0x04
	.db #0xBC
	.db #0xFC
	.db #0x24
	.db #0x04
	.db #0x04
	.db #0x00
	.db #0x00
	.db #0x00
	.db #0x00
	.db #0x00
	.db #0x00
	.db #0x00
	.db #0x00
	.db #0x04
	.db #0x74
	.db #0x74
	.db #0x04
	.db #0x00
	.db #0x00
	.db #0x00
	.db #0x00
	.db #0x00
	.db #0x00
	.db #0x00
	.db #0x00
	.db #0x00
	.db #0x00
	.db #0x00
	.db #0x00
	.db #0x00
	.db #0x00
	.db #0x00
	.db #0x00
	.db #0x00
	.db #0x00
	.db #0x00
	.db #0x00
	.db #0x00
	.db #0x00
	.db #0x00
	.db #0x00
	.db #0x00
	.db #0x00
	.db #0x00
	.db #0x00
	.db #0x00
	.db #0x00
	.db #0x14
	.db #0x42
	.db #0x42
	.db #0x98
	.db #0x63
	.db #0x00
	.db #0x00
	.db #0x00
	.db #0x00
	.db #0x00
	.db #0x00
	.db #0x00
	.db #0xB2
	.db #0x74
	.db #0x42
	.db #0x42
	.db #0xDC
	.db #0x63
	.db #0xBC
	.db #0xB8
	.db #0x50
	.db #0x00
	.db #0x00
	.db #0x00
	.db #0x00
	.db #0x50
	.db #0x74
	.db #0x42
	.db #0xB8
	.db #0x62
	.db #0x62
	.db #0xDC
	.db #0x04
	.db #0x98
	.db #0x74
	.db #0xBC
	.db #0x00
	.db #0x00
	.db #0x98
	.db #0x42
	.db #0x21
	.db #0x98
	.db #0x42
	.db #0xB8
	.db #0x49
	.db #0x49
	.db #0x04
	.db #0x04
	.db #0x74
	.db #0x74
	.db #0x00
	.db #0x18
	.db #0xBC
	.db #0xB8
	.db #0x74
	.db #0x21
	.db #0xB8
	.db #0x24
	.db #0x24
	.db #0x24
	.db #0x24
	.db #0x04
	.db #0x50
	.db #0x00
	.db #0x50
	.db #0x04
	.db #0x74
	.db #0x98
	.db #0x98
	.db #0xBC
	.db #0xBC
	.db #0xBC
	.db #0x24
	.db #0x24
	.db #0xBC
	.db #0x00
	.db #0x00
	.db #0x00
	.db #0x04
	.db #0x04
	.db #0x50
	.db #0x74
	.db #0x74
	.db #0x04
	.db #0x74
	.db #0x98
	.db #0xFC
	.db #0x74
	.db #0x00
	.db #0x00
	.db #0x00
	.db #0x00
	.db #0x00
	.db #0x00
	.db #0x00
	.db #0x00
	.db #0x04
	.db #0x04
	.db #0xB8
	.db #0x50
	.db #0x00
	.db #0x00
	.db #0x00
	.db #0x00
	.db #0x00
	.db #0x00
	.db #0x00
	.db #0x00
	.db #0x00
	.db #0x00
	.db #0x00
	.db #0x00
	.db #0x00
	.db #0x00
	.db #0x00
	.db #0x00
	.db #0x00
	.db #0x00
	.db #0x00
	.db #0x00
	.db #0x00
	.db #0x00
	.db #0x00
	.db #0x00
	.db #0x00
	.db #0x00
	.db #0x00
	.db #0x00
_car3:
	.db #0x00
	.db #0x00
	.db #0x00
	.db #0x00
	.db #0x00
	.db #0x00
	.db #0x00
	.db #0x00
	.db #0x00
	.db #0x00
	.db #0x00
	.db #0x00
	.db #0x00
	.db #0x00
	.db #0x00
	.db #0x00
	.db #0x00
	.db #0x00
	.db #0x00
	.db #0x00
	.db #0x00
	.db #0x00
	.db #0x00
	.db #0x00
	.db #0x00
	.db #0x00
	.db #0x00
	.db #0x14
	.db #0x08
	.db #0x0C
	.db #0x65
	.db #0x14
	.db #0x14
	.db #0x65
	.db #0x10
	.db #0x10
	.db #0xB8
	.db #0x00
	.db #0x00
	.db #0x00
	.db #0x14
	.db #0x20
	.db #0x14
	.db #0xAE
	.db #0x1C
	.db #0x1C
	.db #0xAE
	.db #0x14
	.db #0x14
	.db #0x14
	.db #0x04
	.db #0x00
	.db #0x00
	.db #0x1C
	.db #0x20
	.db #0x1C
	.db #0x14
	.db #0x1C
	.db #0x1C
	.db #0xD2
	.db #0x14
	.db #0x18
	.db #0x1C
	.db #0x10
	.db #0x00
	.db #0x00
	.db #0x0C
	.db #0x14
	.db #0x14
	.db #0x14
	.db #0x14
	.db #0x1C
	.db #0x14
	.db #0x10
	.db #0x14
	.db #0x14
	.db #0x14
	.db #0x00
	.db #0x00
	.db #0x9C
	.db #0x18
	.db #0x1C
	.db #0x14
	.db #0x14
	.db #0x14
	.db #0x14
	.db #0x1C
	.db #0x18
	.db #0xFC
	.db #0x18
	.db #0x00
	.db #0x00
	.db #0x18
	.db #0x14
	.db #0x24
	.db #0x24
	.db #0x0C
	.db #0x10
	.db #0x0C
	.db #0x24
	.db #0x24
	.db #0x18
	.db #0x04
	.db #0x00
	.db #0x00
	.db #0x00
	.db #0x00
	.db #0x04
	.db #0x04
	.db #0x00
	.db #0x00
	.db #0x00
	.db #0x04
	.db #0x04
	.db #0x00
	.db #0x00
	.db #0x00
	.db #0x00
	.db #0x00
	.db #0x00
	.db #0x00
	.db #0x00
	.db #0x00
	.db #0x00
	.db #0x00
	.db #0x00
	.db #0x00
	.db #0x00
	.db #0x00
	.db #0x00
	.db #0x00
	.db #0x00
	.db #0x00
	.db #0x00
	.db #0x00
	.db #0x00
	.db #0x00
	.db #0x00
	.db #0x00
	.db #0x00
	.db #0x00
	.db #0x00
	.db #0x00
	.db #0x00
	.db #0x00
	.db #0x00
	.db #0x00
	.db #0x00
	.db #0x00
	.db #0x00
	.db #0x00
	.db #0x00
	.db #0x00
	.db #0x00
	.db #0x00
	.db #0x00
	.db #0x00
	.db #0x00
	.db #0x00
	.db #0x00
	.db #0x00
	.db #0x00
	.db #0x65
	.db #0x10
	.db #0x10
	.db #0xB8
	.db #0x04
	.db #0x00
	.db #0x00
	.db #0x00
	.db #0x00
	.db #0x00
	.db #0x65
	.db #0x14
	.db #0x14
	.db #0xAE
	.db #0x14
	.db #0x14
	.db #0x14
	.db #0x10
	.db #0x0C
	.db #0x00
	.db #0x00
	.db #0x08
	.db #0x14
	.db #0xAE
	.db #0x1C
	.db #0x1C
	.db #0xD2
	.db #0x14
	.db #0x18
	.db #0x1C
	.db #0x14
	.db #0x0C
	.db #0x00
	.db #0x00
	.db #0x14
	.db #0x20
	.db #0x1C
	.db #0x14
	.db #0x1C
	.db #0x1C
	.db #0x14
	.db #0x10
	.db #0x14
	.db #0xFC
	.db #0x18
	.db #0x00
	.db #0x00
	.db #0x1C
	.db #0x14
	.db #0x14
	.db #0x14
	.db #0x14
	.db #0x14
	.db #0x14
	.db #0x1C
	.db #0x18
	.db #0x18
	.db #0x04
	.db #0x00
	.db #0x00
	.db #0x0C
	.db #0x18
	.db #0x1C
	.db #0x14
	.db #0x14
	.db #0x10
	.db #0x0C
	.db #0x24
	.db #0x24
	.db #0x04
	.db #0x00
	.db #0x00
	.db #0x00
	.db #0x9C
	.db #0x14
	.db #0x24
	.db #0x24
	.db #0x0C
	.db #0x00
	.db #0x00
	.db #0x00
	.db #0x04
	.db #0x04
	.db #0x00
	.db #0x00
	.db #0x00
	.db #0x00
	.db #0x00
	.db #0x00
	.db #0x04
	.db #0x04
	.db #0x00
	.db #0x00
	.db #0x00
	.db #0x00
	.db #0x00
	.db #0x00
	.db #0x00
	.db #0x00
	.db #0x00
	.db #0x00
	.db #0x00
	.db #0x00
	.db #0x00
	.db #0x00
	.db #0x00
	.db #0x00
	.db #0x00
	.db #0x00
	.db #0x00
	.db #0x00
	.db #0x00
	.db #0x00
	.db #0x00
	.db #0x00
	.db #0x00
	.db #0x00
	.db #0x00
	.db #0x00
	.db #0x00
	.db #0x00
	.db #0x00
	.db #0x00
	.db #0x00
	.db #0x00
	.db #0x00
	.db #0x00
	.db #0x00
	.db #0x00
	.db #0x00
	.db #0x00
	.db #0x00
	.db #0x00
	.db #0x00
	.db #0x00
	.db #0x00
	.db #0x00
	.db #0x00
	.db #0x00
	.db #0x00
	.db #0x00
	.db #0x00
	.db #0x00
	.db #0x0C
	.db #0x10
	.db #0xB8
	.db #0x24
	.db #0x00
	.db #0x00
	.db #0x00
	.db #0x00
	.db #0x00
	.db #0x00
	.db #0x00
	.db #0x0C
	.db #0x8A
	.db #0x18
	.db #0x10
	.db #0x14
	.db #0x0C
	.db #0x0C
	.db #0x00
	.db #0x00
	.db #0x00
	.db #0x00
	.db #0x00
	.db #0x0C
	.db #0x10
	.db #0x14
	.db #0xB2
	.db #0x10
	.db #0x14
	.db #0x14
	.db #0x0C
	.db #0x00
	.db #0x00
	.db #0x00
	.db #0x00
	.db #0x08
	.db #0xB2
	.db #0x14
	.db #0x14
	.db #0x8A
	.db #0x14
	.db #0x18
	.db #0x14
	.db #0xBC
	.db #0x24
	.db #0x00
	.db #0x00
	.db #0x18
	.db #0x20
	.db #0x14
	.db #0xB2
	.db #0x10
	.db #0x10
	.db #0x14
	.db #0x1C
	.db #0x24
	.db #0x04
	.db #0x00
	.db #0x00
	.db #0x00
	.db #0x18
	.db #0x0C
	.db #0x20
	.db #0x1C
	.db #0x10
	.db #0x14
	.db #0x14
	.db #0x0C
	.db #0x04
	.db #0x04
	.db #0x00
	.db #0x00
	.db #0x00
	.db #0x00
	.db #0x18
	.db #0x0C
	.db #0x10
	.db #0x14
	.db #0x10
	.db #0x0C
	.db #0x00
	.db #0x00
	.db #0x00
	.db #0x00
	.db #0x00
	.db #0x00
	.db #0x00
	.db #0x9C
	.db #0x18
	.db #0x0C
	.db #0x24
	.db #0x04
	.db #0x00
	.db #0x00
	.db #0x00
	.db #0x00
	.db #0x00
	.db #0x00
	.db #0x00
	.db #0x00
	.db #0x00
	.db #0x00
	.db #0x04
	.db #0x04
	.db #0x00
	.db #0x00
	.db #0x00
	.db #0x00
	.db #0x00
	.db #0x00
	.db #0x00
	.db #0x00
	.db #0x00
	.db #0x00
	.db #0x00
	.db #0x00
	.db #0x00
	.db #0x00
	.db #0x00
	.db #0x00
	.db #0x00
	.db #0x00
	.db #0x00
	.db #0x00
	.db #0x00
	.db #0x00
	.db #0x00
	.db #0x00
	.db #0x98
	.db #0x10
	.db #0x0C
	.db #0x0C
	.db #0x00
	.db #0x00
	.db #0x00
	.db #0x00
	.db #0x00
	.db #0x00
	.db #0x00
	.db #0x00
	.db #0x10
	.db #0x18
	.db #0x14
	.db #0x14
	.db #0x14
	.db #0x0C
	.db #0x00
	.db #0x00
	.db #0x00
	.db #0x00
	.db #0x00
	.db #0x00
	.db #0x00
	.db #0x08
	.db #0x8A
	.db #0x14
	.db #0x14
	.db #0x18
	.db #0x10
	.db #0x98
	.db #0x00
	.db #0x00
	.db #0x00
	.db #0x00
	.db #0x00
	.db #0x08
	.db #0x0C
	.db #0x14
	.db #0xD6
	.db #0xB2
	.db #0x8A
	.db #0x1C
	.db #0x10
	.db #0x00
	.db #0x00
	.db #0x00
	.db #0x00
	.db #0x00
	.db #0x0C
	.db #0x10
	.db #0x14
	.db #0x18
	.db #0x1C
	.db #0x14
	.db #0x08
	.db #0x04
	.db #0x00
	.db #0x00
	.db #0x00
	.db #0x00
	.db #0x14
	.db #0x0C
	.db #0x14
	.db #0xB2
	.db #0x1C
	.db #0x14
	.db #0x14
	.db #0x08
	.db #0x04
	.db #0x00
	.db #0x00
	.db #0x00
	.db #0x00
	.db #0x04
	.db #0x10
	.db #0x14
	.db #0x10
	.db #0xB2
	.db #0x14
	.db #0x0C
	.db #0x00
	.db #0x00
	.db #0x00
	.db #0x00
	.db #0x00
	.db #0x00
	.db #0x04
	.db #0x10
	.db #0x20
	.db #0x10
	.db #0x0C
	.db #0x14
	.db #0x0C
	.db #0x14
	.db #0x00
	.db #0x00
	.db #0x00
	.db #0x00
	.db #0x00
	.db #0x00
	.db #0x18
	.db #0x1C
	.db #0x20
	.db #0x10
	.db #0x9C
	.db #0x14
	.db #0x04
	.db #0x00
	.db #0x00
	.db #0x00
	.db #0x00
	.db #0x00
	.db #0x00
	.db #0x00
	.db #0x00
	.db #0x1C
	.db #0x18
	.db #0x00
	.db #0x04
	.db #0x00
	.db #0x00
	.db #0x00
	.db #0x00
	.db #0x00
	.db #0x00
	.db #0x00
	.db #0x00
	.db #0x00
	.db #0x00
	.db #0x00
	.db #0x00
	.db #0x00
	.db #0x00
	.db #0x00
	.db #0x00
	.db #0x00
	.db #0x00
	.db #0x00
	.db #0x00
	.db #0x00
	.db #0x00
	.db #0x0C
	.db #0x0C
	.db #0x0C
	.db #0x0C
	.db #0x00
	.db #0x00
	.db #0x00
	.db #0x00
	.db #0x00
	.db #0x00
	.db #0x00
	.db #0x00
	.db #0x98
	.db #0x10
	.db #0x14
	.db #0x14
	.db #0x10
	.db #0x98
	.db #0x00
	.db #0x00
	.db #0x00
	.db #0x00
	.db #0x00
	.db #0x00
	.db #0x10
	.db #0x18
	.db #0x14
	.db #0x14
	.db #0x18
	.db #0x14
	.db #0x1C
	.db #0x10
	.db #0x00
	.db #0x00
	.db #0x00
	.db #0x00
	.db #0x00
	.db #0x0C
	.db #0x08
	.db #0x8A
	.db #0xD6
	.db #0xB2
	.db #0x8A
	.db #0x08
	.db #0x0C
	.db #0x00
	.db #0x00
	.db #0x00
	.db #0x00
	.db #0x00
	.db #0x04
	.db #0x08
	.db #0x14
	.db #0x18
	.db #0x1C
	.db #0x14
	.db #0x08
	.db #0x04
	.db #0x00
	.db #0x00
	.db #0x00
	.db #0x00
	.db #0x00
	.db #0x00
	.db #0x0C
	.db #0x14
	.db #0x18
	.db #0x1C
	.db #0x14
	.db #0x0C
	.db #0x00
	.db #0x00
	.db #0x00
	.db #0x00
	.db #0x00
	.db #0x00
	.db #0x14
	.db #0x0C
	.db #0x14
	.db #0xB2
	.db #0xB2
	.db #0x14
	.db #0x0C
	.db #0x14
	.db #0x00
	.db #0x00
	.db #0x00
	.db #0x00
	.db #0x00
	.db #0x14
	.db #0x10
	.db #0x14
	.db #0x10
	.db #0x0C
	.db #0x14
	.db #0x10
	.db #0x14
	.db #0x00
	.db #0x00
	.db #0x00
	.db #0x00
	.db #0x00
	.db #0x04
	.db #0x9C
	.db #0x10
	.db #0x20
	.db #0x20
	.db #0x10
	.db #0x9C
	.db #0x04
	.db #0x00
	.db #0x00
	.db #0x00
	.db #0x00
	.db #0x00
	.db #0x00
	.db #0x00
	.db #0x18
	.db #0x1C
	.db #0x1C
	.db #0x18
	.db #0x00
	.db #0x00
	.db #0x00
	.db #0x00
	.db #0x00
	.db #0x00
	.db #0x00
	.db #0x00
	.db #0x00
	.db #0x00
	.db #0x00
	.db #0x00
	.db #0x00
	.db #0x00
	.db #0x00
	.db #0x00
	.db #0x00
	.db #0x00
	.db #0x00
	.db #0x00
	.db #0x00
	.db #0x00
	.db #0x00
	.db #0x0C
	.db #0x0C
	.db #0x0C
	.db #0x24
	.db #0x00
	.db #0x00
	.db #0x00
	.db #0x00
	.db #0x00
	.db #0x00
	.db #0x00
	.db #0x24
	.db #0x0C
	.db #0x0C
	.db #0x14
	.db #0x10
	.db #0x98
	.db #0x00
	.db #0x00
	.db #0x00
	.db #0x00
	.db #0x00
	.db #0x00
	.db #0x00
	.db #0x98
	.db #0x10
	.db #0x14
	.db #0x18
	.db #0x14
	.db #0x1C
	.db #0x10
	.db #0x00
	.db #0x00
	.db #0x00
	.db #0x00
	.db #0x00
	.db #0x10
	.db #0x18
	.db #0x14
	.db #0x14
	.db #0xB2
	.db #0x8A
	.db #0x08
	.db #0x0C
	.db #0x00
	.db #0x00
	.db #0x00
	.db #0x00
	.db #0x00
	.db #0x00
	.db #0x0C
	.db #0x08
	.db #0x8A
	.db #0x18
	.db #0x1C
	.db #0x14
	.db #0x08
	.db #0x00
	.db #0x00
	.db #0x00
	.db #0x00
	.db #0x00
	.db #0x00
	.db #0x04
	.db #0x08
	.db #0x14
	.db #0x18
	.db #0x1C
	.db #0x14
	.db #0x0C
	.db #0x14
	.db #0x00
	.db #0x00
	.db #0x00
	.db #0x00
	.db #0x00
	.db #0x00
	.db #0x0C
	.db #0x14
	.db #0xB2
	.db #0xB2
	.db #0x14
	.db #0x0C
	.db #0x14
	.db #0x00
	.db #0x00
	.db #0x00
	.db #0x00
	.db #0x00
	.db #0x14
	.db #0x0C
	.db #0x14
	.db #0x10
	.db #0x0C
	.db #0x14
	.db #0x10
	.db #0x04
	.db #0x00
	.db #0x00
	.db #0x00
	.db #0x00
	.db #0x00
	.db #0x00
	.db #0x14
	.db #0x10
	.db #0x10
	.db #0x20
	.db #0x20
	.db #0x10
	.db #0x9C
	.db #0x00
	.db #0x00
	.db #0x00
	.db #0x00
	.db #0x00
	.db #0x00
	.db #0x04
	.db #0x9C
	.db #0x18
	.db #0x1C
	.db #0x1C
	.db #0x18
	.db #0x00
	.db #0x00
	.db #0x00
	.db #0x00
	.db #0x00
	.db #0x00
	.db #0x00
	.db #0x00
	.db #0x00
	.db #0x00
	.db #0x00
	.db #0x00
	.db #0x00
	.db #0x00
	.db #0x00
	.db #0x00
	.db #0x00
	.db #0x00
	.db #0x00
	.db #0x00
	.db #0x00
	.db #0x00
	.db #0x00
	.db #0x00
	.db #0x00
	.db #0x00
	.db #0x00
	.db #0x00
	.db #0x00
	.db #0x00
	.db #0x00
	.db #0x00
	.db #0x24
	.db #0xB8
	.db #0x10
	.db #0x0C
	.db #0x00
	.db #0x00
	.db #0x00
	.db #0x00
	.db #0x00
	.db #0x00
	.db #0x00
	.db #0x00
	.db #0x00
	.db #0x0C
	.db #0x14
	.db #0x10
	.db #0x18
	.db #0x8A
	.db #0x0C
	.db #0x00
	.db #0x00
	.db #0x00
	.db #0x00
	.db #0x00
	.db #0x00
	.db #0x0C
	.db #0x14
	.db #0x14
	.db #0x10
	.db #0xB2
	.db #0x14
	.db #0x10
	.db #0x0C
	.db #0x00
	.db #0x00
	.db #0x00
	.db #0x00
	.db #0x24
	.db #0xBC
	.db #0x14
	.db #0x18
	.db #0x14
	.db #0x8A
	.db #0x14
	.db #0x14
	.db #0xB2
	.db #0x08
	.db #0x00
	.db #0x00
	.db #0x00
	.db #0x00
	.db #0x24
	.db #0x24
	.db #0x1C
	.db #0x14
	.db #0x10
	.db #0x10
	.db #0xB2
	.db #0x14
	.db #0x20
	.db #0x18
	.db #0x00
	.db #0x00
	.db #0x00
	.db #0x04
	.db #0x04
	.db #0x0C
	.db #0x14
	.db #0x14
	.db #0x10
	.db #0x1C
	.db #0x20
	.db #0x0C
	.db #0x18
	.db #0x00
	.db #0x00
	.db #0x00
	.db #0x00
	.db #0x00
	.db #0x00
	.db #0x0C
	.db #0x10
	.db #0x14
	.db #0x10
	.db #0x0C
	.db #0x18
	.db #0x00
	.db #0x00
	.db #0x00
	.db #0x00
	.db #0x00
	.db #0x00
	.db #0x00
	.db #0x00
	.db #0x04
	.db #0x04
	.db #0x0C
	.db #0x18
	.db #0x9C
	.db #0x00
	.db #0x00
	.db #0x00
	.db #0x00
	.db #0x00
	.db #0x00
	.db #0x00
	.db #0x00
	.db #0x00
	.db #0x04
	.db #0x04
	.db #0x00
	.db #0x00
	.db #0x00
	.db #0x00
	.db #0x00
	.db #0x00
	.db #0x00
	.db #0x00
	.db #0x00
	.db #0x00
	.db #0x00
	.db #0x00
	.db #0x00
	.db #0x00
	.db #0x00
	.db #0x00
	.db #0x00
	.db #0x00
	.db #0x00
	.db #0x00
	.db #0x00
	.db #0x00
	.db #0x00
	.db #0x00
	.db #0x00
	.db #0x00
	.db #0x00
	.db #0x00
	.db #0x00
	.db #0x00
	.db #0x00
	.db #0x00
	.db #0x00
	.db #0x98
	.db #0x0C
	.db #0x00
	.db #0x00
	.db #0x00
	.db #0x00
	.db #0x00
	.db #0x00
	.db #0x00
	.db #0x00
	.db #0x00
	.db #0x00
	.db #0x04
	.db #0x14
	.db #0x10
	.db #0x10
	.db #0x65
	.db #0x10
	.db #0x0C
	.db #0x00
	.db #0x00
	.db #0x00
	.db #0x00
	.db #0x00
	.db #0x10
	.db #0x1C
	.db #0x18
	.db #0x14
	.db #0xAE
	.db #0x1C
	.db #0x1C
	.db #0x65
	.db #0x0C
	.db #0x08
	.db #0x14
	.db #0x00
	.db #0x00
	.db #0x14
	.db #0x14
	.db #0x14
	.db #0x14
	.db #0xD2
	.db #0x1C
	.db #0x1C
	.db #0xAE
	.db #0x14
	.db #0x20
	.db #0x14
	.db #0x00
	.db #0x00
	.db #0x18
	.db #0xFC
	.db #0x18
	.db #0x10
	.db #0x14
	.db #0x1C
	.db #0x14
	.db #0x14
	.db #0x1C
	.db #0x20
	.db #0x1C
	.db #0x00
	.db #0x00
	.db #0x04
	.db #0x18
	.db #0x24
	.db #0x1C
	.db #0x14
	.db #0x14
	.db #0x14
	.db #0x14
	.db #0x14
	.db #0x14
	.db #0x0C
	.db #0x00
	.db #0x00
	.db #0x00
	.db #0x04
	.db #0x04
	.db #0x0C
	.db #0x10
	.db #0x0C
	.db #0x24
	.db #0x1C
	.db #0x18
	.db #0x9C
	.db #0x00
	.db #0x00
	.db #0x00
	.db #0x00
	.db #0x00
	.db #0x00
	.db #0x00
	.db #0x00
	.db #0x00
	.db #0x04
	.db #0x24
	.db #0x14
	.db #0x18
	.db #0x00
	.db #0x00
	.db #0x00
	.db #0x00
	.db #0x00
	.db #0x00
	.db #0x00
	.db #0x00
	.db #0x00
	.db #0x00
	.db #0x04
	.db #0x00
	.db #0x00
	.db #0x00
	.db #0x00
	.db #0x00
	.db #0x00
	.db #0x00
	.db #0x00
	.db #0x00
	.db #0x00
	.db #0x00
	.db #0x00
	.db #0x00
	.db #0x00
	.db #0x00
	.db #0x00
	.db #0x00
	.db #0x00
	.db #0x00
	.db #0x00
	.db #0x00
	.db #0x00
	.db #0x00
	.db #0x00
	.db #0x00
	.db #0x00
	.db #0x00
	.db #0x00
	.db #0x00
	.db #0x00
	.db #0x00
	.db #0x00
	.db #0x00
	.db #0x00
	.db #0x00
	.db #0x00
	.db #0x00
	.db #0x00
	.db #0x00
	.db #0x00
	.db #0x00
	.db #0x00
	.db #0x00
	.db #0x00
	.db #0x00
	.db #0xB8
	.db #0x10
	.db #0x10
	.db #0x65
	.db #0x14
	.db #0x14
	.db #0x65
	.db #0x0C
	.db #0x08
	.db #0x14
	.db #0x00
	.db #0x00
	.db #0x04
	.db #0x14
	.db #0x14
	.db #0x14
	.db #0xAE
	.db #0x1C
	.db #0x1C
	.db #0xAE
	.db #0x14
	.db #0x20
	.db #0x14
	.db #0x00
	.db #0x00
	.db #0x10
	.db #0x1C
	.db #0x18
	.db #0x14
	.db #0xD2
	.db #0x1C
	.db #0x1C
	.db #0x14
	.db #0x1C
	.db #0x20
	.db #0x1C
	.db #0x00
	.db #0x00
	.db #0x14
	.db #0x14
	.db #0x14
	.db #0x10
	.db #0x14
	.db #0x1C
	.db #0x14
	.db #0x14
	.db #0x14
	.db #0x14
	.db #0x0C
	.db #0x00
	.db #0x00
	.db #0x18
	.db #0xFC
	.db #0x18
	.db #0x1C
	.db #0x14
	.db #0x14
	.db #0x14
	.db #0x14
	.db #0x1C
	.db #0x18
	.db #0x9C
	.db #0x00
	.db #0x00
	.db #0x04
	.db #0x18
	.db #0x24
	.db #0x24
	.db #0x0C
	.db #0x10
	.db #0x0C
	.db #0x24
	.db #0x24
	.db #0x14
	.db #0x18
	.db #0x00
	.db #0x00
	.db #0x00
	.db #0x00
	.db #0x04
	.db #0x04
	.db #0x00
	.db #0x00
	.db #0x00
	.db #0x04
	.db #0x04
	.db #0x00
	.db #0x00
	.db #0x00
	.db #0x00
	.db #0x00
	.db #0x00
	.db #0x00
	.db #0x00
	.db #0x00
	.db #0x00
	.db #0x00
	.db #0x00
	.db #0x00
	.db #0x00
	.db #0x00
	.db #0x00
	.db #0x00
	.db #0x00
	.db #0x00
	.db #0x00
	.db #0x00
	.db #0x00
	.db #0x00
	.db #0x00
	.db #0x00
	.db #0x00
	.db #0x00
	.db #0x00
	.db #0x00
	.db #0x00
	.db #0x00
	.db #0x00
	.db #0x00
	.db #0x00
	.db #0x00
	.db #0x00
	.db #0x00
	.db #0x00
	.db #0x00
	.db #0x00
	.db #0x00
	.db #0x00
	.db #0x00
	.db #0x00
	.db #0x00
	.db #0x00
	.db #0x00
	.db #0x00
	.db #0x00
	.db #0x08
	.db #0x08
	.db #0x14
	.db #0x5C
	.db #0x00
	.db #0x00
	.db #0x00
	.db #0x00
	.db #0x00
	.db #0x00
	.db #0x65
	.db #0x14
	.db #0x14
	.db #0x65
	.db #0x0C
	.db #0x20
	.db #0x14
	.db #0x00
	.db #0x00
	.db #0x00
	.db #0xB8
	.db #0x10
	.db #0x10
	.db #0xAE
	.db #0x1C
	.db #0x1C
	.db #0xAE
	.db #0x14
	.db #0x20
	.db #0x1C
	.db #0x0C
	.db #0x00
	.db #0x04
	.db #0x14
	.db #0x14
	.db #0x14
	.db #0xD2
	.db #0x1C
	.db #0x1C
	.db #0x14
	.db #0x1C
	.db #0x14
	.db #0x0C
	.db #0x0C
	.db #0x00
	.db #0x00
	.db #0x10
	.db #0x1C
	.db #0x18
	.db #0x10
	.db #0x14
	.db #0x1C
	.db #0x14
	.db #0x14
	.db #0x1C
	.db #0x18
	.db #0x9C
	.db #0x00
	.db #0x00
	.db #0x14
	.db #0x14
	.db #0x14
	.db #0x1C
	.db #0x14
	.db #0x14
	.db #0x14
	.db #0x04
	.db #0x24
	.db #0x14
	.db #0x18
	.db #0x00
	.db #0x00
	.db #0x18
	.db #0xFC
	.db #0x18
	.db #0x0C
	.db #0x0C
	.db #0x10
	.db #0x0C
	.db #0x04
	.db #0x04
	.db #0x00
	.db #0x00
	.db #0x00
	.db #0x00
	.db #0x04
	.db #0x18
	.db #0x24
	.db #0x04
	.db #0x0C
	.db #0x00
	.db #0x00
	.db #0x00
	.db #0x00
	.db #0x00
	.db #0x00
	.db #0x00
	.db #0x00
	.db #0x00
	.db #0x00
	.db #0x04
	.db #0x04
	.db #0x00
	.db #0x00
	.db #0x00
	.db #0x00
	.db #0x00
	.db #0x00
	.db #0x00
	.db #0x00
	.db #0x00
	.db #0x00
	.db #0x00
	.db #0x00
	.db #0x00
	.db #0x00
	.db #0x00
	.db #0x00
	.db #0x00
	.db #0x00
	.db #0x00
	.db #0x00
	.db #0x00
	.db #0x00
	.db #0x00
	.db #0x00
	.db #0x00
	.db #0x00
	.db #0x00
	.db #0x00
	.db #0x10
	.db #0x18
	.db #0x00
	.db #0x00
	.db #0x00
	.db #0x00
	.db #0x00
	.db #0x00
	.db #0x00
	.db #0x00
	.db #0x00
	.db #0x00
	.db #0x0C
	.db #0x14
	.db #0x0C
	.db #0x1C
	.db #0x00
	.db #0x00
	.db #0x00
	.db #0x00
	.db #0x00
	.db #0x00
	.db #0x00
	.db #0x0C
	.db #0x0C
	.db #0x14
	.db #0x20
	.db #0x0C
	.db #0x0C
	.db #0x18
	.db #0x00
	.db #0x00
	.db #0x00
	.db #0x00
	.db #0x00
	.db #0x0C
	.db #0x0C
	.db #0x14
	.db #0x18
	.db #0xB2
	.db #0x20
	.db #0x10
	.db #0x10
	.db #0x10
	.db #0x00
	.db #0x00
	.db #0x00
	.db #0x14
	.db #0x14
	.db #0x8A
	.db #0x18
	.db #0x18
	.db #0x1C
	.db #0x14
	.db #0x0C
	.db #0x14
	.db #0x10
	.db #0x00
	.db #0x00
	.db #0x00
	.db #0x18
	.db #0x14
	.db #0x18
	.db #0xD6
	.db #0x1C
	.db #0x14
	.db #0x0C
	.db #0x10
	.db #0x24
	.db #0x00
	.db #0x00
	.db #0x00
	.db #0xFC
	.db #0x10
	.db #0x14
	.db #0x18
	.db #0x1C
	.db #0x8A
	.db #0x0C
	.db #0x0C
	.db #0x24
	.db #0x04
	.db #0x00
	.db #0x00
	.db #0x00
	.db #0x04
	.db #0x10
	.db #0x14
	.db #0x18
	.db #0x14
	.db #0x1C
	.db #0x14
	.db #0x00
	.db #0x00
	.db #0x00
	.db #0x00
	.db #0x00
	.db #0x00
	.db #0x00
	.db #0x10
	.db #0x10
	.db #0x10
	.db #0x14
	.db #0x1C
	.db #0x14
	.db #0x00
	.db #0x00
	.db #0x00
	.db #0x00
	.db #0x00
	.db #0x00
	.db #0x00
	.db #0x00
	.db #0x0C
	.db #0x04
	.db #0xFC
	.db #0x24
	.db #0x00
	.db #0x00
	.db #0x00
	.db #0x00
	.db #0x00
	.db #0x00
	.db #0x00
	.db #0x00
	.db #0x00
	.db #0x00
	.db #0x00
	.db #0x04
	.db #0x04
	.db #0x00
	.db #0x00
	.db #0x00
	.db #0x00
	.db #0x00
	.db #0x00
	.db #0x00
	.db #0x00
	.db #0x00
	.db #0x00
	.db #0x10
	.db #0x18
	.db #0x1C
	.db #0x1C
	.db #0x18
	.db #0x00
	.db #0x00
	.db #0x00
	.db #0x00
	.db #0x00
	.db #0x00
	.db #0x00
	.db #0x14
	.db #0x0C
	.db #0x14
	.db #0x0C
	.db #0x0C
	.db #0x14
	.db #0x00
	.db #0x00
	.db #0x00
	.db #0x00
	.db #0x00
	.db #0x00
	.db #0x00
	.db #0x14
	.db #0x10
	.db #0x10
	.db #0x20
	.db #0x20
	.db #0x10
	.db #0x10
	.db #0x00
	.db #0x00
	.db #0x00
	.db #0x00
	.db #0x00
	.db #0x00
	.db #0x04
	.db #0x0C
	.db #0x14
	.db #0xB2
	.db #0xB2
	.db #0x14
	.db #0x0C
	.db #0x14
	.db #0x00
	.db #0x00
	.db #0x00
	.db #0x00
	.db #0x00
	.db #0x0C
	.db #0x14
	.db #0x18
	.db #0x1C
	.db #0x14
	.db #0x0C
	.db #0x14
	.db #0x04
	.db #0x00
	.db #0x00
	.db #0x00
	.db #0x00
	.db #0x0C
	.db #0x14
	.db #0x8A
	.db #0x18
	.db #0x1C
	.db #0x14
	.db #0x0C
	.db #0x04
	.db #0x00
	.db #0x00
	.db #0x00
	.db #0x00
	.db #0x00
	.db #0x14
	.db #0x18
	.db #0x14
	.db #0xD6
	.db #0xB2
	.db #0x8A
	.db #0x14
	.db #0x00
	.db #0x00
	.db #0x00
	.db #0x00
	.db #0x00
	.db #0x00
	.db #0x04
	.db #0x18
	.db #0x14
	.db #0x18
	.db #0x1C
	.db #0x14
	.db #0x1C
	.db #0x0C
	.db #0x00
	.db #0x00
	.db #0x00
	.db #0x00
	.db #0x00
	.db #0xFC
	.db #0x10
	.db #0x14
	.db #0x18
	.db #0x14
	.db #0x1C
	.db #0x04
	.db #0x00
	.db #0x00
	.db #0x00
	.db #0x00
	.db #0x00
	.db #0x00
	.db #0x04
	.db #0x0C
	.db #0x10
	.db #0x14
	.db #0x10
	.db #0xFC
	.db #0x04
	.db #0x00
	.db #0x00
	.db #0x00
	.db #0x00
	.db #0x00
	.db #0x00
	.db #0x00
	.db #0x00
	.db #0x00
	.db #0x10
	.db #0x0C
	.db #0x04
	.db #0x00
	.db #0x00
	.db #0x00
	.db #0x00
	.db #0x00
	.db #0x00
	.db #0x00
	.db #0x00
	.db #0x00
	.db #0x18
	.db #0x1C
	.db #0x1C
	.db #0x18
	.db #0x00
	.db #0x00
	.db #0x00
	.db #0x00
	.db #0x00
	.db #0x00
	.db #0x00
	.db #0x00
	.db #0x10
	.db #0x14
	.db #0x0C
	.db #0x0C
	.db #0x14
	.db #0x10
	.db #0x00
	.db #0x00
	.db #0x00
	.db #0x00
	.db #0x00
	.db #0x00
	.db #0x14
	.db #0x0C
	.db #0x10
	.db #0x20
	.db #0x20
	.db #0x10
	.db #0x0C
	.db #0x14
	.db #0x00
	.db #0x00
	.db #0x00
	.db #0x00
	.db #0x00
	.db #0x14
	.db #0x10
	.db #0x14
	.db #0xB2
	.db #0xB2
	.db #0x14
	.db #0x10
	.db #0x14
	.db #0x00
	.db #0x00
	.db #0x00
	.db #0x00
	.db #0x00
	.db #0x04
	.db #0x0C
	.db #0x14
	.db #0x18
	.db #0x1C
	.db #0x14
	.db #0x0C
	.db #0x04
	.db #0x00
	.db #0x00
	.db #0x00
	.db #0x00
	.db #0x00
	.db #0x00
	.db #0x0C
	.db #0x14
	.db #0x18
	.db #0x1C
	.db #0x14
	.db #0x0C
	.db #0x00
	.db #0x00
	.db #0x00
	.db #0x00
	.db #0x00
	.db #0x00
	.db #0x0C
	.db #0x14
	.db #0x8A
	.db #0xD6
	.db #0xB2
	.db #0x8A
	.db #0x14
	.db #0x0C
	.db #0x00
	.db #0x00
	.db #0x00
	.db #0x00
	.db #0x00
	.db #0x14
	.db #0x18
	.db #0x14
	.db #0x18
	.db #0x1C
	.db #0x14
	.db #0x1C
	.db #0x14
	.db #0x00
	.db #0x00
	.db #0x00
	.db #0x00
	.db #0x00
	.db #0x04
	.db #0x18
	.db #0x14
	.db #0x14
	.db #0x18
	.db #0x14
	.db #0x1C
	.db #0x04
	.db #0x00
	.db #0x00
	.db #0x00
	.db #0x00
	.db #0x00
	.db #0x00
	.db #0xFC
	.db #0x10
	.db #0x14
	.db #0x14
	.db #0x10
	.db #0xFC
	.db #0x00
	.db #0x00
	.db #0x00
	.db #0x00
	.db #0x00
	.db #0x00
	.db #0x00
	.db #0x04
	.db #0x0C
	.db #0x10
	.db #0x10
	.db #0x0C
	.db #0x04
	.db #0x00
	.db #0x00
	.db #0x00
	.db #0x00
	.db #0x00
	.db #0x00
	.db #0x00
	.db #0x00
	.db #0x18
	.db #0x1C
	.db #0x1C
	.db #0x18
	.db #0x10
	.db #0x00
	.db #0x00
	.db #0x00
	.db #0x00
	.db #0x00
	.db #0x00
	.db #0x00
	.db #0x00
	.db #0x14
	.db #0x0C
	.db #0x0C
	.db #0x14
	.db #0x0C
	.db #0x14
	.db #0x00
	.db #0x00
	.db #0x00
	.db #0x00
	.db #0x00
	.db #0x00
	.db #0x10
	.db #0x10
	.db #0x20
	.db #0x20
	.db #0x10
	.db #0x10
	.db #0x14
	.db #0x00
	.db #0x00
	.db #0x00
	.db #0x00
	.db #0x00
	.db #0x14
	.db #0x0C
	.db #0x14
	.db #0xB2
	.db #0xB2
	.db #0x14
	.db #0x0C
	.db #0x04
	.db #0x00
	.db #0x00
	.db #0x00
	.db #0x00
	.db #0x00
	.db #0x04
	.db #0x14
	.db #0x0C
	.db #0x14
	.db #0x1C
	.db #0x18
	.db #0x14
	.db #0x0C
	.db #0x00
	.db #0x00
	.db #0x00
	.db #0x00
	.db #0x00
	.db #0x00
	.db #0x04
	.db #0x0C
	.db #0x14
	.db #0x1C
	.db #0x18
	.db #0x8A
	.db #0x14
	.db #0x0C
	.db #0x00
	.db #0x00
	.db #0x00
	.db #0x00
	.db #0x00
	.db #0x00
	.db #0x14
	.db #0x8A
	.db #0xB2
	.db #0xD6
	.db #0x14
	.db #0x18
	.db #0x14
	.db #0x00
	.db #0x00
	.db #0x00
	.db #0x00
	.db #0x00
	.db #0x0C
	.db #0x1C
	.db #0x14
	.db #0x1C
	.db #0x18
	.db #0x14
	.db #0x18
	.db #0x04
	.db #0x00
	.db #0x00
	.db #0x00
	.db #0x00
	.db #0x00
	.db #0x00
	.db #0x24
	.db #0x1C
	.db #0x14
	.db #0x18
	.db #0x14
	.db #0x10
	.db #0xFC
	.db #0x00
	.db #0x00
	.db #0x00
	.db #0x00
	.db #0x00
	.db #0x00
	.db #0x04
	.db #0xFC
	.db #0x10
	.db #0x14
	.db #0x10
	.db #0x0C
	.db #0x04
	.db #0x00
	.db #0x00
	.db #0x00
	.db #0x00
	.db #0x00
	.db #0x00
	.db #0x00
	.db #0x04
	.db #0x0C
	.db #0x10
	.db #0x00
	.db #0x00
	.db #0x00
	.db #0x00
	.db #0x00
	.db #0x00
	.db #0x00
	.db #0x00
	.db #0x00
	.db #0x18
	.db #0x10
	.db #0x00
	.db #0x00
	.db #0x00
	.db #0x00
	.db #0x00
	.db #0x00
	.db #0x00
	.db #0x00
	.db #0x00
	.db #0x00
	.db #0x1C
	.db #0x0C
	.db #0x14
	.db #0x0C
	.db #0x00
	.db #0x00
	.db #0x00
	.db #0x00
	.db #0x00
	.db #0x00
	.db #0x00
	.db #0x00
	.db #0x18
	.db #0x0C
	.db #0x0C
	.db #0x20
	.db #0x14
	.db #0x0C
	.db #0x0C
	.db #0x00
	.db #0x00
	.db #0x00
	.db #0x00
	.db #0x00
	.db #0x10
	.db #0x10
	.db #0x10
	.db #0x20
	.db #0xB2
	.db #0x18
	.db #0x14
	.db #0x0C
	.db #0x0C
	.db #0x00
	.db #0x00
	.db #0x00
	.db #0x00
	.db #0x10
	.db #0x14
	.db #0x0C
	.db #0x14
	.db #0x1C
	.db #0x18
	.db #0x18
	.db #0x8A
	.db #0x14
	.db #0x14
	.db #0x00
	.db #0x00
	.db #0x00
	.db #0x00
	.db #0x24
	.db #0x10
	.db #0x0C
	.db #0x14
	.db #0x1C
	.db #0xD6
	.db #0x18
	.db #0x14
	.db #0x18
	.db #0x00
	.db #0x00
	.db #0x00
	.db #0x00
	.db #0x04
	.db #0x04
	.db #0x0C
	.db #0x0C
	.db #0x8A
	.db #0x1C
	.db #0x18
	.db #0x14
	.db #0x10
	.db #0xFC
	.db #0x00
	.db #0x00
	.db #0x00
	.db #0x00
	.db #0x00
	.db #0x00
	.db #0x14
	.db #0x1C
	.db #0x14
	.db #0x18
	.db #0x14
	.db #0x10
	.db #0x04
	.db #0x00
	.db #0x00
	.db #0x00
	.db #0x00
	.db #0x00
	.db #0x00
	.db #0x14
	.db #0x1C
	.db #0x14
	.db #0x10
	.db #0x10
	.db #0x10
	.db #0x00
	.db #0x00
	.db #0x00
	.db #0x00
	.db #0x00
	.db #0x00
	.db #0x00
	.db #0x00
	.db #0x24
	.db #0xFC
	.db #0x04
	.db #0x0C
	.db #0x00
	.db #0x00
	.db #0x00
	.db #0x00
	.db #0x00
	.db #0x00
	.db #0x00
	.db #0x00
	.db #0x00
	.db #0x04
	.db #0x04
	.db #0x00
	.db #0x00
	.db #0x00
	.db #0x00
	.db #0x00
	.db #0x00
	.db #0x00
	.db #0x00
	.db #0x00
	.db #0x00
	.db #0x00
	.db #0x00
	.db #0x00
	.db #0x00
	.db #0x00
	.db #0x00
	.db #0x00
	.db #0x00
	.db #0x00
	.db #0x00
	.db #0x14
	.db #0x08
	.db #0x0C
	.db #0x00
	.db #0x00
	.db #0x00
	.db #0x00
	.db #0x00
	.db #0x00
	.db #0x00
	.db #0x00
	.db #0x00
	.db #0x08
	.db #0x14
	.db #0x20
	.db #0x14
	.db #0x65
	.db #0x14
	.db #0x14
	.db #0x00
	.db #0x00
	.db #0x00
	.db #0x00
	.db #0x00
	.db #0x00
	.db #0x0C
	.db #0x1C
	.db #0x20
	.db #0x1C
	.db #0xAE
	.db #0x1C
	.db #0x1C
	.db #0x65
	.db #0x10
	.db #0x10
	.db #0xB8
	.db #0x00
	.db #0x00
	.db #0x0C
	.db #0x14
	.db #0x14
	.db #0x14
	.db #0x1C
	.db #0x1C
	.db #0xD2
	.db #0x14
	.db #0x14
	.db #0x14
	.db #0x04
	.db #0x00
	.db #0x00
	.db #0x9C
	.db #0x18
	.db #0x1C
	.db #0x14
	.db #0x14
	.db #0x1C
	.db #0x14
	.db #0x14
	.db #0x18
	.db #0x1C
	.db #0x10
	.db #0x00
	.db #0x00
	.db #0x18
	.db #0x14
	.db #0x24
	.db #0x24
	.db #0x14
	.db #0x14
	.db #0x14
	.db #0x10
	.db #0x14
	.db #0x14
	.db #0x14
	.db #0x00
	.db #0x00
	.db #0x00
	.db #0x00
	.db #0x04
	.db #0x04
	.db #0x0C
	.db #0x10
	.db #0x0C
	.db #0x1C
	.db #0x18
	.db #0xFC
	.db #0x18
	.db #0x00
	.db #0x00
	.db #0x00
	.db #0x00
	.db #0x00
	.db #0x00
	.db #0x00
	.db #0x00
	.db #0x04
	.db #0x24
	.db #0x18
	.db #0x04
	.db #0x00
	.db #0x00
	.db #0x00
	.db #0x00
	.db #0x00
	.db #0x00
	.db #0x00
	.db #0x00
	.db #0x00
	.db #0x04
	.db #0x04
	.db #0x00
	.db #0x00
	.db #0x00
	.db #0x00
	.db #0x00
	.db #0x00
	.db #0x00
	.db #0x00
	.db #0x00
	.db #0x00
	.db #0x00
	.db #0x00
	.db #0x00
	.db #0x00
	.db #0x00
	.db #0x00
	.db #0x00
_car4:
	.db #0x00
	.db #0x00
	.db #0x00
	.db #0x00
	.db #0x00
	.db #0x00
	.db #0x00
	.db #0x00
	.db #0x00
	.db #0x00
	.db #0x00
	.db #0x00
	.db #0x00
	.db #0x00
	.db #0x04
	.db #0x04
	.db #0x04
	.db #0x64
	.db #0x64
	.db #0x89
	.db #0x89
	.db #0x64
	.db #0x04
	.db #0x04
	.db #0x00
	.db #0x00
	.db #0x00
	.db #0x04
	.db #0x04
	.db #0x8D
	.db #0xD6
	.db #0xB1
	.db #0x21
	.db #0x21
	.db #0x8D
	.db #0x64
	.db #0x04
	.db #0x00
	.db #0x00
	.db #0x00
	.db #0x20
	.db #0x1C
	.db #0x8D
	.db #0xD6
	.db #0xB1
	.db #0x42
	.db #0x42
	.db #0x62
	.db #0xB1
	.db #0x44
	.db #0x00
	.db #0x00
	.db #0x00
	.db #0x40
	.db #0x64
	.db #0x44
	.db #0x64
	.db #0x44
	.db #0x21
	.db #0x21
	.db #0x42
	.db #0x8D
	.db #0xDC
	.db #0x00
	.db #0x00
	.db #0x00
	.db #0x40
	.db #0x44
	.db #0x44
	.db #0x64
	.db #0x21
	.db #0x21
	.db #0x21
	.db #0x89
	.db #0x89
	.db #0xBC
	.db #0x00
	.db #0x00
	.db #0x00
	.db #0x20
	.db #0x14
	.db #0x89
	.db #0x8D
	.db #0x8D
	.db #0x8D
	.db #0x89
	.db #0x89
	.db #0x64
	.db #0x44
	.db #0x00
	.db #0x00
	.db #0x00
	.db #0x04
	.db #0x04
	.db #0x64
	.db #0x89
	.db #0xB1
	.db #0x8D
	.db #0x89
	.db #0x64
	.db #0x44
	.db #0x04
	.db #0x00
	.db #0x00
	.db #0x00
	.db #0x24
	.db #0x04
	.db #0x04
	.db #0x44
	.db #0x64
	.db #0x64
	.db #0x44
	.db #0x04
	.db #0x04
	.db #0x24
	.db #0x00
	.db #0x00
	.db #0x00
	.db #0x04
	.db #0x04
	.db #0x04
	.db #0x00
	.db #0x00
	.db #0x00
	.db #0x00
	.db #0x04
	.db #0x04
	.db #0x04
	.db #0x00
	.db #0x00
	.db #0x00
	.db #0x00
	.db #0x00
	.db #0x00
	.db #0x00
	.db #0x00
	.db #0x00
	.db #0x00
	.db #0x00
	.db #0x00
	.db #0x00
	.db #0x00
	.db #0x00
	.db #0x00
	.db #0x00
	.db #0x00
	.db #0x00
	.db #0x00
	.db #0x00
	.db #0x00
	.db #0x04
	.db #0x04
	.db #0x04
	.db #0x00
	.db #0x00
	.db #0x00
	.db #0x00
	.db #0x00
	.db #0x00
	.db #0x00
	.db #0x00
	.db #0x40
	.db #0x44
	.db #0x89
	.db #0x64
	.db #0x44
	.db #0x00
	.db #0x00
	.db #0x00
	.db #0x00
	.db #0x00
	.db #0x00
	.db #0x40
	.db #0x64
	.db #0x64
	.db #0x89
	.db #0x21
	.db #0x8D
	.db #0x9C
	.db #0x44
	.db #0x00
	.db #0x00
	.db #0x00
	.db #0x04
	.db #0x04
	.db #0x64
	.db #0xB1
	.db #0x21
	.db #0x21
	.db #0x42
	.db #0x62
	.db #0xB1
	.db #0xDC
	.db #0x44
	.db #0x00
	.db #0x00
	.db #0x04
	.db #0x04
	.db #0x8D
	.db #0xD6
	.db #0xB1
	.db #0x42
	.db #0x21
	.db #0x42
	.db #0x8D
	.db #0x8D
	.db #0x64
	.db #0x00
	.db #0x00
	.db #0x00
	.db #0x1C
	.db #0x8D
	.db #0xB1
	.db #0x64
	.db #0x44
	.db #0x21
	.db #0x21
	.db #0x89
	.db #0x89
	.db #0x44
	.db #0x00
	.db #0x00
	.db #0x00
	.db #0x40
	.db #0x64
	.db #0x44
	.db #0x64
	.db #0x21
	.db #0x8D
	.db #0x89
	.db #0x89
	.db #0x64
	.db #0x04
	.db #0x00
	.db #0x00
	.db #0x00
	.db #0x40
	.db #0x44
	.db #0x89
	.db #0x8D
	.db #0x8D
	.db #0x8D
	.db #0x89
	.db #0x04
	.db #0x04
	.db #0x24
	.db #0x00
	.db #0x00
	.db #0x00
	.db #0x20
	.db #0x14
	.db #0x64
	.db #0x89
	.db #0xB1
	.db #0x64
	.db #0x44
	.db #0x04
	.db #0x04
	.db #0x04
	.db #0x00
	.db #0x00
	.db #0x00
	.db #0x00
	.db #0x04
	.db #0x04
	.db #0x04
	.db #0x44
	.db #0x00
	.db #0x00
	.db #0x00
	.db #0x00
	.db #0x00
	.db #0x00
	.db #0x00
	.db #0x00
	.db #0x00
	.db #0x24
	.db #0x04
	.db #0x04
	.db #0x00
	.db #0x00
	.db #0x00
	.db #0x00
	.db #0x00
	.db #0x00
	.db #0x00
	.db #0x00
	.db #0x00
	.db #0x00
	.db #0x00
	.db #0x00
	.db #0x00
	.db #0x04
	.db #0x04
	.db #0x04
	.db #0x00
	.db #0x00
	.db #0x00
	.db #0x00
	.db #0x00
	.db #0x00
	.db #0x00
	.db #0x00
	.db #0x00
	.db #0x04
	.db #0x44
	.db #0x64
	.db #0x44
	.db #0xDC
	.db #0x00
	.db #0x00
	.db #0x00
	.db #0x00
	.db #0x00
	.db #0x00
	.db #0x00
	.db #0x64
	.db #0x89
	.db #0xB1
	.db #0x8D
	.db #0x8D
	.db #0x89
	.db #0xBC
	.db #0x00
	.db #0x00
	.db #0x00
	.db #0x00
	.db #0x24
	.db #0x44
	.db #0x64
	.db #0x89
	.db #0x21
	.db #0x62
	.db #0x89
	.db #0x89
	.db #0x44
	.db #0x44
	.db #0x00
	.db #0x00
	.db #0x24
	.db #0x04
	.db #0x64
	.db #0x89
	.db #0x8D
	.db #0xD6
	.db #0x42
	.db #0x62
	.db #0x89
	.db #0x64
	.db #0x24
	.db #0x24
	.db #0x00
	.db #0x04
	.db #0x04
	.db #0x64
	.db #0x8D
	.db #0xD6
	.db #0xD6
	.db #0x21
	.db #0x21
	.db #0x89
	.db #0x04
	.db #0x04
	.db #0x04
	.db #0x00
	.db #0x00
	.db #0x04
	.db #0x1C
	.db #0x44
	.db #0x8D
	.db #0x44
	.db #0x44
	.db #0x21
	.db #0x89
	.db #0x04
	.db #0x04
	.db #0x04
	.db #0x00
	.db #0x00
	.db #0x00
	.db #0x40
	.db #0x64
	.db #0x44
	.db #0x44
	.db #0x64
	.db #0x89
	.db #0x64
	.db #0x00
	.db #0x04
	.db #0x00
	.db #0x00
	.db #0x00
	.db #0x00
	.db #0x00
	.db #0x40
	.db #0x44
	.db #0x14
	.db #0x04
	.db #0x04
	.db #0x00
	.db #0x00
	.db #0x00
	.db #0x00
	.db #0x00
	.db #0x00
	.db #0x00
	.db #0x00
	.db #0x00
	.db #0x20
	.db #0x24
	.db #0x04
	.db #0x04
	.db #0x00
	.db #0x00
	.db #0x00
	.db #0x00
	.db #0x00
	.db #0x00
	.db #0x00
	.db #0x00
	.db #0x00
	.db #0x00
	.db #0x04
	.db #0x04
	.db #0x04
	.db #0x00
	.db #0x00
	.db #0x00
	.db #0x00
	.db #0x00
	.db #0x00
	.db #0x00
	.db #0x24
	.db #0x04
	.db #0x04
	.db #0x44
	.db #0x00
	.db #0x00
	.db #0x00
	.db #0x00
	.db #0x00
	.db #0x00
	.db #0x00
	.db #0x00
	.db #0x00
	.db #0x04
	.db #0x44
	.db #0x64
	.db #0x89
	.db #0xDC
	.db #0xBC
	.db #0x44
	.db #0x24
	.db #0x00
	.db #0x00
	.db #0x00
	.db #0x00
	.db #0x00
	.db #0x44
	.db #0x89
	.db #0xB1
	.db #0x8D
	.db #0x89
	.db #0x64
	.db #0x44
	.db #0x04
	.db #0x04
	.db #0x00
	.db #0x00
	.db #0x00
	.db #0x00
	.db #0x89
	.db #0x8D
	.db #0x21
	.db #0x62
	.db #0x42
	.db #0x89
	.db #0x89
	.db #0x04
	.db #0x04
	.db #0x04
	.db #0x00
	.db #0x00
	.db #0x44
	.db #0x64
	.db #0x64
	.db #0x89
	.db #0xB1
	.db #0x21
	.db #0x21
	.db #0x89
	.db #0x64
	.db #0x04
	.db #0x00
	.db #0x00
	.db #0x00
	.db #0x40
	.db #0x44
	.db #0x89
	.db #0x89
	.db #0xB1
	.db #0x8D
	.db #0x21
	.db #0xB1
	.db #0x64
	.db #0x00
	.db #0x00
	.db #0x00
	.db #0x00
	.db #0x24
	.db #0x44
	.db #0x64
	.db #0x64
	.db #0xD6
	.db #0xB2
	.db #0x64
	.db #0x89
	.db #0x44
	.db #0x00
	.db #0x00
	.db #0x00
	.db #0x00
	.db #0x04
	.db #0x20
	.db #0x1C
	.db #0x64
	.db #0x89
	.db #0x44
	.db #0x44
	.db #0x04
	.db #0x04
	.db #0x00
	.db #0x00
	.db #0x00
	.db #0x00
	.db #0x04
	.db #0x04
	.db #0x20
	.db #0x40
	.db #0x44
	.db #0x14
	.db #0x24
	.db #0x04
	.db #0x04
	.db #0x00
	.db #0x00
	.db #0x00
	.db #0x00
	.db #0x00
	.db #0x00
	.db #0x00
	.db #0x00
	.db #0x40
	.db #0x20
	.db #0x04
	.db #0x04
	.db #0x04
	.db #0x00
	.db #0x00
	.db #0x00
	.db #0x00
	.db #0x00
	.db #0x00
	.db #0x00
	.db #0x00
	.db #0x00
	.db #0x00
	.db #0x24
	.db #0x24
	.db #0x00
	.db #0x00
	.db #0x00
	.db #0x00
	.db #0x00
	.db #0x00
	.db #0x00
	.db #0x00
	.db #0x00
	.db #0x00
	.db #0x00
	.db #0x00
	.db #0x00
	.db #0x00
	.db #0x00
	.db #0x00
	.db #0x00
	.db #0x24
	.db #0x04
	.db #0x04
	.db #0x44
	.db #0xDC
	.db #0xBC
	.db #0x44
	.db #0x24
	.db #0x24
	.db #0x04
	.db #0x00
	.db #0x00
	.db #0x00
	.db #0x04
	.db #0x04
	.db #0x64
	.db #0xB1
	.db #0x8D
	.db #0x89
	.db #0x64
	.db #0x44
	.db #0x04
	.db #0x04
	.db #0x00
	.db #0x00
	.db #0x00
	.db #0x04
	.db #0x64
	.db #0xB1
	.db #0x8D
	.db #0x62
	.db #0x42
	.db #0x89
	.db #0x89
	.db #0x44
	.db #0x04
	.db #0x00
	.db #0x00
	.db #0x00
	.db #0x00
	.db #0x89
	.db #0x8D
	.db #0x21
	.db #0x42
	.db #0x21
	.db #0x21
	.db #0x89
	.db #0x64
	.db #0x00
	.db #0x00
	.db #0x00
	.db #0x00
	.db #0x00
	.db #0x64
	.db #0x89
	.db #0x21
	.db #0xB1
	.db #0x8D
	.db #0x21
	.db #0xB1
	.db #0x64
	.db #0x00
	.db #0x00
	.db #0x00
	.db #0x00
	.db #0x00
	.db #0x64
	.db #0x89
	.db #0x64
	.db #0xD6
	.db #0xB2
	.db #0x64
	.db #0x89
	.db #0x64
	.db #0x00
	.db #0x00
	.db #0x00
	.db #0x00
	.db #0x24
	.db #0x04
	.db #0x64
	.db #0x44
	.db #0x8D
	.db #0x89
	.db #0x44
	.db #0x64
	.db #0x04
	.db #0x04
	.db #0x00
	.db #0x00
	.db #0x00
	.db #0x24
	.db #0x04
	.db #0x04
	.db #0x1C
	.db #0x64
	.db #0x44
	.db #0x14
	.db #0x24
	.db #0x04
	.db #0x04
	.db #0x00
	.db #0x00
	.db #0x00
	.db #0x04
	.db #0x04
	.db #0x04
	.db #0x20
	.db #0x40
	.db #0x40
	.db #0x20
	.db #0x04
	.db #0x04
	.db #0x04
	.db #0x00
	.db #0x00
	.db #0x00
	.db #0x00
	.db #0x00
	.db #0x00
	.db #0x00
	.db #0x00
	.db #0x00
	.db #0x00
	.db #0x00
	.db #0x00
	.db #0x00
	.db #0x00
	.db #0x00
	.db #0x00
	.db #0x00
	.db #0x00
	.db #0x00
	.db #0x00
	.db #0x00
	.db #0x44
	.db #0x04
	.db #0x04
	.db #0x24
	.db #0x00
	.db #0x00
	.db #0x00
	.db #0x00
	.db #0x00
	.db #0x24
	.db #0x44
	.db #0xBC
	.db #0xDC
	.db #0x89
	.db #0x64
	.db #0x44
	.db #0x04
	.db #0x00
	.db #0x00
	.db #0x00
	.db #0x00
	.db #0x04
	.db #0x04
	.db #0x44
	.db #0x64
	.db #0x89
	.db #0x8D
	.db #0xB1
	.db #0x89
	.db #0x44
	.db #0x00
	.db #0x00
	.db #0x00
	.db #0x04
	.db #0x04
	.db #0x04
	.db #0x89
	.db #0x89
	.db #0x42
	.db #0x62
	.db #0x21
	.db #0x8D
	.db #0x89
	.db #0x00
	.db #0x00
	.db #0x00
	.db #0x00
	.db #0x04
	.db #0x64
	.db #0x89
	.db #0x21
	.db #0x21
	.db #0xB1
	.db #0x89
	.db #0x64
	.db #0x64
	.db #0x44
	.db #0x00
	.db #0x00
	.db #0x00
	.db #0x00
	.db #0x64
	.db #0xB1
	.db #0x21
	.db #0x8D
	.db #0xB1
	.db #0x89
	.db #0x89
	.db #0x44
	.db #0x40
	.db #0x00
	.db #0x00
	.db #0x00
	.db #0x00
	.db #0x44
	.db #0x89
	.db #0x64
	.db #0xB2
	.db #0xD6
	.db #0x64
	.db #0x64
	.db #0x44
	.db #0x24
	.db #0x00
	.db #0x00
	.db #0x00
	.db #0x00
	.db #0x04
	.db #0x04
	.db #0x44
	.db #0x44
	.db #0x89
	.db #0x64
	.db #0x1C
	.db #0x20
	.db #0x04
	.db #0x00
	.db #0x00
	.db #0x00
	.db #0x00
	.db #0x04
	.db #0x04
	.db #0x24
	.db #0x14
	.db #0x44
	.db #0x40
	.db #0x20
	.db #0x04
	.db #0x04
	.db #0x00
	.db #0x00
	.db #0x00
	.db #0x00
	.db #0x04
	.db #0x04
	.db #0x04
	.db #0x20
	.db #0x40
	.db #0x00
	.db #0x00
	.db #0x00
	.db #0x00
	.db #0x00
	.db #0x00
	.db #0x00
	.db #0x00
	.db #0x00
	.db #0x24
	.db #0x24
	.db #0x00
	.db #0x00
	.db #0x00
	.db #0x00
	.db #0x00
	.db #0x00
	.db #0x00
	.db #0x00
	.db #0x00
	.db #0x00
	.db #0x00
	.db #0x00
	.db #0x04
	.db #0x04
	.db #0x04
	.db #0x00
	.db #0x00
	.db #0x00
	.db #0x00
	.db #0x00
	.db #0x00
	.db #0x00
	.db #0x00
	.db #0x00
	.db #0xDC
	.db #0x44
	.db #0x64
	.db #0x44
	.db #0x04
	.db #0x00
	.db #0x00
	.db #0x00
	.db #0x00
	.db #0x00
	.db #0x00
	.db #0x00
	.db #0xBC
	.db #0x89
	.db #0x8D
	.db #0x8D
	.db #0xB1
	.db #0x89
	.db #0x64
	.db #0x00
	.db #0x00
	.db #0x00
	.db #0x00
	.db #0x00
	.db #0x44
	.db #0x44
	.db #0x89
	.db #0x89
	.db #0x62
	.db #0x21
	.db #0x89
	.db #0x64
	.db #0x44
	.db #0x24
	.db #0x00
	.db #0x00
	.db #0x24
	.db #0x24
	.db #0x64
	.db #0x89
	.db #0x62
	.db #0x42
	.db #0xD6
	.db #0x8D
	.db #0x89
	.db #0x64
	.db #0x04
	.db #0x24
	.db #0x00
	.db #0x04
	.db #0x04
	.db #0x04
	.db #0x89
	.db #0x21
	.db #0x21
	.db #0xD6
	.db #0xD6
	.db #0x8D
	.db #0x64
	.db #0x04
	.db #0x04
	.db #0x00
	.db #0x04
	.db #0x04
	.db #0x04
	.db #0x89
	.db #0x21
	.db #0x44
	.db #0x44
	.db #0x8D
	.db #0x44
	.db #0x1C
	.db #0x04
	.db #0x00
	.db #0x00
	.db #0x00
	.db #0x04
	.db #0x00
	.db #0x64
	.db #0x89
	.db #0x64
	.db #0x44
	.db #0x44
	.db #0x64
	.db #0x40
	.db #0x00
	.db #0x00
	.db #0x00
	.db #0x00
	.db #0x00
	.db #0x00
	.db #0x00
	.db #0x04
	.db #0x04
	.db #0x14
	.db #0x44
	.db #0x40
	.db #0x00
	.db #0x00
	.db #0x00
	.db #0x00
	.db #0x00
	.db #0x00
	.db #0x00
	.db #0x00
	.db #0x04
	.db #0x04
	.db #0x24
	.db #0x20
	.db #0x00
	.db #0x00
	.db #0x00
	.db #0x00
	.db #0x00
	.db #0x00
	.db #0x00
	.db #0x00
	.db #0x00
	.db #0x04
	.db #0x04
	.db #0x04
	.db #0x00
	.db #0x00
	.db #0x00
	.db #0x00
	.db #0x00
	.db #0x00
	.db #0x00
	.db #0x00
	.db #0x00
	.db #0x00
	.db #0x04
	.db #0x04
	.db #0x00
	.db #0x00
	.db #0x00
	.db #0x00
	.db #0x00
	.db #0x00
	.db #0x00
	.db #0x00
	.db #0x00
	.db #0x00
	.db #0x44
	.db #0x64
	.db #0x89
	.db #0x44
	.db #0x40
	.db #0x00
	.db #0x00
	.db #0x00
	.db #0x00
	.db #0x00
	.db #0x00
	.db #0x00
	.db #0x44
	.db #0x9C
	.db #0x8D
	.db #0x21
	.db #0x89
	.db #0x64
	.db #0x64
	.db #0x40
	.db #0x00
	.db #0x00
	.db #0x00
	.db #0x00
	.db #0x44
	.db #0xDC
	.db #0xB1
	.db #0x62
	.db #0x42
	.db #0x21
	.db #0x21
	.db #0xB1
	.db #0x64
	.db #0x04
	.db #0x04
	.db #0x00
	.db #0x00
	.db #0x64
	.db #0x8D
	.db #0x8D
	.db #0x42
	.db #0x21
	.db #0x42
	.db #0xB1
	.db #0xD6
	.db #0x8D
	.db #0x04
	.db #0x04
	.db #0x00
	.db #0x00
	.db #0x44
	.db #0x89
	.db #0x89
	.db #0x89
	.db #0x21
	.db #0x44
	.db #0x64
	.db #0xB1
	.db #0x8D
	.db #0x1C
	.db #0x00
	.db #0x00
	.db #0x00
	.db #0x04
	.db #0x64
	.db #0x89
	.db #0x89
	.db #0x8D
	.db #0x21
	.db #0x64
	.db #0x44
	.db #0x64
	.db #0x40
	.db #0x00
	.db #0x00
	.db #0x00
	.db #0x24
	.db #0x04
	.db #0x04
	.db #0x89
	.db #0x8D
	.db #0x8D
	.db #0x8D
	.db #0x89
	.db #0x44
	.db #0x40
	.db #0x00
	.db #0x00
	.db #0x00
	.db #0x04
	.db #0x04
	.db #0x04
	.db #0x44
	.db #0x64
	.db #0xB1
	.db #0x89
	.db #0x64
	.db #0x14
	.db #0x20
	.db #0x00
	.db #0x00
	.db #0x00
	.db #0x00
	.db #0x00
	.db #0x00
	.db #0x00
	.db #0x00
	.db #0x44
	.db #0x04
	.db #0x04
	.db #0x04
	.db #0x00
	.db #0x00
	.db #0x00
	.db #0x00
	.db #0x00
	.db #0x00
	.db #0x00
	.db #0x00
	.db #0x00
	.db #0x00
	.db #0x04
	.db #0x04
	.db #0x24
	.db #0x00
	.db #0x00
	.db #0x00
	.db #0x00
	.db #0x00
	.db #0x00
	.db #0x00
	.db #0x00
	.db #0x00
	.db #0x00
	.db #0x00
	.db #0x00
	.db #0x00
	.db #0x00
	.db #0x00
	.db #0x00
	.db #0x00
	.db #0x00
	.db #0x04
	.db #0x04
	.db #0x64
	.db #0x89
	.db #0x89
	.db #0x64
	.db #0x64
	.db #0x04
	.db #0x04
	.db #0x04
	.db #0x00
	.db #0x00
	.db #0x00
	.db #0x04
	.db #0x64
	.db #0x8D
	.db #0x21
	.db #0x21
	.db #0xB1
	.db #0xD6
	.db #0x8D
	.db #0x04
	.db #0x04
	.db #0x00
	.db #0x00
	.db #0x00
	.db #0x44
	.db #0xB1
	.db #0x62
	.db #0x42
	.db #0x42
	.db #0xB1
	.db #0xD6
	.db #0x8D
	.db #0x1C
	.db #0x20
	.db #0x00
	.db #0x00
	.db #0x00
	.db #0xDC
	.db #0x8D
	.db #0x42
	.db #0x21
	.db #0x21
	.db #0x44
	.db #0x64
	.db #0x44
	.db #0x64
	.db #0x40
	.db #0x00
	.db #0x00
	.db #0x00
	.db #0xBC
	.db #0x89
	.db #0x89
	.db #0x21
	.db #0x21
	.db #0x21
	.db #0x64
	.db #0x44
	.db #0x44
	.db #0x40
	.db #0x00
	.db #0x00
	.db #0x00
	.db #0x44
	.db #0x64
	.db #0x89
	.db #0x89
	.db #0x8D
	.db #0x8D
	.db #0x8D
	.db #0x89
	.db #0x14
	.db #0x20
	.db #0x00
	.db #0x00
	.db #0x00
	.db #0x04
	.db #0x44
	.db #0x64
	.db #0x89
	.db #0x8D
	.db #0xB1
	.db #0x89
	.db #0x64
	.db #0x04
	.db #0x04
	.db #0x00
	.db #0x00
	.db #0x00
	.db #0x24
	.db #0x04
	.db #0x04
	.db #0x44
	.db #0x64
	.db #0x64
	.db #0x44
	.db #0x04
	.db #0x04
	.db #0x24
	.db #0x00
	.db #0x00
	.db #0x00
	.db #0x04
	.db #0x04
	.db #0x04
	.db #0x00
	.db #0x00
	.db #0x00
	.db #0x00
	.db #0x04
	.db #0x04
	.db #0x04
	.db #0x00
	.db #0x00
	.db #0x00
	.db #0x00
	.db #0x00
	.db #0x00
	.db #0x00
	.db #0x00
	.db #0x00
	.db #0x00
	.db #0x00
	.db #0x00
	.db #0x00
	.db #0x00
	.db #0x00
	.db #0x00
	.db #0x00
	.db #0x00
	.db #0x00
	.db #0x00
	.db #0x00
	.db #0x00
	.db #0x00
	.db #0x04
	.db #0x04
	.db #0x00
	.db #0x00
	.db #0x00
	.db #0x00
	.db #0x00
	.db #0x00
	.db #0x00
	.db #0x00
	.db #0x00
	.db #0x64
	.db #0x04
	.db #0x04
	.db #0x04
	.db #0x00
	.db #0x00
	.db #0x00
	.db #0x00
	.db #0x00
	.db #0x00
	.db #0x89
	.db #0x89
	.db #0x64
	.db #0xD6
	.db #0x8D
	.db #0x1C
	.db #0x20
	.db #0x00
	.db #0x00
	.db #0x00
	.db #0x00
	.db #0x04
	.db #0x04
	.db #0x8D
	.db #0x21
	.db #0x21
	.db #0xB1
	.db #0xD6
	.db #0x44
	.db #0x64
	.db #0x40
	.db #0x00
	.db #0x00
	.db #0x00
	.db #0x04
	.db #0x64
	.db #0x62
	.db #0x42
	.db #0x42
	.db #0x44
	.db #0x64
	.db #0x44
	.db #0x44
	.db #0x40
	.db #0x00
	.db #0x00
	.db #0x00
	.db #0x44
	.db #0xB1
	.db #0x42
	.db #0x21
	.db #0x21
	.db #0x21
	.db #0x64
	.db #0x89
	.db #0x14
	.db #0x20
	.db #0x00
	.db #0x00
	.db #0x00
	.db #0x00
	.db #0xDC
	.db #0x89
	.db #0x89
	.db #0x21
	.db #0x8D
	.db #0x8D
	.db #0x89
	.db #0x64
	.db #0x04
	.db #0x24
	.db #0x00
	.db #0x00
	.db #0x00
	.db #0xBC
	.db #0x64
	.db #0x89
	.db #0x89
	.db #0x8D
	.db #0xB1
	.db #0x44
	.db #0x04
	.db #0x04
	.db #0x04
	.db #0x00
	.db #0x00
	.db #0x00
	.db #0x00
	.db #0x04
	.db #0x44
	.db #0x64
	.db #0x44
	.db #0x64
	.db #0x00
	.db #0x00
	.db #0x04
	.db #0x00
	.db #0x00
	.db #0x00
	.db #0x00
	.db #0x00
	.db #0x24
	.db #0x04
	.db #0x04
	.db #0x00
	.db #0x00
	.db #0x00
	.db #0x00
	.db #0x00
	.db #0x00
	.db #0x00
	.db #0x00
	.db #0x00
	.db #0x00
	.db #0x04
	.db #0x04
	.db #0x04
	.db #0x00
	.db #0x00
	.db #0x00
	.db #0x00
	.db #0x00
	.db #0x00
	.db #0x00
	.db #0x00
	.db #0x00
	.db #0x00
	.db #0x04
	.db #0x04
	.db #0x10
	.db #0x04
	.db #0x00
	.db #0x00
	.db #0x00
	.db #0x00
	.db #0x00
	.db #0x00
	.db #0x00
	.db #0x00
	.db #0x00
	.db #0x04
	.db #0x44
	.db #0x40
	.db #0x40
	.db #0x64
	.db #0x00
	.db #0x00
	.db #0x00
	.db #0x00
	.db #0x00
	.db #0x00
	.db #0x00
	.db #0x00
	.db #0x44
	.db #0x64
	.db #0x40
	.db #0x44
	.db #0x64
	.db #0x64
	.db #0x14
	.db #0x00
	.db #0x00
	.db #0x00
	.db #0x00
	.db #0x00
	.db #0x64
	.db #0x89
	.db #0x21
	.db #0x89
	.db #0x8D
	.db #0x44
	.db #0x40
	.db #0x44
	.db #0x04
	.db #0x04
	.db #0x00
	.db #0x04
	.db #0x04
	.db #0x89
	.db #0xB1
	.db #0x21
	.db #0x42
	.db #0xD6
	.db #0x21
	.db #0x21
	.db #0x44
	.db #0x24
	.db #0x04
	.db #0x00
	.db #0x04
	.db #0x40
	.db #0x89
	.db #0x8D
	.db #0x42
	.db #0x62
	.db #0x21
	.db #0x21
	.db #0x89
	.db #0x64
	.db #0x04
	.db #0x04
	.db #0x00
	.db #0x04
	.db #0x04
	.db #0x89
	.db #0x89
	.db #0x8D
	.db #0x42
	.db #0x21
	.db #0x89
	.db #0x89
	.db #0x44
	.db #0x00
	.db #0x00
	.db #0x00
	.db #0x00
	.db #0x24
	.db #0x40
	.db #0xDC
	.db #0x8D
	.db #0xB1
	.db #0xB1
	.db #0x8D
	.db #0x89
	.db #0x00
	.db #0x00
	.db #0x00
	.db #0x00
	.db #0x00
	.db #0x00
	.db #0x40
	.db #0x40
	.db #0xDC
	.db #0x89
	.db #0x89
	.db #0x04
	.db #0x00
	.db #0x00
	.db #0x00
	.db #0x00
	.db #0x00
	.db #0x00
	.db #0x00
	.db #0x00
	.db #0x40
	.db #0x40
	.db #0x04
	.db #0x24
	.db #0x24
	.db #0x00
	.db #0x00
	.db #0x00
	.db #0x00
	.db #0x00
	.db #0x00
	.db #0x00
	.db #0x00
	.db #0x00
	.db #0x00
	.db #0x04
	.db #0x04
	.db #0x04
	.db #0x00
	.db #0x00
	.db #0x00
	.db #0x00
	.db #0x00
	.db #0x00
	.db #0x00
	.db #0x00
	.db #0x00
	.db #0x00
	.db #0x00
	.db #0x00
	.db #0x00
	.db #0x00
	.db #0x00
	.db #0x00
	.db #0x00
	.db #0x00
	.db #0x00
	.db #0x00
	.db #0x04
	.db #0x04
	.db #0x10
	.db #0x40
	.db #0x40
	.db #0x64
	.db #0x14
	.db #0x00
	.db #0x00
	.db #0x00
	.db #0x00
	.db #0x00
	.db #0x00
	.db #0x04
	.db #0x44
	.db #0x40
	.db #0x44
	.db #0x64
	.db #0x64
	.db #0x40
	.db #0x04
	.db #0x04
	.db #0x00
	.db #0x00
	.db #0x00
	.db #0x00
	.db #0x44
	.db #0x44
	.db #0x64
	.db #0x89
	.db #0x8D
	.db #0x44
	.db #0x64
	.db #0x44
	.db #0x24
	.db #0x00
	.db #0x00
	.db #0x00
	.db #0x00
	.db #0x64
	.db #0x21
	.db #0x8D
	.db #0xB2
	.db #0x21
	.db #0x21
	.db #0x89
	.db #0x44
	.db #0x24
	.db #0x00
	.db #0x00
	.db #0x00
	.db #0x89
	.db #0xB1
	.db #0x21
	.db #0x21
	.db #0x21
	.db #0x21
	.db #0x40
	.db #0x89
	.db #0x00
	.db #0x00
	.db #0x00
	.db #0x00
	.db #0x04
	.db #0x64
	.db #0x89
	.db #0x21
	.db #0x21
	.db #0x8D
	.db #0x8D
	.db #0x8D
	.db #0x89
	.db #0x00
	.db #0x00
	.db #0x00
	.db #0x00
	.db #0x04
	.db #0x40
	.db #0x89
	.db #0x8D
	.db #0x8D
	.db #0xB1
	.db #0xB1
	.db #0x89
	.db #0x40
	.db #0x00
	.db #0x00
	.db #0x00
	.db #0x00
	.db #0x04
	.db #0x04
	.db #0x40
	.db #0x9C
	.db #0xDC
	.db #0xB1
	.db #0x89
	.db #0x40
	.db #0x04
	.db #0x00
	.db #0x00
	.db #0x00
	.db #0x00
	.db #0x00
	.db #0x00
	.db #0x40
	.db #0x40
	.db #0x40
	.db #0x40
	.db #0x04
	.db #0x04
	.db #0x04
	.db #0x04
	.db #0x00
	.db #0x00
	.db #0x00
	.db #0x00
	.db #0x00
	.db #0x00
	.db #0x00
	.db #0x00
	.db #0x00
	.db #0x00
	.db #0x04
	.db #0x04
	.db #0x00
	.db #0x00
	.db #0x00
	.db #0x00
	.db #0x00
	.db #0x00
	.db #0x00
	.db #0x00
	.db #0x00
	.db #0x00
	.db #0x00
	.db #0x00
	.db #0x00
	.db #0x00
	.db #0x00
	.db #0x00
	.db #0x00
	.db #0x04
	.db #0x04
	.db #0x04
	.db #0x14
	.db #0x64
	.db #0x40
	.db #0x10
	.db #0x04
	.db #0x04
	.db #0x04
	.db #0x00
	.db #0x00
	.db #0x00
	.db #0x24
	.db #0x04
	.db #0x44
	.db #0x40
	.db #0x64
	.db #0x44
	.db #0x40
	.db #0x44
	.db #0x04
	.db #0x04
	.db #0x00
	.db #0x00
	.db #0x00
	.db #0x24
	.db #0x44
	.db #0x64
	.db #0x44
	.db #0x8D
	.db #0x89
	.db #0x44
	.db #0x64
	.db #0x44
	.db #0x04
	.db #0x00
	.db #0x00
	.db #0x00
	.db #0x00
	.db #0x64
	.db #0x89
	.db #0x21
	.db #0xD6
	.db #0xB2
	.db #0x21
	.db #0x89
	.db #0x64
	.db #0x00
	.db #0x00
	.db #0x00
	.db #0x00
	.db #0x00
	.db #0x89
	.db #0x89
	.db #0x21
	.db #0x21
	.db #0x21
	.db #0x21
	.db #0xB1
	.db #0x89
	.db #0x00
	.db #0x00
	.db #0x00
	.db #0x00
	.db #0x00
	.db #0x89
	.db #0x8D
	.db #0x8D
	.db #0x42
	.db #0x21
	.db #0x8D
	.db #0x89
	.db #0x64
	.db #0x00
	.db #0x00
	.db #0x00
	.db #0x00
	.db #0x04
	.db #0x40
	.db #0x89
	.db #0xB1
	.db #0xB1
	.db #0x8D
	.db #0x89
	.db #0x89
	.db #0x40
	.db #0x04
	.db #0x00
	.db #0x00
	.db #0x00
	.db #0x04
	.db #0x04
	.db #0x40
	.db #0x89
	.db #0xDC
	.db #0x9C
	.db #0x64
	.db #0x40
	.db #0x04
	.db #0x04
	.db #0x00
	.db #0x00
	.db #0x00
	.db #0x24
	.db #0x04
	.db #0x04
	.db #0x00
	.db #0x00
	.db #0x00
	.db #0x40
	.db #0x24
	.db #0x24
	.db #0x04
	.db #0x00
	.db #0x00
	.db #0x00
	.db #0x00
	.db #0x00
	.db #0x00
	.db #0x00
	.db #0x00
	.db #0x00
	.db #0x00
	.db #0x00
	.db #0x00
	.db #0x00
	.db #0x00
	.db #0x00
	.db #0x00
	.db #0x00
	.db #0x00
	.db #0x00
	.db #0x00
	.db #0x00
	.db #0x00
	.db #0x00
	.db #0x00
	.db #0x00
	.db #0x00
	.db #0x00
	.db #0x00
	.db #0x00
	.db #0x00
	.db #0x00
	.db #0x14
	.db #0x64
	.db #0x64
	.db #0x10
	.db #0x04
	.db #0x04
	.db #0x00
	.db #0x00
	.db #0x00
	.db #0x00
	.db #0x00
	.db #0x04
	.db #0x04
	.db #0x40
	.db #0x64
	.db #0x64
	.db #0x44
	.db #0x40
	.db #0x44
	.db #0x04
	.db #0x00
	.db #0x00
	.db #0x00
	.db #0x00
	.db #0x24
	.db #0x44
	.db #0x64
	.db #0x44
	.db #0x8D
	.db #0x89
	.db #0x64
	.db #0x40
	.db #0x44
	.db #0x00
	.db #0x00
	.db #0x00
	.db #0x00
	.db #0x24
	.db #0x44
	.db #0x89
	.db #0x21
	.db #0x21
	.db #0xB2
	.db #0x40
	.db #0x21
	.db #0x64
	.db #0x00
	.db #0x00
	.db #0x00
	.db #0x00
	.db #0x00
	.db #0x40
	.db #0x89
	.db #0x89
	.db #0x21
	.db #0x21
	.db #0x21
	.db #0x21
	.db #0xB1
	.db #0x89
	.db #0x00
	.db #0x00
	.db #0x00
	.db #0x00
	.db #0x00
	.db #0x89
	.db #0x8D
	.db #0x8D
	.db #0x42
	.db #0x21
	.db #0x8D
	.db #0x89
	.db #0x64
	.db #0x04
	.db #0x00
	.db #0x00
	.db #0x00
	.db #0x00
	.db #0x40
	.db #0x89
	.db #0xB1
	.db #0xB1
	.db #0x8D
	.db #0x89
	.db #0x89
	.db #0x40
	.db #0x04
	.db #0x00
	.db #0x00
	.db #0x00
	.db #0x04
	.db #0x04
	.db #0x40
	.db #0x89
	.db #0xDC
	.db #0x9C
	.db #0x64
	.db #0x40
	.db #0x04
	.db #0x04
	.db #0x00
	.db #0x00
	.db #0x00
	.db #0x04
	.db #0x04
	.db #0x04
	.db #0x00
	.db #0x00
	.db #0x00
	.db #0x40
	.db #0x24
	.db #0x24
	.db #0x00
	.db #0x00
	.db #0x00
	.db #0x00
	.db #0x24
	.db #0x04
	.db #0x00
	.db #0x00
	.db #0x00
	.db #0x00
	.db #0x00
	.db #0x00
	.db #0x00
	.db #0x00
	.db #0x00
	.db #0x00
	.db #0x00
	.db #0x00
	.db #0x00
	.db #0x00
	.db #0x04
	.db #0x10
	.db #0x04
	.db #0x04
	.db #0x00
	.db #0x00
	.db #0x00
	.db #0x00
	.db #0x00
	.db #0x00
	.db #0x00
	.db #0x00
	.db #0x64
	.db #0x40
	.db #0x40
	.db #0x44
	.db #0x04
	.db #0x00
	.db #0x00
	.db #0x00
	.db #0x00
	.db #0x00
	.db #0x00
	.db #0x14
	.db #0x64
	.db #0x64
	.db #0x44
	.db #0x40
	.db #0x64
	.db #0x44
	.db #0x00
	.db #0x00
	.db #0x00
	.db #0x00
	.db #0x04
	.db #0x04
	.db #0x44
	.db #0x40
	.db #0x44
	.db #0x8D
	.db #0x89
	.db #0x21
	.db #0x89
	.db #0x64
	.db #0x00
	.db #0x00
	.db #0x00
	.db #0x04
	.db #0x24
	.db #0x44
	.db #0x21
	.db #0x21
	.db #0xD6
	.db #0x42
	.db #0x21
	.db #0xB1
	.db #0x89
	.db #0x04
	.db #0x04
	.db #0x00
	.db #0x04
	.db #0x04
	.db #0x64
	.db #0x89
	.db #0x21
	.db #0x21
	.db #0x62
	.db #0x42
	.db #0x8D
	.db #0x89
	.db #0x40
	.db #0x04
	.db #0x00
	.db #0x00
	.db #0x00
	.db #0x44
	.db #0x89
	.db #0x89
	.db #0x21
	.db #0x42
	.db #0x8D
	.db #0x89
	.db #0x89
	.db #0x04
	.db #0x04
	.db #0x00
	.db #0x00
	.db #0x00
	.db #0x00
	.db #0x89
	.db #0x8D
	.db #0xB1
	.db #0xB1
	.db #0x8D
	.db #0xDC
	.db #0x40
	.db #0x24
	.db #0x00
	.db #0x00
	.db #0x00
	.db #0x00
	.db #0x00
	.db #0x00
	.db #0x04
	.db #0x89
	.db #0x89
	.db #0xDC
	.db #0x40
	.db #0x40
	.db #0x00
	.db #0x00
	.db #0x00
	.db #0x00
	.db #0x00
	.db #0x00
	.db #0x00
	.db #0x24
	.db #0x24
	.db #0x04
	.db #0x40
	.db #0x40
	.db #0x00
	.db #0x00
	.db #0x00
	.db #0x00
	.db #0x00
	.db #0x00
	.db #0x00
	.db #0x00
	.db #0x04
	.db #0x04
	.db #0x04
	.db #0x00
	.db #0x00
	.db #0x00
	.db #0x00
	.db #0x00
	.db #0x00
	.db #0x00
	.db #0x00
	.db #0x04
	.db #0x04
	.db #0x00
	.db #0x00
	.db #0x00
	.db #0x00
	.db #0x00
	.db #0x00
	.db #0x00
	.db #0x00
	.db #0x00
	.db #0x00
	.db #0x00
	.db #0x04
	.db #0x04
	.db #0x04
	.db #0x64
	.db #0x00
	.db #0x00
	.db #0x00
	.db #0x00
	.db #0x00
	.db #0x00
	.db #0x00
	.db #0x00
	.db #0x00
	.db #0x20
	.db #0x1C
	.db #0x8D
	.db #0xD6
	.db #0x64
	.db #0x89
	.db #0x89
	.db #0x00
	.db #0x00
	.db #0x00
	.db #0x00
	.db #0x00
	.db #0x40
	.db #0x64
	.db #0x44
	.db #0xD6
	.db #0xB1
	.db #0x21
	.db #0x21
	.db #0x8D
	.db #0x04
	.db #0x04
	.db #0x00
	.db #0x00
	.db #0x00
	.db #0x40
	.db #0x44
	.db #0x44
	.db #0x64
	.db #0x44
	.db #0x42
	.db #0x42
	.db #0x62
	.db #0x64
	.db #0x04
	.db #0x00
	.db #0x00
	.db #0x00
	.db #0x20
	.db #0x14
	.db #0x89
	.db #0x64
	.db #0x21
	.db #0x21
	.db #0x21
	.db #0x42
	.db #0xB1
	.db #0x44
	.db #0x00
	.db #0x00
	.db #0x24
	.db #0x04
	.db #0x64
	.db #0x89
	.db #0x8D
	.db #0x8D
	.db #0x21
	.db #0x89
	.db #0x89
	.db #0xDC
	.db #0x00
	.db #0x00
	.db #0x00
	.db #0x04
	.db #0x04
	.db #0x04
	.db #0x44
	.db #0xB1
	.db #0x8D
	.db #0x89
	.db #0x89
	.db #0x64
	.db #0xBC
	.db #0x00
	.db #0x00
	.db #0x00
	.db #0x00
	.db #0x04
	.db #0x00
	.db #0x00
	.db #0x64
	.db #0x44
	.db #0x64
	.db #0x44
	.db #0x04
	.db #0x00
	.db #0x00
	.db #0x00
	.db #0x00
	.db #0x00
	.db #0x00
	.db #0x00
	.db #0x00
	.db #0x00
	.db #0x00
	.db #0x04
	.db #0x04
	.db #0x24
	.db #0x00
	.db #0x00
	.db #0x00
	.db #0x00
	.db #0x00
	.db #0x00
	.db #0x00
	.db #0x00
	.db #0x00
	.db #0x00
	.db #0x04
	.db #0x04
	.db #0x04
	.db #0x00
	.db #0x00
	.db #0x00
	.db #0x00
_shadow:
	.db #0x00
	.db #0x00
	.db #0x00
	.db #0x00
	.db #0x00
	.db #0x00
	.db #0x00
	.db #0x00
	.db #0x00
	.db #0x00
	.db #0x00
	.db #0x00
	.db #0x00
	.db #0x00
	.db #0x00
	.db #0x00
	.db #0x00
	.db #0x00
	.db #0x00
	.db #0x00
	.db #0x00
	.db #0x00
	.db #0x00
	.db #0x00
	.db #0x00
	.db #0x00
	.db #0x00
	.db #0x00
	.db #0x00
	.db #0x00
	.db #0x24
	.db #0x24
	.db #0x24
	.db #0x24
	.db #0x24
	.db #0x00
	.db #0x00
	.db #0x00
	.db #0x00
	.db #0x00
	.db #0x00
	.db #0x24
	.db #0x24
	.db #0x04
	.db #0x04
	.db #0x04
	.db #0x04
	.db #0x04
	.db #0x24
	.db #0x24
	.db #0x00
	.db #0x00
	.db #0x00
	.db #0x24
	.db #0x04
	.db #0x04
	.db #0x04
	.db #0x04
	.db #0x04
	.db #0x04
	.db #0x04
	.db #0x04
	.db #0x04
	.db #0x24
	.db #0x00
	.db #0x00
	.db #0x24
	.db #0x04
	.db #0x04
	.db #0x04
	.db #0x04
	.db #0x04
	.db #0x04
	.db #0x04
	.db #0x04
	.db #0x04
	.db #0x24
	.db #0x00
	.db #0x00
	.db #0x24
	.db #0x04
	.db #0x04
	.db #0x04
	.db #0x04
	.db #0x04
	.db #0x04
	.db #0x04
	.db #0x04
	.db #0x04
	.db #0x24
	.db #0x00
	.db #0x00
	.db #0x00
	.db #0x24
	.db #0x04
	.db #0x04
	.db #0x04
	.db #0x04
	.db #0x04
	.db #0x04
	.db #0x04
	.db #0x24
	.db #0x00
	.db #0x00
	.db #0x00
	.db #0x00
	.db #0x00
	.db #0x24
	.db #0x24
	.db #0x04
	.db #0x04
	.db #0x04
	.db #0x24
	.db #0x24
	.db #0x00
	.db #0x00
	.db #0x00
	.db #0x00
	.db #0x00
	.db #0x00
	.db #0x00
	.db #0x00
	.db #0x24
	.db #0x24
	.db #0x24
	.db #0x00
	.db #0x00
	.db #0x00
	.db #0x00
	.db #0x00
	.db #0x00
	.db #0x00
	.db #0x00
	.db #0x00
	.db #0x00
	.db #0x00
	.db #0x00
	.db #0x00
	.db #0x00
	.db #0x00
	.db #0x00
	.db #0x00
	.db #0x00
_charTable:
	.db #0x7C
	.db #0xEE
	.db #0xEE
	.db #0xEE
	.db #0xEE
	.db #0xEE
	.db #0xEE
	.db #0x7C
	.db #0x18
	.db #0x38
	.db #0x78
	.db #0x38
	.db #0x38
	.db #0x38
	.db #0x38
	.db #0x7C
	.db #0x7C
	.db #0xEE
	.db #0xEE
	.db #0x0E
	.db #0x1C
	.db #0x38
	.db #0x70
	.db #0xFE
	.db #0x7C
	.db #0xEE
	.db #0x0E
	.db #0x1C
	.db #0x0E
	.db #0xCE
	.db #0xEE
	.db #0x7C
	.db #0xEE
	.db #0xEE
	.db #0xEE
	.db #0x7E
	.db #0x1E
	.db #0x0E
	.db #0x0E
	.db #0x0E
	.db #0xFE
	.db #0xE0
	.db #0xE0
	.db #0x7C
	.db #0x1E
	.db #0xCE
	.db #0xEE
	.db #0x7C
	.db #0x7C
	.db #0xE6
	.db #0xE0
	.db #0xF8
	.db #0xEE
	.db #0xEE
	.db #0xEE
	.db #0x7C
	.db #0x7E
	.db #0xFE
	.db #0x0E
	.db #0x0E
	.db #0x1C
	.db #0x1C
	.db #0x38
	.db #0x38
	.db #0x7C
	.db #0xEE
	.db #0xEE
	.db #0x7C
	.db #0xEE
	.db #0xEE
	.db #0xEE
	.db #0x7C
	.db #0x7C
	.db #0xEE
	.db #0xEE
	.db #0x3E
	.db #0x0E
	.db #0x0E
	.db #0xCE
	.db #0x7C
	.db #0x00
	.db #0x00
	.db #0x18
	.db #0x18
	.db #0x00
	.db #0x18
	.db #0x18
	.db #0x00
	.db #0x00
	.db #0x00
	.db #0x30
	.db #0x30
	.db #0x00
	.db #0x30
	.db #0x30
	.db #0x60
	.db #0x18
	.db #0x30
	.db #0x60
	.db #0xC0
	.db #0xC0
	.db #0x60
	.db #0x30
	.db #0x18
	.db #0x00
	.db #0x00
	.db #0x7C
	.db #0x7C
	.db #0x00
	.db #0x7C
	.db #0x7C
	.db #0x00
	.db #0x18
	.db #0x0C
	.db #0x06
	.db #0x03
	.db #0x03
	.db #0x06
	.db #0x0C
	.db #0x18
	.db #0x3C
	.db #0x66
	.db #0x66
	.db #0x0C
	.db #0x18
	.db #0x00
	.db #0x18
	.db #0x18
	.db #0x3C
	.db #0x42
	.db #0x9A
	.db #0xA4
	.db #0xA4
	.db #0x98
	.db #0x42
	.db #0x3C
	.db #0x7C
	.db #0xEE
	.db #0xEE
	.db #0xFE
	.db #0xEE
	.db #0xEE
	.db #0xEE
	.db #0xEE
	.db #0xFC
	.db #0xEE
	.db #0xEE
	.db #0xFC
	.db #0xEE
	.db #0xEE
	.db #0xEE
	.db #0xFC
	.db #0x7C
	.db #0xEE
	.db #0xE0
	.db #0xE0
	.db #0xE0
	.db #0xE0
	.db #0xEE
	.db #0x7C
	.db #0xFC
	.db #0xEE
	.db #0xEE
	.db #0xEE
	.db #0xEE
	.db #0xEE
	.db #0xEE
	.db #0xFC
	.db #0x7C
	.db #0xEE
	.db #0xE0
	.db #0xF8
	.db #0xE0
	.db #0xE0
	.db #0xEE
	.db #0x7C
	.db #0x7C
	.db #0xEE
	.db #0xE0
	.db #0xF8
	.db #0xE0
	.db #0xE0
	.db #0xE0
	.db #0xE0
	.db #0x7C
	.db #0xEE
	.db #0xE0
	.db #0xE0
	.db #0xEE
	.db #0xE6
	.db #0xEE
	.db #0x7C
	.db #0x6C
	.db #0xEE
	.db #0xEE
	.db #0xFE
	.db #0xEE
	.db #0xEE
	.db #0xEE
	.db #0xEE
	.db #0x7C
	.db #0x38
	.db #0x38
	.db #0x38
	.db #0x38
	.db #0x38
	.db #0x38
	.db #0x7C
	.db #0x0C
	.db #0x0E
	.db #0x0E
	.db #0x0E
	.db #0x0E
	.db #0x0E
	.db #0xEE
	.db #0x7C
	.db #0xEC
	.db #0xEE
	.db #0xEC
	.db #0xF8
	.db #0xEC
	.db #0xEE
	.db #0xEE
	.db #0xEC
	.db #0x60
	.db #0xE0
	.db #0xE0
	.db #0xE0
	.db #0xE0
	.db #0xE0
	.db #0xEE
	.db #0x7C
	.db #0xEE
	.db #0xFE
	.db #0xD6
	.db #0xEE
	.db #0xEE
	.db #0xEE
	.db #0xEE
	.db #0xEE
	.db #0xEE
	.db #0xEE
	.db #0xDE
	.db #0xFE
	.db #0xFE
	.db #0xF6
	.db #0xEE
	.db #0xEE
	.db #0x7C
	.db #0xEE
	.db #0xEE
	.db #0xEE
	.db #0xEE
	.db #0xEE
	.db #0xEE
	.db #0x7C
	.db #0x7C
	.db #0xEE
	.db #0xEE
	.db #0xEE
	.db #0xFC
	.db #0xE0
	.db #0xE0
	.db #0xE0
	.db #0x7C
	.db #0xEE
	.db #0xEE
	.db #0xEE
	.db #0x7E
	.db #0x0E
	.db #0x0E
	.db #0x0E
	.db #0xFC
	.db #0xEE
	.db #0xEE
	.db #0xFC
	.db #0xEE
	.db #0xEE
	.db #0xEE
	.db #0xEE
	.db #0x7C
	.db #0xEE
	.db #0xE0
	.db #0x7C
	.db #0x0E
	.db #0xCE
	.db #0xEE
	.db #0x7C
	.db #0xFE
	.db #0xFE
	.db #0x38
	.db #0x38
	.db #0x38
	.db #0x38
	.db #0x38
	.db #0x38
	.db #0x6E
	.db #0xEE
	.db #0xEE
	.db #0xEE
	.db #0xEE
	.db #0xEE
	.db #0xEE
	.db #0x7E
	.db #0xEE
	.db #0xEE
	.db #0xEE
	.db #0xEE
	.db #0xEE
	.db #0xEE
	.db #0x7C
	.db #0x38
	.db #0xEE
	.db #0xEE
	.db #0xEE
	.db #0xEE
	.db #0xEE
	.db #0xD6
	.db #0xFE
	.db #0xEE
	.db #0xEE
	.db #0xEE
	.db #0x6C
	.db #0x38
	.db #0x6C
	.db #0xEE
	.db #0xEE
	.db #0xEE
	.db #0x6C
	.db #0xEE
	.db #0xEE
	.db #0x7C
	.db #0x38
	.db #0x38
	.db #0x38
	.db #0x38
	.db #0xFE
	.db #0x0E
	.db #0x1C
	.db #0x38
	.db #0x38
	.db #0x70
	.db #0xE0
	.db #0xFE
	.db #0x00
	.db #0x00
	.db #0x00
	.db #0x00
	.db #0x00
	.db #0x00
	.db #0x00
	.db #0x00
	.db #0x00
	.db #0x00
	.db #0x00
	.db #0x00
	.db #0x00
	.db #0x00
	.db #0x00
	.db #0x00
	.db #0x00
	.db #0x00
	.db #0x00
	.db #0x00
	.db #0x00
	.db #0x00
	.db #0x00
	.db #0x00
	.db #0x00
	.db #0x00
	.db #0x00
	.db #0x00
	.db #0x00
	.db #0x00
	.db #0x00
	.db #0x00
	.db #0x00
	.db #0x00
	.db #0x00
	.db #0x00
	.db #0x00
	.db #0x00
	.db #0x00
	.db #0x00
_g_Sinus:
	.dw #0x0000
	.dw #0x0061
	.dw #0x00B5
	.dw #0x00EC
	.dw #0x0100
	.dw #0x00EC
	.dw #0x00B5
	.dw #0x0061
	.dw #0x0000
	.dw #0xFF9F
	.dw #0xFF4B
	.dw #0xFF14
	.dw #0xFF00
	.dw #0xFF14
	.dw #0xFF4B
	.dw #0xFF9F
_g_Cosinus:
	.dw #0x0100
	.dw #0x00EC
	.dw #0x00B5
	.dw #0x0061
	.dw #0x0000
	.dw #0xFF9F
	.dw #0xFF4B
	.dw #0xFF14
	.dw #0xFF00
	.dw #0xFF14
	.dw #0xFF4B
	.dw #0xFF9F
	.dw #0x0000
	.dw #0x0061
	.dw #0x00B5
	.dw #0x00EC
_backgound:
	.db #0x92
	.db #0x92
	.db #0x92
	.db #0x92
	.db #0x92
	.db #0x92
	.db #0x92
	.db #0x92
	.db #0x92
	.db #0x92
	.db #0x92
	.db #0x92
	.db #0x92
	.db #0x92
	.db #0x92
	.db #0x92
	.db #0x92
	.db #0x92
	.db #0x92
	.db #0x92
	.db #0x92
	.db #0x92
	.db #0x92
	.db #0x92
	.db #0x92
	.db #0x92
	.db #0x92
	.db #0x92
	.db #0x92
	.db #0x92
	.db #0x92
	.db #0x92
	.db #0x92
	.db #0x92
	.db #0x92
	.db #0x92
	.db #0x92
	.db #0x92
	.db #0x92
	.db #0x92
	.db #0x92
	.db #0x92
	.db #0x92
	.db #0x92
	.db #0x92
	.db #0x92
	.db #0x92
	.db #0x92
	.db #0x92
	.db #0x92
	.db #0x92
	.db #0x92
	.db #0x92
	.db #0x92
	.db #0x92
	.db #0x92
	.db #0x92
	.db #0x92
	.db #0x92
	.db #0x92
	.db #0x92
	.db #0x92
	.db #0x92
	.db #0x92
	.db #0x92
	.db #0x92
	.db #0x92
	.db #0x92
	.db #0x92
	.db #0x92
	.db #0x92
	.db #0x92
	.db #0x92
	.db #0x92
	.db #0x92
	.db #0x92
	.db #0x92
	.db #0x92
	.db #0x92
	.db #0x92
	.db #0x92
	.db #0x92
	.db #0x92
	.db #0x92
	.db #0x92
	.db #0x92
	.db #0x92
	.db #0x92
	.db #0x92
	.db #0x92
	.db #0x92
	.db #0x92
	.db #0x92
	.db #0x92
	.db #0x92
	.db #0x92
	.db #0x92
	.db #0x92
	.db #0x92
	.db #0x92
	.db #0x92
	.db #0x92
	.db #0x92
	.db #0x92
	.db #0x92
	.db #0x92
	.db #0x92
	.db #0x92
	.db #0x92
	.db #0x92
	.db #0x92
	.db #0x92
	.db #0x92
	.db #0x92
	.db #0x92
	.db #0x92
	.db #0x92
	.db #0x92
	.db #0x92
	.db #0x92
	.db #0x92
	.db #0x92
	.db #0x92
	.db #0x92
	.db #0x92
	.db #0x92
	.db #0x92
	.db #0x92
	.db #0x92
	.db #0x92
	.db #0x92
	.db #0x92
	.db #0x92
	.db #0x92
	.db #0x92
	.db #0x92
	.db #0x92
	.db #0x92
	.db #0x92
	.db #0x92
	.db #0x92
	.db #0x92
	.db #0x92
_defaultColor:
	.db #0x0F
	.db #0x0F
	.db #0x0F
	.db #0x0F
	.db #0x0F
	.db #0x0F
	.db #0x0F
	.db #0x0F
;carwar.c:236: void MainLoop()
;	genLabel
;	genFunction
;	---------------------------------
; Function MainLoop
; ---------------------------------
_MainLoop_start::
_MainLoop:
	push	ix
	ld	ix,#0
	add	ix,sp
	ld	hl,#-127
	add	hl,sp
	ld	sp,hl
;carwar.c:240: u8 page = 0;
;	genAssign
;	AOP_STK for _MainLoop_page_1_1
	ld	-2(ix),#0x00
;carwar.c:247: SetFreq(FREQ_50);
;	genIpush
; _saveRegsForCall: sendSetSize: 0 deInUse: 0 bcInUse: 0 deSending: 0
	ld	a,#0x20
	push	af
	inc	sp
;	genCall
	call	_SetFreq
	inc	sp
;carwar.c:248: SetScreen8(LINES_212);
;	genIpush
; _saveRegsForCall: sendSetSize: 0 deInUse: 0 bcInUse: 0 deSending: 0
	ld	a,#0x80
	push	af
	inc	sp
;	genCall
	call	_SetScreen8
	inc	sp
;carwar.c:249: SetSpriteMode(SPRITE_ON, SPRITE_NO_MAG + SPRITE_SIZE_8);
;	genIpush
; _saveRegsForCall: sendSetSize: 0 deInUse: 0 bcInUse: 0 deSending: 0
	ld	hl,#0x0000
	push	hl
;	genCall
	call	_SetSpriteMode
	pop	af
;carwar.c:251: Fill8(0, 0, 0,   256, 212, 0x92);
;	genIpush
; _saveRegsForCall: sendSetSize: 0 deInUse: 0 bcInUse: 0 deSending: 0
	ld	hl,#0x92D4
	push	hl
;	genIpush
	ld	hl,#0x0000
	push	hl
;	genIpush
	ld	hl,#0x0000
	push	hl
;	genCall
	call	_Fill8
	pop	af
	pop	af
	pop	af
;carwar.c:252: Fill8(0, 0, 212, 256, 44,  0);
;	genIpush
; _saveRegsForCall: sendSetSize: 0 deInUse: 0 bcInUse: 0 deSending: 0
	ld	hl,#0x002C
	push	hl
;	genIpush
	ld	hl,#0x00D4
	push	hl
;	genIpush
	ld	hl,#0x0000
	push	hl
;	genCall
	call	_Fill8
	pop	af
	pop	af
	pop	af
;carwar.c:253: Fill8(1, 0, 0,   256, 212, 0x92);
;	genIpush
; _saveRegsForCall: sendSetSize: 0 deInUse: 0 bcInUse: 0 deSending: 0
	ld	hl,#0x92D4
	push	hl
;	genIpush
	ld	hl,#0x0000
	push	hl
;	genIpush
	ld	hl,#0x0001
	push	hl
;	genCall
	call	_Fill8
	pop	af
	pop	af
	pop	af
;carwar.c:254: Fill8(1, 0, 212, 256, 44,  0);
;	genIpush
; _saveRegsForCall: sendSetSize: 0 deInUse: 0 bcInUse: 0 deSending: 0
	ld	hl,#0x002C
	push	hl
;	genIpush
	ld	hl,#0x00D4
	push	hl
;	genIpush
	ld	hl,#0x0001
	push	hl
;	genCall
	call	_Fill8
	pop	af
	pop	af
	pop	af
;carwar.c:256: InitializePlayer(&ply[0], 0, 50, 100);
;	genAddrOf
	ld	hl,#0x003C
	add	hl,sp
	ld	e,l
	ld	d,h
;	genIpush
; _saveRegsForCall: sendSetSize: 0 deInUse: 0 bcInUse: 0 deSending: 0
	ld	hl,#0x6432
	push	hl
;	genIpush
	ld	a,#0x00
	push	af
	inc	sp
;	genIpush
	push	de
;	genCall
	call	_InitializePlayer
	pop	af
	pop	af
	inc	sp
;carwar.c:257: InitializePlayer(&ply[1], 1, 100, 100);
;	genAddrOf
;	AOP_STK for _MainLoop_sloc1_1_0
	ld	hl,#0x003C
	add	hl,sp
	ld	-73(ix),l
	ld	-72(ix),h
;	genPlus
;	AOP_STK for _MainLoop_sloc1_1_0
;	genPlusIncr
	ld	a,-73(ix)
	add	a,#0x10
	ld	b,a
	ld	a,-72(ix)
	adc	a,#0x00
	ld	c,a
;	genIpush
; _saveRegsForCall: sendSetSize: 0 deInUse: 0 bcInUse: 0 deSending: 0
	ld	hl,#0x6464
	push	hl
;	genIpush
	ld	a,#0x01
	push	af
	inc	sp
;	genIpush
	ld	l,b
	ld	h,c
	push	hl
;	genCall
	call	_InitializePlayer
	pop	af
	pop	af
	inc	sp
;carwar.c:258: InitializePlayer(&ply[2], 2, 150, 100);
;	genPlus
;	AOP_STK for _MainLoop_sloc1_1_0
;	genPlusIncr
	ld	a,-73(ix)
	add	a,#0x20
	ld	c,a
	ld	a,-72(ix)
	adc	a,#0x00
	ld	b,a
;	genIpush
; _saveRegsForCall: sendSetSize: 0 deInUse: 0 bcInUse: 0 deSending: 0
	ld	hl,#0x6496
	push	hl
;	genIpush
	ld	a,#0x02
	push	af
	inc	sp
;	genIpush
	push	bc
;	genCall
	call	_InitializePlayer
	pop	af
	pop	af
	inc	sp
;carwar.c:259: InitializePlayer(&ply[3], 3, 200, 100);
;	genPlus
;	AOP_STK for _MainLoop_sloc1_1_0
;	genPlusIncr
	ld	a,-73(ix)
	add	a,#0x30
	ld	c,a
	ld	a,-72(ix)
	adc	a,#0x00
	ld	b,a
;	genIpush
; _saveRegsForCall: sendSetSize: 0 deInUse: 0 bcInUse: 0 deSending: 0
	ld	hl,#0x64C8
	push	hl
;	genIpush
	ld	a,#0x03
	push	af
	inc	sp
;	genIpush
	push	bc
;	genCall
	call	_InitializePlayer
	pop	af
	pop	af
	inc	sp
;carwar.c:266: RAMtoVRAM(0, 0, 248, 8, 1, (u16)&charTable[0]);
;	genCast
	ld	c,#<_charTable
	ld	b,#>_charTable
;	genIpush
; _saveRegsForCall: sendSetSize: 0 deInUse: 0 bcInUse: 0 deSending: 0
	push	bc
;	genIpush
	ld	hl,#0x0108
	push	hl
;	genIpush
	ld	hl,#0xF800
	push	hl
;	genIpush
	ld	a,#0x00
	push	af
	inc	sp
;	genCall
	call	_RAMtoVRAM
	pop	af
	pop	af
	pop	af
	inc	sp
;carwar.c:273: SetSprite(0, 0x40, 0x40, 0);
;	genIpush
; _saveRegsForCall: sendSetSize: 0 deInUse: 0 bcInUse: 0 deSending: 0
	ld	hl,#0x0040
	push	hl
;	genIpush
	ld	hl,#0x4000
	push	hl
;	genCall
	call	_SetSprite
	pop	af
	pop	af
;carwar.c:278: PrintSprite(64, 64, "INIT\nCARS");
;	genIpush
; _saveRegsForCall: sendSetSize: 0 deInUse: 0 bcInUse: 0 deSending: 0
	ld	hl,#__str_0
	push	hl
;	genIpush
	ld	hl,#0x4040
	push	hl
;	genCall
	call	_PrintSprite
	pop	af
	pop	af
;carwar.c:279: for(i=0; i<16; i++)
;	genAssign
;	AOP_STK for _MainLoop_i_1_1
	ld	-1(ix),#0x00
;	genAssign
;	AOP_STK for _MainLoop_sloc0_1_0
	ld	-71(ix),#0x00
	ld	-70(ix),#0x00
;	genAssign
	ld	b,#0x00
;	genLabel
00139$:
;	genCmpLt
;	AOP_STK for _MainLoop_i_1_1
	ld	a,-1(ix)
	sub	a,#0x10
	jp	P,00168$
;carwar.c:281: RAMtoVRAM(1, i * 13, 212 + 0,  13, 11, (u16)&car1[13 * 11 * i]);
;	genPlus
;	AOP_STK for _MainLoop_sloc0_1_0
	ld	a,#<_car1
	add	a,-71(ix)
	ld	c,a
	ld	a,#>_car1
	adc	a,-70(ix)
	ld	e,a
;	genCast
;	genIpush
; _saveRegsForCall: sendSetSize: 0 deInUse: 0 bcInUse: 1 deSending: 0
	push	bc
	ld	l,c
	ld	h,e
	push	hl
;	genIpush
	ld	hl,#0x0B0D
	push	hl
;	genIpush
	ld	a,#0xD4
	push	af
	inc	sp
;	genIpush
	push	bc
	inc	sp
;	genIpush
	ld	a,#0x01
	push	af
	inc	sp
;	genCall
	call	_RAMtoVRAM
	pop	af
	pop	af
	pop	af
	inc	sp
	pop	bc
;carwar.c:282: RAMtoVRAM(1, i * 13, 212 + 11, 13, 11, (u16)&car2[13 * 11 * i]);
;	genPlus
;	AOP_STK for _MainLoop_sloc0_1_0
	ld	a,#<_car2
	add	a,-71(ix)
	ld	e,a
	ld	a,#>_car2
	adc	a,-70(ix)
	ld	d,a
;	genCast
;	genIpush
; _saveRegsForCall: sendSetSize: 0 deInUse: 0 bcInUse: 1 deSending: 0
	push	bc
	push	de
;	genIpush
	ld	hl,#0x0B0D
	push	hl
;	genIpush
	ld	a,#0xDF
	push	af
	inc	sp
;	genIpush
	push	bc
	inc	sp
;	genIpush
	ld	a,#0x01
	push	af
	inc	sp
;	genCall
	call	_RAMtoVRAM
	pop	af
	pop	af
	pop	af
	inc	sp
	pop	bc
;carwar.c:283: RAMtoVRAM(1, i * 13, 212 + 22, 13, 11, (u16)&car3[13 * 11 * i]);
;	genPlus
;	AOP_STK for _MainLoop_sloc0_1_0
	ld	a,#<_car3
	add	a,-71(ix)
	ld	e,a
	ld	a,#>_car3
	adc	a,-70(ix)
	ld	d,a
;	genCast
;	genIpush
; _saveRegsForCall: sendSetSize: 0 deInUse: 0 bcInUse: 1 deSending: 0
	push	bc
	push	de
;	genIpush
	ld	hl,#0x0B0D
	push	hl
;	genIpush
	ld	a,#0xEA
	push	af
	inc	sp
;	genIpush
	push	bc
	inc	sp
;	genIpush
	ld	a,#0x01
	push	af
	inc	sp
;	genCall
	call	_RAMtoVRAM
	pop	af
	pop	af
	pop	af
	inc	sp
	pop	bc
;carwar.c:284: RAMtoVRAM(1, i * 13, 212 + 33, 13, 11, (u16)&car4[13 * 11 * i]);
;	genPlus
;	AOP_STK for _MainLoop_sloc0_1_0
	ld	a,#<_car4
	add	a,-71(ix)
	ld	e,a
	ld	a,#>_car4
	adc	a,-70(ix)
	ld	d,a
;	genCast
;	genIpush
; _saveRegsForCall: sendSetSize: 0 deInUse: 0 bcInUse: 1 deSending: 0
	push	bc
	push	de
;	genIpush
	ld	hl,#0x0B0D
	push	hl
;	genIpush
	ld	a,#0xF5
	push	af
	inc	sp
;	genIpush
	push	bc
	inc	sp
;	genIpush
	ld	a,#0x01
	push	af
	inc	sp
;	genCall
	call	_RAMtoVRAM
	pop	af
	pop	af
	pop	af
	inc	sp
	pop	bc
;carwar.c:279: for(i=0; i<16; i++)
;	genPlus
;	AOP_STK for _MainLoop_sloc0_1_0
;	genPlusIncr
	ld	a,-71(ix)
	add	a,#0x8F
	ld	-71(ix),a
	ld	a,-70(ix)
	adc	a,#0x00
	ld	-70(ix),a
;	genPlus
;	genPlusIncr
	ld	a,b
	add	a,#0x0D
	ld	b,a
;	genPlus
;	AOP_STK for _MainLoop_i_1_1
;	genPlusIncr
	inc	-1(ix)
;	genGoto
	jp	00139$
;carwar.c:286: while(bEnd == 0)
;	genLabel
00168$:
;	genPlus
;	AOP_STK for _MainLoop_sloc1_1_0
;	AOP_STK for _MainLoop_sloc4_1_0
;	genPlusIncr
	ld	a,-73(ix)
	add	a,#0x07
	ld	-79(ix),a
	ld	a,-72(ix)
	adc	a,#0x00
	ld	-78(ix),a
;	genPlus
;	AOP_STK for _MainLoop_sloc1_1_0
;	AOP_STK for _MainLoop_sloc0_1_0
;	genPlusIncr
	ld	a,-73(ix)
	add	a,#0x05
	ld	-71(ix),a
	ld	a,-72(ix)
	adc	a,#0x00
	ld	-70(ix),a
;	genPlus
;	AOP_STK for _MainLoop_sloc1_1_0
;	genPlusIncr
	ld	a,-73(ix)
	add	a,#0x10
	ld	e,a
	ld	a,-72(ix)
	adc	a,#0x00
	ld	d,a
;	genPlus
;	AOP_STK for _MainLoop_sloc2_1_0
;	genPlusIncr
	ld	a,e
	add	a,#0x07
	ld	-75(ix),a
	ld	a,d
	adc	a,#0x00
	ld	-74(ix),a
;	genPlus
;	AOP_STK for _MainLoop_sloc3_1_0
;	genPlusIncr
	ld	a,e
	add	a,#0x05
	ld	-77(ix),a
	ld	a,d
	adc	a,#0x00
	ld	-76(ix),a
;	genPlus
;	AOP_STK for _MainLoop_sloc1_1_0
;	AOP_STK for _MainLoop_sloc7_1_0
;	genPlusIncr
	ld	a,-73(ix)
	add	a,#0x20
	ld	-85(ix),a
	ld	a,-72(ix)
	adc	a,#0x00
	ld	-84(ix),a
;	genPlus
;	AOP_STK for _MainLoop_sloc7_1_0
;	AOP_STK for _MainLoop_sloc5_1_0
;	genPlusIncr
	ld	a,-85(ix)
	add	a,#0x07
	ld	-81(ix),a
	ld	a,-84(ix)
	adc	a,#0x00
	ld	-80(ix),a
;	genPlus
;	AOP_STK for _MainLoop_sloc7_1_0
;	AOP_STK for _MainLoop_sloc6_1_0
;	genPlusIncr
	ld	a,-85(ix)
	add	a,#0x05
	ld	-83(ix),a
	ld	a,-84(ix)
	adc	a,#0x00
	ld	-82(ix),a
;	genPlus
;	AOP_STK for _MainLoop_sloc1_1_0
;	genPlusIncr
	ld	a,-73(ix)
	add	a,#0x30
	ld	c,a
	ld	a,-72(ix)
	adc	a,#0x00
	ld	b,a
;	genPlus
;	AOP_STK for _MainLoop_sloc8_1_0
;	genPlusIncr
	ld	a,c
	add	a,#0x07
	ld	-87(ix),a
	ld	a,b
	adc	a,#0x00
	ld	-86(ix),a
;	genPlus
;	AOP_STK for _MainLoop_sloc9_1_0
;	genPlusIncr
	ld	a,c
	add	a,#0x05
	ld	-89(ix),a
	ld	a,b
	adc	a,#0x00
	ld	-88(ix),a
;	genAssign
;	AOP_STK for _MainLoop_sloc1_1_0
;	AOP_STK for _MainLoop_sloc10_1_0
	ld	a,-73(ix)
	ld	-91(ix),a
	ld	a,-72(ix)
	ld	-90(ix),a
;	genAssign
;	AOP_STK for _MainLoop_sloc11_1_0
	ld	-93(ix),e
	ld	-92(ix),d
;	genAssign
;	AOP_STK for _MainLoop_sloc7_1_0
;	AOP_STK for _MainLoop_sloc12_1_0
	ld	a,-85(ix)
	ld	-95(ix),a
	ld	a,-84(ix)
	ld	-94(ix),a
;	genAssign
;	AOP_STK for _MainLoop_sloc13_1_0
	ld	-97(ix),c
	ld	-96(ix),b
;	genPlus
;	AOP_STK for _MainLoop_sloc1_1_0
;	AOP_STK for _MainLoop_sloc14_1_0
;	genPlusIncr
	ld	a,-73(ix)
	add	a,#0x03
	ld	-99(ix),a
	ld	a,-72(ix)
	adc	a,#0x00
	ld	-98(ix),a
;	genPlus
;	AOP_STK for _MainLoop_sloc1_1_0
;	AOP_STK for _MainLoop_sloc15_1_0
;	genPlusIncr
	ld	a,-73(ix)
	add	a,#0x01
	ld	-101(ix),a
	ld	a,-72(ix)
	adc	a,#0x00
	ld	-100(ix),a
;	genPlus
;	AOP_STK for _MainLoop_sloc1_1_0
;	AOP_STK for _MainLoop_sloc16_1_0
;	genPlusIncr
	ld	a,-73(ix)
	add	a,#0x09
	ld	-103(ix),a
	ld	a,-72(ix)
	adc	a,#0x00
	ld	-102(ix),a
;	genPlus
;	AOP_STK for _MainLoop_sloc17_1_0
;	genPlusIncr
	ld	a,e
	add	a,#0x03
	ld	-105(ix),a
	ld	a,d
	adc	a,#0x00
	ld	-104(ix),a
;	genPlus
;	AOP_STK for _MainLoop_sloc18_1_0
;	genPlusIncr
	ld	a,e
	add	a,#0x01
	ld	-107(ix),a
	ld	a,d
	adc	a,#0x00
	ld	-106(ix),a
;	genPlus
;	AOP_STK for _MainLoop_sloc25_1_0
;	genPlusIncr
	ld	a,e
	add	a,#0x09
	ld	-119(ix),a
	ld	a,d
	adc	a,#0x00
	ld	-118(ix),a
;	genPlus
;	AOP_STK for _MainLoop_sloc7_1_0
;	AOP_STK for _MainLoop_sloc19_1_0
;	genPlusIncr
	ld	a,-85(ix)
	add	a,#0x03
	ld	-109(ix),a
	ld	a,-84(ix)
	adc	a,#0x00
	ld	-108(ix),a
;	genPlus
;	AOP_STK for _MainLoop_sloc7_1_0
;	AOP_STK for _MainLoop_sloc20_1_0
;	genPlusIncr
	ld	a,-85(ix)
	add	a,#0x01
	ld	-111(ix),a
	ld	a,-84(ix)
	adc	a,#0x00
	ld	-110(ix),a
;	genPlus
;	AOP_STK for _MainLoop_sloc7_1_0
;	genPlusIncr
	ld	a,-85(ix)
	add	a,#0x09
	ld	-85(ix),a
	ld	a,-84(ix)
	adc	a,#0x00
	ld	-84(ix),a
;	genPlus
;	AOP_STK for _MainLoop_sloc21_1_0
;	genPlusIncr
	ld	a,c
	add	a,#0x03
	ld	-113(ix),a
	ld	a,b
	adc	a,#0x00
	ld	-112(ix),a
;	genPlus
;	AOP_STK for _MainLoop_sloc22_1_0
;	genPlusIncr
	ld	a,c
	add	a,#0x01
	ld	-115(ix),a
	ld	a,b
	adc	a,#0x00
	ld	-114(ix),a
;	genPlus
;	AOP_STK for _MainLoop_sloc23_1_0
;	genPlusIncr
	ld	a,c
	add	a,#0x09
	ld	-117(ix),a
	ld	a,b
	adc	a,#0x00
	ld	-116(ix),a
;	genLabel
00136$:
;carwar.c:288: SetPage8(page);
;	genIpush
; _saveRegsForCall: sendSetSize: 0 deInUse: 0 bcInUse: 0 deSending: 0
;	AOP_STK for _MainLoop_page_1_1
	ld	a,-2(ix)
	push	af
	inc	sp
;	genCall
	call	_SetPage8
	inc	sp
;carwar.c:289: page = 1 - page;
;	genMinus
;	AOP_STK for _MainLoop_page_1_1
	ld	a,#0x01
	sub	a,-2(ix)
	ld	-2(ix),a
;carwar.c:293: Fill8(page, ScrPosX(ply[0].prevX), ScrPosY(ply[0].prevY), 13, 11, 0x92);
;	genPointerGet
;	AOP_STK for _MainLoop_sloc4_1_0
	ld	l,-79(ix)
	ld	h,-78(ix)
	ld	c,(hl)
	inc	hl
	ld	b,(hl)
;	genRightShift
	ld	a,b
	ld	c,a
	rlc	a
	sbc	a,a
	ld	b,a
;	genCast
;	genMinus
	ld	a,c
	add	a,#0xFB
	ld	e,a
;	genPointerGet
;	AOP_STK for _MainLoop_sloc0_1_0
	ld	l,-71(ix)
	ld	h,-70(ix)
	ld	b,(hl)
	inc	hl
	ld	c,(hl)
;	genRightShift
	ld	a,c
	ld	b,a
	rlc	a
	sbc	a,a
	ld	c,a
;	genCast
;	genMinus
	ld	a,b
	add	a,#0xFA
	ld	b,a
;	genIpush
; _saveRegsForCall: sendSetSize: 0 deInUse: 0 bcInUse: 0 deSending: 0
	ld	hl,#0x920B
	push	hl
;	genIpush
	ld	a,#0x0D
	push	af
	inc	sp
;	genIpush
	ld	a,e
	push	af
	inc	sp
;	genIpush
	push	bc
	inc	sp
;	genIpush
;	AOP_STK for _MainLoop_page_1_1
	ld	a,-2(ix)
	push	af
	inc	sp
;	genCall
	call	_Fill8
	pop	af
	pop	af
	pop	af
;carwar.c:294: Fill8(page, ScrPosX(ply[1].prevX), ScrPosY(ply[1].prevY), 13, 11, 0x92);
;	genPointerGet
;	AOP_STK for _MainLoop_sloc2_1_0
	ld	l,-75(ix)
	ld	h,-74(ix)
	ld	c,(hl)
	inc	hl
	ld	b,(hl)
;	genRightShift
	ld	a,b
	ld	c,a
	rlc	a
	sbc	a,a
	ld	b,a
;	genCast
;	genMinus
	ld	a,c
	add	a,#0xFB
	ld	e,a
;	genPointerGet
;	AOP_STK for _MainLoop_sloc3_1_0
	ld	l,-77(ix)
	ld	h,-76(ix)
	ld	b,(hl)
	inc	hl
	ld	c,(hl)
;	genRightShift
	ld	a,c
	ld	b,a
	rlc	a
	sbc	a,a
	ld	c,a
;	genCast
;	genMinus
	ld	a,b
	add	a,#0xFA
	ld	b,a
;	genIpush
; _saveRegsForCall: sendSetSize: 0 deInUse: 0 bcInUse: 0 deSending: 0
	ld	hl,#0x920B
	push	hl
;	genIpush
	ld	a,#0x0D
	push	af
	inc	sp
;	genIpush
	ld	a,e
	push	af
	inc	sp
;	genIpush
	push	bc
	inc	sp
;	genIpush
;	AOP_STK for _MainLoop_page_1_1
	ld	a,-2(ix)
	push	af
	inc	sp
;	genCall
	call	_Fill8
	pop	af
	pop	af
	pop	af
;carwar.c:295: Fill8(page, ScrPosX(ply[2].prevX), ScrPosY(ply[2].prevY), 13, 11, 0x92);
;	genPointerGet
;	AOP_STK for _MainLoop_sloc5_1_0
	ld	l,-81(ix)
	ld	h,-80(ix)
	ld	c,(hl)
	inc	hl
	ld	b,(hl)
;	genRightShift
	ld	a,b
	ld	c,a
	rlc	a
	sbc	a,a
	ld	b,a
;	genCast
;	genMinus
	ld	a,c
	add	a,#0xFB
	ld	e,a
;	genPointerGet
;	AOP_STK for _MainLoop_sloc6_1_0
	ld	l,-83(ix)
	ld	h,-82(ix)
	ld	b,(hl)
	inc	hl
	ld	c,(hl)
;	genRightShift
	ld	a,c
	ld	b,a
	rlc	a
	sbc	a,a
	ld	c,a
;	genCast
;	genMinus
	ld	a,b
	add	a,#0xFA
	ld	b,a
;	genIpush
; _saveRegsForCall: sendSetSize: 0 deInUse: 0 bcInUse: 0 deSending: 0
	ld	hl,#0x920B
	push	hl
;	genIpush
	ld	a,#0x0D
	push	af
	inc	sp
;	genIpush
	ld	a,e
	push	af
	inc	sp
;	genIpush
	push	bc
	inc	sp
;	genIpush
;	AOP_STK for _MainLoop_page_1_1
	ld	a,-2(ix)
	push	af
	inc	sp
;	genCall
	call	_Fill8
	pop	af
	pop	af
	pop	af
;carwar.c:296: Fill8(page, ScrPosX(ply[3].prevX), ScrPosY(ply[3].prevY), 13, 11, 0x92);
;	genPointerGet
;	AOP_STK for _MainLoop_sloc8_1_0
	ld	l,-87(ix)
	ld	h,-86(ix)
	ld	c,(hl)
	inc	hl
	ld	b,(hl)
;	genRightShift
	ld	a,b
	ld	c,a
	rlc	a
	sbc	a,a
	ld	b,a
;	genCast
;	genMinus
	ld	a,c
	add	a,#0xFB
	ld	e,a
;	genPointerGet
;	AOP_STK for _MainLoop_sloc9_1_0
	ld	l,-89(ix)
	ld	h,-88(ix)
	ld	b,(hl)
	inc	hl
	ld	c,(hl)
;	genRightShift
	ld	a,c
	ld	b,a
	rlc	a
	sbc	a,a
	ld	c,a
;	genCast
;	genMinus
	ld	a,b
	add	a,#0xFA
	ld	b,a
;	genIpush
; _saveRegsForCall: sendSetSize: 0 deInUse: 0 bcInUse: 0 deSending: 0
	ld	hl,#0x920B
	push	hl
;	genIpush
	ld	a,#0x0D
	push	af
	inc	sp
;	genIpush
	ld	a,e
	push	af
	inc	sp
;	genIpush
	push	bc
	inc	sp
;	genIpush
;	AOP_STK for _MainLoop_page_1_1
	ld	a,-2(ix)
	push	af
	inc	sp
;	genCall
	call	_Fill8
	pop	af
	pop	af
	pop	af
;carwar.c:304: curPly = &ply[0];
;	genAssign
;	AOP_STK for _MainLoop_sloc10_1_0
;	AOP_STK for _MainLoop_curPly_1_1
	ld	a,-91(ix)
	ld	-69(ix),a
	ld	a,-90(ix)
	ld	-68(ix),a
;carwar.c:305: keyLine = GetKeyMatrixLine(8);
;	genIpush
; _saveRegsForCall: sendSetSize: 0 deInUse: 0 bcInUse: 0 deSending: 0
	ld	a,#0x08
	push	af
	inc	sp
;	genCall
	call	_GetKeyMatrixLine
	ld	c,l
	inc	sp
;	genAssign
;	AOP_STK for _MainLoop_keyLine_1_1
	ld	-3(ix),c
;carwar.c:306: if((keyLine & KEY_LEFT) == 0)
;	genAnd
;	AOP_STK for _MainLoop_keyLine_1_1
	ld	a,-3(ix)
	and	a,#0x10
	jr	Z,00172$
	jr	00102$
00172$:
;carwar.c:308: curPly->rot++; 
;	genPlus
;	AOP_STK for _MainLoop_curPly_1_1
;	genPlusIncr
	ld	a,-69(ix)
	add	a,#0x09
	ld	b,a
	ld	a,-68(ix)
	adc	a,#0x00
	ld	c,a
;	genPointerGet
	ld	l,b
	ld	h,c
	ld	e,(hl)
	inc	hl
	ld	d,(hl)
;	genPlus
;	genPlusIncr
	inc	de
;	genAssign (pointer)
;	isBitvar = 0
	ld	l,b
	ld	h,c
	ld	(hl),e
	inc	hl
	ld	(hl),d
;carwar.c:309: curPly->rot &= 0x0F;
;	genAnd
	ld	a,e
	and	a,#0x0F
	ld	e,a
	ld	d,#0x00
;	genAssign (pointer)
;	isBitvar = 0
	ld	l,b
	ld	h,c
	ld	(hl),e
	inc	hl
	ld	(hl),d
;	genLabel
00102$:
;carwar.c:311: if((keyLine & KEY_RIGHT) == 0)
;	genAnd
;	AOP_STK for _MainLoop_keyLine_1_1
	ld	a,-3(ix)
	and	a,#0x80
	jr	Z,00174$
	jr	00104$
00174$:
;carwar.c:313: curPly->rot--; 
;	genPlus
;	AOP_STK for _MainLoop_curPly_1_1
;	genPlusIncr
	ld	a,-69(ix)
	add	a,#0x09
	ld	c,a
	ld	a,-68(ix)
	adc	a,#0x00
	ld	b,a
;	genPointerGet
	ld	l,c
	ld	h,b
	ld	e,(hl)
	inc	hl
	ld	d,(hl)
;	genMinus
	dec	de
;	genAssign (pointer)
;	isBitvar = 0
	ld	l,c
	ld	h,b
	ld	(hl),e
	inc	hl
	ld	(hl),d
;carwar.c:314: curPly->rot &= 0x0F;
;	genAnd
	ld	a,e
	and	a,#0x0F
	ld	e,a
	ld	d,#0x00
;	genAssign (pointer)
;	isBitvar = 0
	ld	l,c
	ld	h,b
	ld	(hl),e
	inc	hl
	ld	(hl),d
;	genLabel
00104$:
;carwar.c:316: if((keyLine & KEY_UP) == 0)
;	genAnd
;	AOP_STK for _MainLoop_keyLine_1_1
	ld	a,-3(ix)
	and	a,#0x20
	jr	Z,00176$
	jp	00106$
00176$:
;carwar.c:318: curPly->dX = g_Cosinus[curPly->rot];
;	genPlus
;	AOP_STK for _MainLoop_curPly_1_1
;	AOP_STK for _MainLoop_sloc26_1_0
;	genPlusIncr
	ld	a,-69(ix)
	add	a,#0x0B
	ld	-121(ix),a
	ld	a,-68(ix)
	adc	a,#0x00
	ld	-120(ix),a
;	genPlus
;	AOP_STK for _MainLoop_curPly_1_1
;	genPlusIncr
	ld	a,-69(ix)
	add	a,#0x09
	ld	e,a
	ld	a,-68(ix)
	adc	a,#0x00
	ld	d,a
;	genPointerGet
	ld	l,e
	ld	h,d
	ld	e,(hl)
	inc	hl
	ld	d,(hl)
;	genLeftShift
	sla	e
	rl	d
;	genPlus
	ld	hl,#_g_Cosinus
	add	hl,de
;	genPointerGet
	ld	c,l
	ld	b,h
	ld	c,(hl)
	inc	hl
	ld	b,(hl)
;	genAssign (pointer)
;	AOP_STK for _MainLoop_sloc26_1_0
;	isBitvar = 0
	ld	l,-121(ix)
	ld	h,-120(ix)
	ld	(hl),c
	inc	hl
	ld	(hl),b
;carwar.c:319: curPly->dY = g_Sinus[curPly->rot];
;	genPlus
;	AOP_STK for _MainLoop_curPly_1_1
;	genPlusIncr
	ld	a,-69(ix)
	add	a,#0x0D
	ld	c,a
	ld	a,-68(ix)
	adc	a,#0x00
	ld	b,a
;	genPlus
	ld	hl,#_g_Sinus
	add	hl,de
;	genPointerGet
	ld	e,l
	ld	d,h
	ld	e,(hl)
	inc	hl
	ld	d,(hl)
;	genAssign (pointer)
;	isBitvar = 0
	ld	l,c
	ld	h,b
	ld	(hl),e
	inc	hl
	ld	(hl),d
;carwar.c:320: curPly->speed += 2;
;	genPlus
;	AOP_STK for _MainLoop_curPly_1_1
;	genPlusIncr
	ld	a,-69(ix)
	add	a,#0x0F
	ld	c,a
	ld	a,-68(ix)
	adc	a,#0x00
	ld	b,a
;	genPointerGet
	ld	a,(bc)
;	genPlus
;	genPlusIncr
	ld	e,a
	add	a,#0x02
;	genAssign (pointer)
;	isBitvar = 0
	ld	(bc),a
;	genLabel
00106$:
;carwar.c:325: curPly = &ply[1];
;	genAssign
;	AOP_STK for _MainLoop_sloc11_1_0
;	AOP_STK for _MainLoop_curPly_1_1
	ld	a,-93(ix)
	ld	-69(ix),a
	ld	a,-92(ix)
	ld	-68(ix),a
;carwar.c:326: keyLine = GetKeyMatrixLine(5);
;	genIpush
; _saveRegsForCall: sendSetSize: 0 deInUse: 0 bcInUse: 0 deSending: 0
	ld	a,#0x05
	push	af
	inc	sp
;	genCall
	call	_GetKeyMatrixLine
	ld	c,l
	inc	sp
;	genAssign
;	AOP_STK for _MainLoop_keyLine_1_1
	ld	-3(ix),c
;carwar.c:327: if((keyLine & KEY_Z) == 0)
;	genAnd
;	AOP_STK for _MainLoop_keyLine_1_1
	ld	a,-3(ix)
	and	a,#0x80
	jr	Z,00180$
	jr	00108$
00180$:
;carwar.c:329: curPly->rot++; 
;	genPlus
;	AOP_STK for _MainLoop_curPly_1_1
;	genPlusIncr
	ld	a,-69(ix)
	add	a,#0x09
	ld	c,a
	ld	a,-68(ix)
	adc	a,#0x00
	ld	b,a
;	genPointerGet
	ld	l,c
	ld	h,b
	ld	e,(hl)
	inc	hl
	ld	d,(hl)
;	genPlus
;	genPlusIncr
	inc	de
;	genAssign (pointer)
;	isBitvar = 0
	ld	l,c
	ld	h,b
	ld	(hl),e
	inc	hl
	ld	(hl),d
;carwar.c:330: curPly->rot &= 0x0F;
;	genAnd
	ld	a,e
	and	a,#0x0F
	ld	e,a
	ld	d,#0x00
;	genAssign (pointer)
;	isBitvar = 0
	ld	l,c
	ld	h,b
	ld	(hl),e
	inc	hl
	ld	(hl),d
;	genLabel
00108$:
;carwar.c:332: keyLine = GetKeyMatrixLine(3);
;	genIpush
; _saveRegsForCall: sendSetSize: 0 deInUse: 0 bcInUse: 0 deSending: 0
	ld	a,#0x03
	push	af
	inc	sp
;	genCall
	call	_GetKeyMatrixLine
	ld	c,l
	inc	sp
;	genAssign
;	AOP_STK for _MainLoop_keyLine_1_1
	ld	-3(ix),c
;carwar.c:333: if((keyLine & KEY_C) == 0)
;	genAnd
;	AOP_STK for _MainLoop_keyLine_1_1
	ld	a,-3(ix)
	and	a,#0x01
	jr	Z,00182$
	jr	00110$
00182$:
;carwar.c:335: curPly->rot--; 
;	genPlus
;	AOP_STK for _MainLoop_curPly_1_1
;	genPlusIncr
	ld	a,-69(ix)
	add	a,#0x09
	ld	c,a
	ld	a,-68(ix)
	adc	a,#0x00
	ld	b,a
;	genPointerGet
	ld	l,c
	ld	h,b
	ld	e,(hl)
	inc	hl
	ld	d,(hl)
;	genMinus
	dec	de
;	genAssign (pointer)
;	isBitvar = 0
	ld	l,c
	ld	h,b
	ld	(hl),e
	inc	hl
	ld	(hl),d
;carwar.c:336: curPly->rot &= 0x0F;
;	genAnd
	ld	a,e
	and	a,#0x0F
	ld	e,a
	ld	d,#0x00
;	genAssign (pointer)
;	isBitvar = 0
	ld	l,c
	ld	h,b
	ld	(hl),e
	inc	hl
	ld	(hl),d
;	genLabel
00110$:
;carwar.c:338: keyLine = GetKeyMatrixLine(5);
;	genIpush
; _saveRegsForCall: sendSetSize: 0 deInUse: 0 bcInUse: 0 deSending: 0
	ld	a,#0x05
	push	af
	inc	sp
;	genCall
	call	_GetKeyMatrixLine
	ld	c,l
	inc	sp
;	genAssign
;	AOP_STK for _MainLoop_keyLine_1_1
	ld	-3(ix),c
;carwar.c:339: if((keyLine & KEY_X) == 0)
;	genAnd
;	AOP_STK for _MainLoop_keyLine_1_1
	ld	a,-3(ix)
	and	a,#0x20
	jr	Z,00184$
	jp	00112$
00184$:
;carwar.c:341: curPly->dX = g_Cosinus[curPly->rot];
;	genPlus
;	AOP_STK for _MainLoop_curPly_1_1
;	AOP_STK for _MainLoop_sloc26_1_0
;	genPlusIncr
	ld	a,-69(ix)
	add	a,#0x0B
	ld	-121(ix),a
	ld	a,-68(ix)
	adc	a,#0x00
	ld	-120(ix),a
;	genPlus
;	AOP_STK for _MainLoop_curPly_1_1
;	genPlusIncr
	ld	a,-69(ix)
	add	a,#0x09
	ld	e,a
	ld	a,-68(ix)
	adc	a,#0x00
	ld	d,a
;	genPointerGet
	ld	l,e
	ld	h,d
	ld	e,(hl)
	inc	hl
	ld	d,(hl)
;	genLeftShift
	sla	e
	rl	d
;	genPlus
	ld	hl,#_g_Cosinus
	add	hl,de
;	genPointerGet
	ld	c,l
	ld	b,h
	ld	c,(hl)
	inc	hl
	ld	b,(hl)
;	genAssign (pointer)
;	AOP_STK for _MainLoop_sloc26_1_0
;	isBitvar = 0
	ld	l,-121(ix)
	ld	h,-120(ix)
	ld	(hl),c
	inc	hl
	ld	(hl),b
;carwar.c:342: curPly->dY = g_Sinus[curPly->rot];
;	genPlus
;	AOP_STK for _MainLoop_curPly_1_1
;	genPlusIncr
	ld	a,-69(ix)
	add	a,#0x0D
	ld	c,a
	ld	a,-68(ix)
	adc	a,#0x00
	ld	b,a
;	genPlus
	ld	hl,#_g_Sinus
	add	hl,de
;	genPointerGet
	ld	e,l
	ld	d,h
	ld	e,(hl)
	inc	hl
	ld	d,(hl)
;	genAssign (pointer)
;	isBitvar = 0
	ld	l,c
	ld	h,b
	ld	(hl),e
	inc	hl
	ld	(hl),d
;carwar.c:343: curPly->speed += 2;
;	genPlus
;	AOP_STK for _MainLoop_curPly_1_1
;	genPlusIncr
	ld	a,-69(ix)
	add	a,#0x0F
	ld	c,a
	ld	a,-68(ix)
	adc	a,#0x00
	ld	b,a
;	genPointerGet
	ld	a,(bc)
;	genPlus
;	genPlusIncr
	ld	e,a
	add	a,#0x02
;	genAssign (pointer)
;	isBitvar = 0
	ld	(bc),a
;	genLabel
00112$:
;carwar.c:348: curPly = &ply[2];
;	genAssign
;	AOP_STK for _MainLoop_sloc12_1_0
;	AOP_STK for _MainLoop_curPly_1_1
	ld	a,-95(ix)
	ld	-69(ix),a
	ld	a,-94(ix)
	ld	-68(ix),a
;carwar.c:349: switch (Joystick(1)) // Joy 1 direction
;	genIpush
; _saveRegsForCall: sendSetSize: 0 deInUse: 0 bcInUse: 0 deSending: 0
	ld	a,#0x01
	push	af
	inc	sp
;	genCall
	call	_Joystick
	ld	c,l
	inc	sp
;	genCmpLt
	ld	a,c
	sub	a,#0x02
	jp	M,00119$
;	genCmpGt
	ld	a,#0x08
	sub	a,c
	jp	M,00119$
;	genMinus
	dec	c
	dec	c
;	genJumpTab
	push	de
	ld	e,c
	ld	d,#0x00
	ld	hl,#00187$
	add	hl,de
	add	hl,de
	add	hl,de
	pop	de
	jp	(hl)
00187$:
	jp	00113$
	jp	00114$
	jp	00115$
	jp	00119$
	jp	00116$
	jp	00117$
	jp	00118$
;carwar.c:351: case 2: // up-right
;	genLabel
00113$:
;carwar.c:352: case 3: // right
;	genLabel
00114$:
;carwar.c:353: case 4: // down-right
;	genLabel
00115$:
;carwar.c:354: curPly->rot--; 
;	genPlus
;	AOP_STK for _MainLoop_curPly_1_1
;	genPlusIncr
	ld	a,-69(ix)
	add	a,#0x09
	ld	c,a
	ld	a,-68(ix)
	adc	a,#0x00
	ld	b,a
;	genPointerGet
	ld	l,c
	ld	h,b
	ld	e,(hl)
	inc	hl
	ld	d,(hl)
;	genMinus
	dec	de
;	genAssign (pointer)
;	isBitvar = 0
	ld	l,c
	ld	h,b
	ld	(hl),e
	inc	hl
	ld	(hl),d
;carwar.c:355: curPly->rot &= 0x0F;
;	genAnd
	ld	a,e
	and	a,#0x0F
	ld	e,a
	ld	d,#0x00
;	genAssign (pointer)
;	isBitvar = 0
	ld	l,c
	ld	h,b
	ld	(hl),e
	inc	hl
	ld	(hl),d
;carwar.c:356: break;
;	genGoto
	jr	00119$
;carwar.c:357: case 6: // down-left
;	genLabel
00116$:
;carwar.c:358: case 7: // left
;	genLabel
00117$:
;carwar.c:359: case 8:// up-left
;	genLabel
00118$:
;carwar.c:360: curPly->rot++; 
;	genPlus
;	AOP_STK for _MainLoop_curPly_1_1
;	genPlusIncr
	ld	a,-69(ix)
	add	a,#0x09
	ld	c,a
	ld	a,-68(ix)
	adc	a,#0x00
	ld	b,a
;	genPointerGet
	ld	l,c
	ld	h,b
	ld	e,(hl)
	inc	hl
	ld	d,(hl)
;	genPlus
;	genPlusIncr
	inc	de
;	genAssign (pointer)
;	isBitvar = 0
	ld	l,c
	ld	h,b
	ld	(hl),e
	inc	hl
	ld	(hl),d
;carwar.c:361: curPly->rot &= 0x0F;
;	genAnd
	ld	a,e
	and	a,#0x0F
	ld	e,a
	ld	d,#0x00
;	genAssign (pointer)
;	isBitvar = 0
	ld	l,c
	ld	h,b
	ld	(hl),e
	inc	hl
	ld	(hl),d
;carwar.c:363: }
;	genLabel
00119$:
;carwar.c:364: if(Joytrig(1) != 0) // Joy 1 Button A
;	genIpush
; _saveRegsForCall: sendSetSize: 0 deInUse: 0 bcInUse: 0 deSending: 0
	ld	a,#0x01
	push	af
	inc	sp
;	genCall
	call	_Joytrig
	ld	c,l
	inc	sp
;	genIfx
	xor	a,a
	or	a,c
	jp	Z,00121$
;carwar.c:366: curPly->dX = g_Cosinus[curPly->rot];
;	genPlus
;	AOP_STK for _MainLoop_curPly_1_1
;	AOP_STK for _MainLoop_sloc26_1_0
;	genPlusIncr
	ld	a,-69(ix)
	add	a,#0x0B
	ld	-121(ix),a
	ld	a,-68(ix)
	adc	a,#0x00
	ld	-120(ix),a
;	genPlus
;	AOP_STK for _MainLoop_curPly_1_1
;	genPlusIncr
	ld	a,-69(ix)
	add	a,#0x09
	ld	e,a
	ld	a,-68(ix)
	adc	a,#0x00
	ld	d,a
;	genPointerGet
	ld	l,e
	ld	h,d
	ld	e,(hl)
	inc	hl
	ld	d,(hl)
;	genLeftShift
	sla	e
	rl	d
;	genPlus
	ld	hl,#_g_Cosinus
	add	hl,de
;	genPointerGet
	ld	c,l
	ld	b,h
	ld	c,(hl)
	inc	hl
	ld	b,(hl)
;	genAssign (pointer)
;	AOP_STK for _MainLoop_sloc26_1_0
;	isBitvar = 0
	ld	l,-121(ix)
	ld	h,-120(ix)
	ld	(hl),c
	inc	hl
	ld	(hl),b
;carwar.c:367: curPly->dY = g_Sinus[curPly->rot];
;	genPlus
;	AOP_STK for _MainLoop_curPly_1_1
;	genPlusIncr
	ld	a,-69(ix)
	add	a,#0x0D
	ld	c,a
	ld	a,-68(ix)
	adc	a,#0x00
	ld	b,a
;	genPlus
	ld	hl,#_g_Sinus
	add	hl,de
;	genPointerGet
	ld	e,l
	ld	d,h
	ld	e,(hl)
	inc	hl
	ld	d,(hl)
;	genAssign (pointer)
;	isBitvar = 0
	ld	l,c
	ld	h,b
	ld	(hl),e
	inc	hl
	ld	(hl),d
;carwar.c:368: curPly->speed += 2;
;	genPlus
;	AOP_STK for _MainLoop_curPly_1_1
;	genPlusIncr
	ld	a,-69(ix)
	add	a,#0x0F
	ld	c,a
	ld	a,-68(ix)
	adc	a,#0x00
	ld	b,a
;	genPointerGet
	ld	a,(bc)
;	genPlus
;	genPlusIncr
	ld	e,a
	add	a,#0x02
;	genAssign (pointer)
;	isBitvar = 0
	ld	(bc),a
;	genLabel
00121$:
;carwar.c:373: curPly = &ply[3];
;	genAssign
;	AOP_STK for _MainLoop_sloc13_1_0
;	AOP_STK for _MainLoop_curPly_1_1
	ld	a,-97(ix)
	ld	-69(ix),a
	ld	a,-96(ix)
	ld	-68(ix),a
;carwar.c:374: switch (Joystick(2)) // Joy 2 direction
;	genIpush
; _saveRegsForCall: sendSetSize: 0 deInUse: 0 bcInUse: 0 deSending: 0
	ld	a,#0x02
	push	af
	inc	sp
;	genCall
	call	_Joystick
	ld	c,l
	inc	sp
;	genCmpLt
	ld	a,c
	sub	a,#0x02
	jp	M,00128$
;	genCmpGt
	ld	a,#0x08
	sub	a,c
	jp	M,00128$
;	genMinus
	dec	c
	dec	c
;	genJumpTab
	push	de
	ld	e,c
	ld	d,#0x00
	ld	hl,#00190$
	add	hl,de
	add	hl,de
	add	hl,de
	pop	de
	jp	(hl)
00190$:
	jp	00122$
	jp	00123$
	jp	00124$
	jp	00128$
	jp	00125$
	jp	00126$
	jp	00127$
;carwar.c:376: case 2: // up-right
;	genLabel
00122$:
;carwar.c:377: case 3: // right
;	genLabel
00123$:
;carwar.c:378: case 4: // down-right
;	genLabel
00124$:
;carwar.c:379: curPly->rot--; 
;	genPlus
;	AOP_STK for _MainLoop_curPly_1_1
;	genPlusIncr
	ld	a,-69(ix)
	add	a,#0x09
	ld	c,a
	ld	a,-68(ix)
	adc	a,#0x00
	ld	b,a
;	genPointerGet
	ld	l,c
	ld	h,b
	ld	e,(hl)
	inc	hl
	ld	d,(hl)
;	genMinus
	dec	de
;	genAssign (pointer)
;	isBitvar = 0
	ld	l,c
	ld	h,b
	ld	(hl),e
	inc	hl
	ld	(hl),d
;carwar.c:380: curPly->rot &= 0x0F;
;	genAnd
	ld	a,e
	and	a,#0x0F
	ld	e,a
	ld	d,#0x00
;	genAssign (pointer)
;	isBitvar = 0
	ld	l,c
	ld	h,b
	ld	(hl),e
	inc	hl
	ld	(hl),d
;carwar.c:381: break;
;	genGoto
	jr	00128$
;carwar.c:382: case 6: // down-left
;	genLabel
00125$:
;carwar.c:383: case 7: // left
;	genLabel
00126$:
;carwar.c:384: case 8:// up-left
;	genLabel
00127$:
;carwar.c:385: curPly->rot++; 
;	genPlus
;	AOP_STK for _MainLoop_curPly_1_1
;	genPlusIncr
	ld	a,-69(ix)
	add	a,#0x09
	ld	c,a
	ld	a,-68(ix)
	adc	a,#0x00
	ld	b,a
;	genPointerGet
	ld	l,c
	ld	h,b
	ld	e,(hl)
	inc	hl
	ld	d,(hl)
;	genPlus
;	genPlusIncr
	inc	de
;	genAssign (pointer)
;	isBitvar = 0
	ld	l,c
	ld	h,b
	ld	(hl),e
	inc	hl
	ld	(hl),d
;carwar.c:386: curPly->rot &= 0x0F;
;	genAnd
	ld	a,e
	and	a,#0x0F
	ld	e,a
	ld	d,#0x00
;	genAssign (pointer)
;	isBitvar = 0
	ld	l,c
	ld	h,b
	ld	(hl),e
	inc	hl
	ld	(hl),d
;carwar.c:388: }
;	genLabel
00128$:
;carwar.c:389: if(Joytrig(2) != 0) // Joy 2 Button A
;	genIpush
; _saveRegsForCall: sendSetSize: 0 deInUse: 0 bcInUse: 0 deSending: 0
	ld	a,#0x02
	push	af
	inc	sp
;	genCall
	call	_Joytrig
	ld	c,l
	inc	sp
;	genIfx
	xor	a,a
	or	a,c
	jp	Z,00167$
;carwar.c:391: curPly->dX = g_Cosinus[curPly->rot];
;	genPlus
;	AOP_STK for _MainLoop_curPly_1_1
;	AOP_STK for _MainLoop_sloc26_1_0
;	genPlusIncr
	ld	a,-69(ix)
	add	a,#0x0B
	ld	-121(ix),a
	ld	a,-68(ix)
	adc	a,#0x00
	ld	-120(ix),a
;	genPlus
;	AOP_STK for _MainLoop_curPly_1_1
;	genPlusIncr
	ld	a,-69(ix)
	add	a,#0x09
	ld	e,a
	ld	a,-68(ix)
	adc	a,#0x00
	ld	d,a
;	genPointerGet
	ld	l,e
	ld	h,d
	ld	e,(hl)
	inc	hl
	ld	d,(hl)
;	genLeftShift
	sla	e
	rl	d
;	genPlus
	ld	hl,#_g_Cosinus
	add	hl,de
;	genPointerGet
	ld	c,l
	ld	b,h
	ld	c,(hl)
	inc	hl
	ld	b,(hl)
;	genAssign (pointer)
;	AOP_STK for _MainLoop_sloc26_1_0
;	isBitvar = 0
	ld	l,-121(ix)
	ld	h,-120(ix)
	ld	(hl),c
	inc	hl
	ld	(hl),b
;carwar.c:392: curPly->dY = g_Sinus[curPly->rot];
;	genPlus
;	AOP_STK for _MainLoop_curPly_1_1
;	genPlusIncr
	ld	a,-69(ix)
	add	a,#0x0D
	ld	c,a
	ld	a,-68(ix)
	adc	a,#0x00
	ld	b,a
;	genPlus
	ld	hl,#_g_Sinus
	add	hl,de
;	genPointerGet
	ld	e,l
	ld	d,h
	ld	e,(hl)
	inc	hl
	ld	d,(hl)
;	genAssign (pointer)
;	isBitvar = 0
	ld	l,c
	ld	h,b
	ld	(hl),e
	inc	hl
	ld	(hl),d
;carwar.c:393: curPly->speed += 2;
;	genPlus
;	AOP_STK for _MainLoop_curPly_1_1
;	genPlusIncr
	ld	a,-69(ix)
	add	a,#0x0F
	ld	c,a
	ld	a,-68(ix)
	adc	a,#0x00
	ld	b,a
;	genPointerGet
	ld	a,(bc)
;	genPlus
;	genPlusIncr
	ld	e,a
	add	a,#0x02
;	genAssign (pointer)
;	isBitvar = 0
	ld	(bc),a
;carwar.c:398: for(i=0; i<4; i++)
;	genLabel
00167$:
;	genAssign
;	AOP_STK for _MainLoop_i_1_1
	ld	-1(ix),#0x00
;	genLabel
00143$:
;	genCmpLt
;	AOP_STK for _MainLoop_i_1_1
	ld	a,-1(ix)
	sub	a,#0x04
	jp	P,00146$
;carwar.c:400: curPly = &ply[i];
;	genLeftShift
;	AOP_STK for _MainLoop_i_1_1
	ld	a,-1(ix)
	rlca
	rlca
	rlca
	rlca
	and	a,#0xF0
;	genPlus
;	AOP_STK for _MainLoop_sloc1_1_0
	add	a,-73(ix)
	ld	b,a
	ld	a,-72(ix)
	adc	a,#0x00
	ld	e,a
;	genAssign
;	AOP_STK for _MainLoop_curPly_1_1
	ld	-69(ix),b
	ld	-68(ix),e
;carwar.c:402: curPly->speed--;
;	genPlus
;	AOP_STK for _MainLoop_curPly_1_1
;	genPlusIncr
	ld	a,-69(ix)
	add	a,#0x0F
	ld	e,a
	ld	a,-68(ix)
	adc	a,#0x00
	ld	d,a
;	genPointerGet
	ld	a,(de)
	ld	b,a
;	genMinus
	dec	b
;	genAssign (pointer)
;	isBitvar = 0
	ld	a,b
	ld	(de),a
;carwar.c:403: if(curPly->speed < 0)
;	genCmpLt
	ld	a,b
	bit	7,a
	jr	Z,00134$
;carwar.c:404: curPly->speed = 0;
;	genAssign (pointer)
;	isBitvar = 0
	ld	a,#0x00
	ld	(de),a
;	genGoto
	jr	00135$
;	genLabel
00134$:
;carwar.c:405: else if(curPly->speed > 7)
;	genPointerGet
	ld	a,(de)
	ld	b,a
;	genCmpGt
;carwar.c:406: curPly->speed = 7;
;	genAssign (pointer)
;	isBitvar = 0
	ld	a,#0x07
	cp	a,b
	jp	P,00135$
	ld	(de),a
;	genLabel
00135$:
;carwar.c:409: curPly->prevX = curPly->posX;
;	genPlus
;	AOP_STK for _MainLoop_curPly_1_1
;	genPlusIncr
	ld	a,-69(ix)
	add	a,#0x05
	ld	e,a
	ld	a,-68(ix)
	adc	a,#0x00
	ld	d,a
;	genPlus
;	AOP_STK for _MainLoop_curPly_1_1
;	genPlusIncr
	ld	a,-69(ix)
	add	a,#0x01
	ld	b,a
	ld	a,-68(ix)
	adc	a,#0x00
	ld	c,a
;	genPointerGet
;	AOP_STK for _MainLoop_sloc27_1_0
	ld	l,b
	ld	h,c
	ld	a,(hl)
	ld	-123(ix),a
	inc	hl
	ld	a,(hl)
	ld	-122(ix),a
;	genAssign (pointer)
;	AOP_STK for _MainLoop_sloc27_1_0
;	isBitvar = 0
	ld	l,e
	ld	h,d
	ld	a,-123(ix)
	ld	(hl),a
	inc	hl
	ld	a,-122(ix)
	ld	(hl),a
;carwar.c:410: curPly->prevY = curPly->posY;
;	genPlus
;	AOP_STK for _MainLoop_curPly_1_1
;	genPlusIncr
	ld	a,-69(ix)
	add	a,#0x07
	ld	e,a
	ld	a,-68(ix)
	adc	a,#0x00
	ld	d,a
;	genPlus
;	AOP_STK for _MainLoop_curPly_1_1
;	AOP_STK for _MainLoop_sloc28_1_0
;	genPlusIncr
	ld	a,-69(ix)
	add	a,#0x03
	ld	-125(ix),a
	ld	a,-68(ix)
	adc	a,#0x00
	ld	-124(ix),a
;	genPointerGet
;	AOP_STK for _MainLoop_sloc28_1_0
;	AOP_STK for _MainLoop_sloc29_1_0
	ld	l,-125(ix)
	ld	h,-124(ix)
	ld	a,(hl)
	ld	-127(ix),a
	inc	hl
	ld	a,(hl)
	ld	-126(ix),a
;	genAssign (pointer)
;	AOP_STK for _MainLoop_sloc29_1_0
;	isBitvar = 0
	ld	l,e
	ld	h,d
	ld	a,-127(ix)
	ld	(hl),a
	inc	hl
	ld	a,-126(ix)
	ld	(hl),a
;carwar.c:411: curPly->posX += curPly->speed * curPly->dX;
;	genPlus
;	AOP_STK for _MainLoop_curPly_1_1
;	genPlusIncr
	ld	a,-69(ix)
	add	a,#0x0F
	ld	e,a
	ld	a,-68(ix)
	adc	a,#0x00
	ld	d,a
;	genPointerGet
;	AOP_STK for _MainLoop_sloc26_1_0
	ld	a,(de)
	ld	-121(ix),a
;	genPlus
;	AOP_STK for _MainLoop_curPly_1_1
;	genPlusIncr
	ld	a,-69(ix)
	add	a,#0x0B
	ld	d,a
	ld	a,-68(ix)
	adc	a,#0x00
	ld	e,a
;	genPointerGet
	ld	l,d
	ld	h,e
	ld	d,(hl)
	inc	hl
	ld	e,(hl)
;	genCast
;	AOP_STK for _MainLoop_sloc26_1_0
;	AOP_STK for _MainLoop_sloc26_1_0
	ld	a,-121(ix)
	ld	-121(ix),a
	ld	a,-121(ix)
	rla	
	sbc	a,a
	ld	-120(ix),a
;	genIpush
; _saveRegsForCall: sendSetSize: 0 deInUse: 0 bcInUse: 1 deSending: 0
	push	bc
	ld	l,d
	ld	h,e
	push	hl
;	genIpush
;	AOP_STK for _MainLoop_sloc26_1_0
	ld	l,-121(ix)
	ld	h,-120(ix)
	push	hl
;	genCall
	call	__mulint_rrx_s
	ld	d,h
	ld	e,l
	pop	af
	pop	af
	pop	bc
;	genPlus
;	AOP_STK for _MainLoop_sloc27_1_0
	ld	a,-123(ix)
	add	a,e
	ld	e,a
	ld	a,-122(ix)
	adc	a,d
	ld	d,a
;	genAssign (pointer)
;	isBitvar = 0
	ld	l,b
	ld	h,c
	ld	(hl),e
	inc	hl
	ld	(hl),d
;carwar.c:412: curPly->posY -= curPly->speed * curPly->dY;
;	genPlus
;	AOP_STK for _MainLoop_curPly_1_1
;	genPlusIncr
	ld	a,-69(ix)
	add	a,#0x0D
	ld	c,a
	ld	a,-68(ix)
	adc	a,#0x00
	ld	b,a
;	genPointerGet
	ld	l,c
	ld	h,b
	ld	c,(hl)
	inc	hl
	ld	b,(hl)
;	genIpush
; _saveRegsForCall: sendSetSize: 0 deInUse: 0 bcInUse: 0 deSending: 0
	push	bc
;	genIpush
;	AOP_STK for _MainLoop_sloc26_1_0
	ld	l,-121(ix)
	ld	h,-120(ix)
	push	hl
;	genCall
	call	__mulint_rrx_s
	ld	b,h
	ld	c,l
	pop	af
	pop	af
;	genMinus
;	AOP_STK for _MainLoop_sloc29_1_0
	ld	a,-127(ix)
	sub	a,c
	ld	c,a
	ld	a,-126(ix)
	sbc	a,b
	ld	b,a
;	genAssign (pointer)
;	AOP_STK for _MainLoop_sloc28_1_0
;	isBitvar = 0
	ld	l,-125(ix)
	ld	h,-124(ix)
	ld	(hl),c
	inc	hl
	ld	(hl),b
;carwar.c:398: for(i=0; i<4; i++)
;	genPlus
;	AOP_STK for _MainLoop_i_1_1
;	genPlusIncr
	inc	-1(ix)
;	genGoto
	jp	00143$
;	genLabel
00146$:
;carwar.c:430: VRAMtoVRAMTrans(1, ply[0].rot * 13, 212 + 0,  page, ScrPosX(ply[0].posX), ScrPosY(ply[0].posY), 13, 11);
;	genPointerGet
;	AOP_STK for _MainLoop_sloc14_1_0
	ld	l,-99(ix)
	ld	h,-98(ix)
	ld	c,(hl)
	inc	hl
	ld	b,(hl)
;	genRightShift
	ld	a,b
	ld	c,a
	rlc	a
	sbc	a,a
	ld	b,a
;	genCast
;	genMinus
	ld	a,c
	add	a,#0xFB
	ld	c,a
;	genPointerGet
;	AOP_STK for _MainLoop_sloc15_1_0
	ld	l,-101(ix)
	ld	h,-100(ix)
	ld	e,(hl)
	inc	hl
	ld	d,(hl)
;	genRightShift
	ld	a,d
	ld	e,a
	rlc	a
	sbc	a,a
	ld	d,a
;	genCast
	ld	b,e
;	genMinus
	ld	a,b
	add	a,#0xFA
	ld	b,a
;	genPointerGet
;	AOP_STK for _MainLoop_sloc16_1_0
	ld	l,-103(ix)
	ld	h,-102(ix)
	ld	e,(hl)
	inc	hl
	ld	d,(hl)
;	genCast
;	genMult
	ld	a,e
	add	a,a
	add	a,e
	add	a,a
	add	a,a
	add	a,e
	ld	e,a
;	genIpush
; _saveRegsForCall: sendSetSize: 0 deInUse: 0 bcInUse: 0 deSending: 0
	ld	hl,#0x0B0D
	push	hl
;	genIpush
	ld	a,c
	push	af
	inc	sp
;	genIpush
	push	bc
	inc	sp
;	genIpush
;	AOP_STK for _MainLoop_page_1_1
	ld	a,-2(ix)
	push	af
	inc	sp
;	genIpush
	ld	a,#0xD4
	push	af
	inc	sp
;	genIpush
;	genIpush
;	genCall
	ld	d,e
	ld	e,#0x01
	push	de
	call	_VRAMtoVRAMTrans
	pop	af
	pop	af
	pop	af
	pop	af
;carwar.c:431: VRAMtoVRAMTrans(1, ply[1].rot * 13, 212 + 11, page, ScrPosX(ply[1].posX), ScrPosY(ply[1].posY), 13, 11);
;	genPointerGet
;	AOP_STK for _MainLoop_sloc17_1_0
	ld	l,-105(ix)
	ld	h,-104(ix)
	ld	c,(hl)
	inc	hl
	ld	b,(hl)
;	genRightShift
	ld	a,b
	ld	c,a
	rlc	a
	sbc	a,a
	ld	b,a
;	genCast
;	genMinus
	ld	a,c
	add	a,#0xFB
	ld	c,a
;	genPointerGet
;	AOP_STK for _MainLoop_sloc18_1_0
	ld	l,-107(ix)
	ld	h,-106(ix)
	ld	e,(hl)
	inc	hl
	ld	d,(hl)
;	genRightShift
	ld	a,d
	ld	e,a
	rlc	a
	sbc	a,a
	ld	d,a
;	genCast
	ld	b,e
;	genMinus
	ld	a,b
	add	a,#0xFA
	ld	b,a
;	genPointerGet
;	AOP_STK for _MainLoop_sloc25_1_0
	ld	l,-119(ix)
	ld	h,-118(ix)
	ld	e,(hl)
	inc	hl
	ld	d,(hl)
;	genCast
;	genMult
	ld	a,e
	add	a,a
	add	a,e
	add	a,a
	add	a,a
	add	a,e
	ld	e,a
;	genIpush
; _saveRegsForCall: sendSetSize: 0 deInUse: 0 bcInUse: 0 deSending: 0
	ld	hl,#0x0B0D
	push	hl
;	genIpush
	ld	a,c
	push	af
	inc	sp
;	genIpush
	push	bc
	inc	sp
;	genIpush
;	AOP_STK for _MainLoop_page_1_1
	ld	a,-2(ix)
	push	af
	inc	sp
;	genIpush
	ld	a,#0xDF
	push	af
	inc	sp
;	genIpush
;	genIpush
;	genCall
	ld	d,e
	ld	e,#0x01
	push	de
	call	_VRAMtoVRAMTrans
	pop	af
	pop	af
	pop	af
	pop	af
;carwar.c:432: VRAMtoVRAMTrans(1, ply[2].rot * 13, 212 + 22, page, ScrPosX(ply[2].posX), ScrPosY(ply[2].posY), 13, 11);
;	genPointerGet
;	AOP_STK for _MainLoop_sloc19_1_0
	ld	l,-109(ix)
	ld	h,-108(ix)
	ld	c,(hl)
	inc	hl
	ld	b,(hl)
;	genRightShift
	ld	a,b
	ld	c,a
	rlc	a
	sbc	a,a
	ld	b,a
;	genCast
;	genMinus
	ld	a,c
	add	a,#0xFB
	ld	c,a
;	genPointerGet
;	AOP_STK for _MainLoop_sloc20_1_0
	ld	l,-111(ix)
	ld	h,-110(ix)
	ld	e,(hl)
	inc	hl
	ld	d,(hl)
;	genRightShift
	ld	a,d
	ld	e,a
	rlc	a
	sbc	a,a
	ld	d,a
;	genCast
	ld	b,e
;	genMinus
	ld	a,b
	add	a,#0xFA
	ld	b,a
;	genPointerGet
;	AOP_STK for _MainLoop_sloc7_1_0
	ld	l,-85(ix)
	ld	h,-84(ix)
	ld	e,(hl)
	inc	hl
	ld	d,(hl)
;	genCast
;	genMult
	ld	a,e
	add	a,a
	add	a,e
	add	a,a
	add	a,a
	add	a,e
	ld	e,a
;	genIpush
; _saveRegsForCall: sendSetSize: 0 deInUse: 0 bcInUse: 0 deSending: 0
	ld	hl,#0x0B0D
	push	hl
;	genIpush
	ld	a,c
	push	af
	inc	sp
;	genIpush
	push	bc
	inc	sp
;	genIpush
;	AOP_STK for _MainLoop_page_1_1
	ld	a,-2(ix)
	push	af
	inc	sp
;	genIpush
	ld	a,#0xEA
	push	af
	inc	sp
;	genIpush
;	genIpush
;	genCall
	ld	d,e
	ld	e,#0x01
	push	de
	call	_VRAMtoVRAMTrans
	pop	af
	pop	af
	pop	af
	pop	af
;carwar.c:433: VRAMtoVRAMTrans(1, ply[3].rot * 13, 212 + 33, page, ScrPosX(ply[3].posX), ScrPosY(ply[3].posY), 13, 11);
;	genPointerGet
;	AOP_STK for _MainLoop_sloc21_1_0
	ld	l,-113(ix)
	ld	h,-112(ix)
	ld	c,(hl)
	inc	hl
	ld	b,(hl)
;	genRightShift
	ld	a,b
	ld	c,a
	rlc	a
	sbc	a,a
	ld	b,a
;	genCast
;	genMinus
	ld	a,c
	add	a,#0xFB
	ld	c,a
;	genPointerGet
;	AOP_STK for _MainLoop_sloc22_1_0
	ld	l,-115(ix)
	ld	h,-114(ix)
	ld	e,(hl)
	inc	hl
	ld	d,(hl)
;	genRightShift
	ld	a,d
	ld	e,a
	rlc	a
	sbc	a,a
	ld	d,a
;	genCast
	ld	b,e
;	genMinus
	ld	a,b
	add	a,#0xFA
	ld	b,a
;	genPointerGet
;	AOP_STK for _MainLoop_sloc23_1_0
	ld	l,-117(ix)
	ld	h,-116(ix)
	ld	e,(hl)
	inc	hl
	ld	d,(hl)
;	genCast
;	genMult
	ld	a,e
	add	a,a
	add	a,e
	add	a,a
	add	a,a
	add	a,e
	ld	e,a
;	genIpush
; _saveRegsForCall: sendSetSize: 0 deInUse: 0 bcInUse: 0 deSending: 0
	ld	hl,#0x0B0D
	push	hl
;	genIpush
	ld	a,c
	push	af
	inc	sp
;	genIpush
	push	bc
	inc	sp
;	genIpush
;	AOP_STK for _MainLoop_page_1_1
	ld	a,-2(ix)
	push	af
	inc	sp
;	genIpush
	ld	a,#0xF5
	push	af
	inc	sp
;	genIpush
;	genIpush
;	genCall
	ld	d,e
	ld	e,#0x01
	push	de
	call	_VRAMtoVRAMTrans
	pop	af
	pop	af
	pop	af
	pop	af
;carwar.c:435: waitRetrace();
;	genCall
; _saveRegsForCall: sendSetSize: 0 deInUse: 0 bcInUse: 0 deSending: 0
	call	_waitRetrace
;	genGoto
	jp	00136$
;	genLabel
;	genEndFunction
	ld	sp,ix
	pop	ix
	ret
_MainLoop_end::
__str_0:
	.ascii "INIT"
	.db 0x0A
	.ascii "CARS"
	.db 0x00
;carwar.c:444: void InitializePlayer(Player* ply, u8 car, u8 posX, u8 posY)
;	genLabel
;	genFunction
;	---------------------------------
; Function InitializePlayer
; ---------------------------------
_InitializePlayer_start::
_InitializePlayer:
	push	ix
	ld	ix,#0
	add	ix,sp
	ld	hl,#-6
	add	hl,sp
	ld	sp,hl
;carwar.c:446: ply->car = car; // car index
;	genAssign
;	AOP_STK for 
	ld	c,4(ix)
	ld	b,5(ix)
;	genAssign (pointer)
;	AOP_STK for 
;	isBitvar = 0
	ld	a,6(ix)
	ld	(bc),a
;carwar.c:447: ply->posX = posX << 8; // position X
;	genPlus
;	AOP_STK for _InitializePlayer_sloc0_1_0
;	genPlusIncr
	ld	a,c
	add	a,#0x01
	ld	-2(ix),a
	ld	a,b
	adc	a,#0x00
	ld	-1(ix),a
;	genCast
;	AOP_STK for 
	ld	e,7(ix)
	ld	d,#0x00
;	genLeftShift
;	AOP_STK for _InitializePlayer_sloc1_1_0
	ld	-3(ix),e
	ld	-4(ix),#0x00
;	genAssign (pointer)
;	AOP_STK for _InitializePlayer_sloc0_1_0
;	AOP_STK for _InitializePlayer_sloc1_1_0
;	isBitvar = 0
	ld	l,-2(ix)
	ld	h,-1(ix)
	ld	a,-4(ix)
	ld	(hl),a
	inc	hl
	ld	a,-3(ix)
	ld	(hl),a
;carwar.c:448: ply->posY = posY << 8; // position Y
;	genPlus
;	AOP_STK for _InitializePlayer_sloc0_1_0
;	genPlusIncr
	ld	a,c
	add	a,#0x03
	ld	-2(ix),a
	ld	a,b
	adc	a,#0x00
	ld	-1(ix),a
;	genCast
;	AOP_STK for 
	ld	e,8(ix)
	ld	d,#0x00
;	genLeftShift
;	AOP_STK for _InitializePlayer_sloc2_1_0
	ld	-5(ix),e
	ld	-6(ix),#0x00
;	genAssign (pointer)
;	AOP_STK for _InitializePlayer_sloc0_1_0
;	AOP_STK for _InitializePlayer_sloc2_1_0
;	isBitvar = 0
	ld	l,-2(ix)
	ld	h,-1(ix)
	ld	a,-6(ix)
	ld	(hl),a
	inc	hl
	ld	a,-5(ix)
	ld	(hl),a
;carwar.c:449: ply->prevX = posX << 8; // previous position X
;	genPlus
;	genPlusIncr
	ld	a,c
	add	a,#0x05
	ld	e,a
	ld	a,b
	adc	a,#0x00
	ld	d,a
;	genAssign (pointer)
;	AOP_STK for _InitializePlayer_sloc1_1_0
;	isBitvar = 0
	ld	l,e
	ld	h,d
	ld	a,-4(ix)
	ld	(hl),a
	inc	hl
	ld	a,-3(ix)
	ld	(hl),a
;carwar.c:450: ply->prevY = posY << 8; // previous position Y
;	genPlus
;	genPlusIncr
	ld	a,c
	add	a,#0x07
	ld	e,a
	ld	a,b
	adc	a,#0x00
	ld	d,a
;	genAssign (pointer)
;	AOP_STK for _InitializePlayer_sloc2_1_0
;	isBitvar = 0
	ld	l,e
	ld	h,d
	ld	a,-6(ix)
	ld	(hl),a
	inc	hl
	ld	a,-5(ix)
	ld	(hl),a
;carwar.c:451: ply->rot = 0; // rotation
;	genPlus
;	genPlusIncr
	ld	a,c
	add	a,#0x09
	ld	e,a
	ld	a,b
	adc	a,#0x00
	ld	d,a
;	genAssign (pointer)
;	isBitvar = 0
	ld	l,e
	ld	h,d
	ld	(hl),#0x00
	inc	hl
	ld	(hl),#0x00
;carwar.c:452: ply->dX = 0; // velocity X
;	genPlus
;	genPlusIncr
	ld	a,c
	add	a,#0x0B
	ld	e,a
	ld	a,b
	adc	a,#0x00
	ld	d,a
;	genAssign (pointer)
;	isBitvar = 0
	ld	l,e
	ld	h,d
	ld	(hl),#0x00
	inc	hl
	ld	(hl),#0x00
;carwar.c:453: ply->dY = 0; // velocity Y
;	genPlus
;	genPlusIncr
	ld	a,c
	add	a,#0x0D
	ld	e,a
	ld	a,b
	adc	a,#0x00
	ld	d,a
;	genAssign (pointer)
;	isBitvar = 0
	ld	l,e
	ld	h,d
	ld	(hl),#0x00
	inc	hl
	ld	(hl),#0x00
;carwar.c:454: ply->speed = 0;
;	genPlus
;	genPlusIncr
	ld	a,c
	add	a,#0x0F
	ld	c,a
	ld	a,b
	adc	a,#0x00
	ld	b,a
;	genAssign (pointer)
;	isBitvar = 0
	ld	a,#0x00
	ld	(bc),a
;	genLabel
;	genEndFunction
	ld	sp,ix
	pop	ix
	ret
_InitializePlayer_end::
;carwar.c:460: void SetScreen8(u8 lines)
;	genLabel
;	genFunction
;	---------------------------------
; Function SetScreen8
; ---------------------------------
_SetScreen8_start::
_SetScreen8:
	push	ix
	ld	ix,#0
	add	ix,sp
;carwar.c:528: _endasm;
;	genInline
	
	
	
	
		 ld a,(#0xF3DF)
		 set #3,a
		 set #2,a
		 set #1,a
		 ld (#0xF3DF),a
		di
		 out (#0x99),a
	
		 ld a,#(0x80+0)
		 out (#0x99),a
	
	
		 ld a,(#0xF3E0)
		 res #4,a
		 res #3,a
		 ld (#0xF3E0),a
		 out (#0x99),a
	
		 ld a,#(0x80+1)
		 out (#0x99),a
	
	
		 ld a,#0x1F
		 out (#0x99),a
	
		 ld a,#(0x80+2)
		 out (#0x99),a
	
	
		 ld a,#0xEE ;
		 out (#0x99),a
	
		 ld a,#(0x80+5)
		 out (#0x99),a
	
	
		 ld a,#0x1F ;
		 out (#0x99),a
	
		 ld a,#(0x80+6)
		 out (#0x99),a
	
	
		 ld a,(#0xF3E8)
		 and #0x7F ;
		 or 4(ix) ;
		 ld (#0xF3E8),a
		 out (#0x99),a
	
		 ld a,#(0x80+9)
		 out (#0x99),a
	
	
		 ld a,#0x01 ;
		 out (#0x99),a
	
		 ld a,#(0x80+11)
		ei
		 out (#0x99),a
	
		
;	genLabel
;	genEndFunction
	pop	ix
	ret
_SetScreen8_end::
;carwar.c:532: void SetSpriteMode(u8 activate, u8 flag)
;	genLabel
;	genFunction
;	---------------------------------
; Function SetSpriteMode
; ---------------------------------
_SetSpriteMode_start::
_SetSpriteMode:
	push	ix
	ld	ix,#0
	add	ix,sp
;carwar.c:562: _endasm;
;	genInline
	
	
	
	
	
		 ld a,(#0xF3E0)
		 and #0xFC ;
		 or 5(ix)
		 ld (#0xF3E0),a
		di
		 out (#0x99),a
	
		 ld a,#(0x80+1)
		 out (#0x99),a
	
	
		 ld a,(#0xF3E7)
		 and #0xFD ;
		 or 4(ix)
		 ld (#0xF3E7),a
		 out (#0x99),a
	
		 ld a,#(0x80+8)
		ei
		 out (#0x99),a
	
		
;	genLabel
;	genEndFunction
	pop	ix
	ret
_SetSpriteMode_end::
;carwar.c:567: void SetFreq(u8 freq)
;	genLabel
;	genFunction
;	---------------------------------
; Function SetFreq
; ---------------------------------
_SetFreq_start::
_SetFreq:
	push	ix
	ld	ix,#0
	add	ix,sp
;carwar.c:571: WaitForVDP();
;	genCall
; _saveRegsForCall: sendSetSize: 0 deInUse: 0 bcInUse: 0 deSending: 0
	call	_WaitForVDP
;carwar.c:587: _endasm;
;	genInline
	
	
	
		 ld a,(#0xF3E8)
		 and #0xFD ;
		 or 4(ix)
		 ld (#0xF3E8),a
		di
		 out (#0x99),a
	
		 ld a,#(0x80+9)
		ei
		 out (#0x99),a
	
		
;	genLabel
;	genEndFunction
	pop	ix
	ret
_SetFreq_end::
;carwar.c:591: void SetPage8(i8 page)
;	genLabel
;	genFunction
;	---------------------------------
; Function SetPage8
; ---------------------------------
_SetPage8_start::
_SetPage8:
	push	ix
	ld	ix,#0
	add	ix,sp
;carwar.c:608: _endasm;
;	genInline
	
	
		 ld a,4(ix)
		 rrca
		 rrca
		 rrca
		 or #0x1F
		di
		 out (#0x99),a
		 ld a,#(0x80+2)
		ei
		 out (#0x99),a
	
		
;	genLabel
;	genEndFunction
	pop	ix
	ret
_SetPage8_end::
;carwar.c:614: void DrawPoint8(char posX, char posY, char color)
;	genLabel
;	genFunction
;	---------------------------------
; Function DrawPoint8
; ---------------------------------
_DrawPoint8_start::
_DrawPoint8:
	push	ix
	ld	ix,#0
	add	ix,sp
;carwar.c:618: WaitForVDP();
;	genCall
; _saveRegsForCall: sendSetSize: 0 deInUse: 0 bcInUse: 0 deSending: 0
	call	_WaitForVDP
;carwar.c:665: _endasm;
;	genInline
	
	
	
	
		 ld a,4(ix)
		di
		 out (#0x99),a
		 ld a,#(0x80+36)
		 out (#0x99),a
	
		 xor a
		 out (#0x99),a
		 ld a,#(0x80+37)
		 out (#0x99),a
	
	
		 ld a,5(ix)
		 out (#0x99),a
		 ld a,#(0x80+38)
		 out (#0x99),a
	
		 xor a
		 out (#0x99),a
		 ld a,#(0x80+39)
		 out (#0x99),a
	
	
		 ld a,6(ix)
		 out (#0x99),a
		 ld a,#(0x80+44)
		 out (#0x99),a
	
	
		 xor a
		 out (#0x99),a
		 ld a,#(0x80+45)
		 out (#0x99),a
	
	
		 ld a,#0x50
		 out (#0x99),a
		 ld a,#(0x80+46)
		ei
		 out (#0x99),a
	
		
;	genLabel
;	genEndFunction
	pop	ix
	ret
_DrawPoint8_end::
;carwar.c:671: void DrawLine8(char posX1, char posY1, char posX2, char posY2, char color)
;	genLabel
;	genFunction
;	---------------------------------
; Function DrawLine8
; ---------------------------------
_DrawLine8_start::
_DrawLine8:
	push	ix
	ld	ix,#0
	add	ix,sp
;carwar.c:675: WaitForVDP();
;	genCall
; _saveRegsForCall: sendSetSize: 0 deInUse: 0 bcInUse: 0 deSending: 0
;	genLabel
;	genEndFunction
	pop	ix
	jp	_WaitForVDP
_DrawLine8_end::
;carwar.c:809: void waitRetrace()
;	genLabel
;	genFunction
;	---------------------------------
; Function waitRetrace
; ---------------------------------
_waitRetrace_start::
_waitRetrace:
;carwar.c:821: _endasm;
;	genInline
	
	
		 di
	 WAIT_RETRACE:
		 in a,(0x99)
		 and #0x80
		 cp #0
		 jr z, WAIT_RETRACE
		 ei
	
		
;	genLabel
;	genEndFunction
	ret
_waitRetrace_end::
;carwar.c:827: void WaitForVDP()
;	genLabel
;	genFunction
;	---------------------------------
; Function WaitForVDP
; ---------------------------------
_WaitForVDP_start::
_WaitForVDP:
;carwar.c:848: _endasm;
;	genInline
	
	
	
		 ld a,#2
		di
		 out (#0x99),a
		 ld a,#(0x80+15)
		 out (#0x99),a
	 WAIT_VDP:
		 nop
		 in a,(#0x99)
		 rra
		 jr c,WAIT_VDP
		 xor a
		 out (#0x99),a
		 ld a,#(0x80+15)
		ei
		 out (#0x99),a
	
		
;	genLabel
;	genEndFunction
	ret
_WaitForVDP_end::
;carwar.c:854: void WriteToVRAM8(i16 addr, u8 value)
;	genLabel
;	genFunction
;	---------------------------------
; Function WriteToVRAM8
; ---------------------------------
_WriteToVRAM8_start::
_WriteToVRAM8:
	push	ix
	ld	ix,#0
	add	ix,sp
;carwar.c:858: WaitForVDP();
;	genCall
; _saveRegsForCall: sendSetSize: 0 deInUse: 0 bcInUse: 0 deSending: 0
	call	_WaitForVDP
;carwar.c:885: _endasm;
;	genInline
	
		 ;
		 ld a,5(ix) ;
		 and #0xC0 ;
		       rla
		       rla
		di
		 out (#0x99),a
		 ld a,#(0x80+14)
		 out (#0x99),a
	
		 ld a,4(ix) ;
		 out (#0x99),a
	
		 ld a,5(ix) ;
		 and #0x3F ;
		 or #0x40 ;
		 out (#0x99),a
	
		 ;
		 ld a,6(ix)
		ei
		 out (#0x98),a
	
		
;	genLabel
;	genEndFunction
	pop	ix
	ret
_WriteToVRAM8_end::
;carwar.c:891: void VPDCommandLoop(u16 address)
;	genLabel
;	genFunction
;	---------------------------------
; Function VPDCommandLoop
; ---------------------------------
_VPDCommandLoop_start::
_VPDCommandLoop:
	push	ix
	ld	ix,#0
	add	ix,sp
;carwar.c:946: _endasm;
;	genInline
	
	
		 ld l,4(ix)
		 ld h,5(ix)
	
		 di
	
	 SEND_NEXT_COLOR:
	
		 inc hl
	
		 ;
		 ;
		 ld a,(hl)
		 out (#0x99),a
		 ld a,#(0x80+44)
		 out (#0x99),a
	
	 WAIT_REG2:
	
		 ;
		 ;
		 ld a,#2
		 out (#0x99),a
		 ld a,#(0x80+15)
		 out (#0x99),a
	
		 ;
		 nop
		 in a,(#0x99)
		 ld b,a ;
		 rra ;
		 jr nc,COLOR_COPY_END
	
		 ;
		 ;
		 ld a,b ;
		 rla ;
		 jr nc,WAIT_REG2
		 jp SEND_NEXT_COLOR
	
	 COLOR_COPY_END:
	
		 ;
		 xor a
		 out (#0x99),a
		 ld a,#(0x80+15)
		 out (#0x99),a
	
		 ei
	
		
;	genLabel
;	genEndFunction
	pop	ix
	ret
_VPDCommandLoop_end::
;carwar.c:950: void RAMtoVRAM(u8 page, u8 dx, u8 dy, u8 nx, u8 ny, u16 ram)
;	genLabel
;	genFunction
;	---------------------------------
; Function RAMtoVRAM
; ---------------------------------
_RAMtoVRAM_start::
_RAMtoVRAM:
	push	ix
	ld	ix,#0
	add	ix,sp
	ld	hl,#-15
	add	hl,sp
	ld	sp,hl
;carwar.c:956: buffer.DX = dx;
;	genAddrOf
	ld	hl,#0x0004
	add	hl,sp
	ld	c,l
	ld	b,h
;	genCast
;	AOP_STK for 
	ld	e,5(ix)
	ld	d,#0x00
;	genAssign (pointer)
;	isBitvar = 0
	ld	l,c
	ld	h,b
	ld	(hl),e
	inc	hl
	ld	(hl),d
;carwar.c:957: buffer.DY = dy + ((u16)page << 8);
;	genAddrOf
	ld	hl,#0x0004
	add	hl,sp
	ld	c,l
	ld	b,h
;	genPlus
;	AOP_STK for _RAMtoVRAM_sloc0_1_0
;	genPlusIncr
	ld	a,c
	add	a,#0x02
	ld	-13(ix),a
	ld	a,b
	adc	a,#0x00
	ld	-12(ix),a
;	genCast
;	AOP_STK for 
;	AOP_STK for _RAMtoVRAM_sloc1_1_0
	ld	a,6(ix)
	ld	-15(ix),a
	ld	-14(ix),#0x00
;	genCast
;	AOP_STK for 
	ld	e,4(ix)
;	genLeftShift
	ld	d,e
	ld	e,#0x00
;	genPlus
;	AOP_STK for _RAMtoVRAM_sloc1_1_0
	ld	a,-15(ix)
	add	a,e
	ld	e,a
	ld	a,-14(ix)
	adc	a,d
	ld	d,a
;	genAssign (pointer)
;	AOP_STK for _RAMtoVRAM_sloc0_1_0
;	isBitvar = 0
	ld	l,-13(ix)
	ld	h,-12(ix)
	ld	(hl),e
	inc	hl
	ld	(hl),d
;carwar.c:958: buffer.NX = nx;
;	genPlus
;	AOP_STK for _RAMtoVRAM_sloc1_1_0
;	genPlusIncr
	ld	a,c
	add	a,#0x04
	ld	-15(ix),a
	ld	a,b
	adc	a,#0x00
	ld	-14(ix),a
;	genCast
;	AOP_STK for 
	ld	e,7(ix)
	ld	d,#0x00
;	genAssign (pointer)
;	AOP_STK for _RAMtoVRAM_sloc1_1_0
;	isBitvar = 0
	ld	l,-15(ix)
	ld	h,-14(ix)
	ld	(hl),e
	inc	hl
	ld	(hl),d
;carwar.c:959: buffer.NY = ny;
;	genPlus
;	AOP_STK for _RAMtoVRAM_sloc1_1_0
;	genPlusIncr
	ld	a,c
	add	a,#0x06
	ld	-15(ix),a
	ld	a,b
	adc	a,#0x00
	ld	-14(ix),a
;	genCast
;	AOP_STK for 
	ld	e,8(ix)
	ld	d,#0x00
;	genAssign (pointer)
;	AOP_STK for _RAMtoVRAM_sloc1_1_0
;	isBitvar = 0
	ld	l,-15(ix)
	ld	h,-14(ix)
	ld	(hl),e
	inc	hl
	ld	(hl),d
;carwar.c:960: buffer.CLR = ((u8*)ram)[0];
;	genPlus
;	AOP_STK for _RAMtoVRAM_sloc1_1_0
;	genPlusIncr
	ld	a,c
	add	a,#0x08
	ld	-15(ix),a
	ld	a,b
	adc	a,#0x00
	ld	-14(ix),a
;	genCast
;	AOP_STK for 
	ld	e,9(ix)
	ld	d,10(ix)
;	genPointerGet
	ld	a,(de)
;	genAssign (pointer)
;	AOP_STK for _RAMtoVRAM_sloc1_1_0
;	isBitvar = 0
	ld	l,-15(ix)
	ld	h,-14(ix)
	ld	(hl),a
;carwar.c:961: buffer.ARG = 0;
;	genPlus
;	genPlusIncr
	ld	a,c
	add	a,#0x09
	ld	e,a
	ld	a,b
	adc	a,#0x00
	ld	d,a
;	genAssign (pointer)
;	isBitvar = 0
	ld	a,#0x00
	ld	(de),a
;carwar.c:962: buffer.CMD = 0xF0;
;	genPlus
;	genPlusIncr
	ld	a,c
	add	a,#0x0A
	ld	e,a
	ld	a,b
	adc	a,#0x00
	ld	d,a
;	genAssign (pointer)
;	isBitvar = 0
	ld	a,#0xF0
	ld	(de),a
;carwar.c:963: VPDCommand36((u16)&buffer);
;	genAssign
;	(registers are the same)
;	genCast
;	genIpush
; _saveRegsForCall: sendSetSize: 0 deInUse: 0 bcInUse: 0 deSending: 0
	push	bc
;	genCall
	call	_VPDCommand36
	pop	af
;carwar.c:964: VPDCommandLoop(ram);
;	genIpush
; _saveRegsForCall: sendSetSize: 0 deInUse: 0 bcInUse: 0 deSending: 0
;	AOP_STK for 
	ld	l,9(ix)
	ld	h,10(ix)
	push	hl
;	genCall
	call	_VPDCommandLoop
	pop	af
;	genLabel
;	genEndFunction
	ld	sp,ix
	pop	ix
	ret
_RAMtoVRAM_end::
;carwar.c:968: void RAMtoVRAMTrans(u8 page, u8 dx, u8 dy, u8 nx, u8 ny, u16 ram)
;	genLabel
;	genFunction
;	---------------------------------
; Function RAMtoVRAMTrans
; ---------------------------------
_RAMtoVRAMTrans_start::
_RAMtoVRAMTrans:
	push	ix
	ld	ix,#0
	add	ix,sp
	ld	hl,#-15
	add	hl,sp
	ld	sp,hl
;carwar.c:972: buffer.DX = dx;
;	genAddrOf
	ld	hl,#0x0004
	add	hl,sp
	ld	c,l
	ld	b,h
;	genCast
;	AOP_STK for 
	ld	e,5(ix)
	ld	d,#0x00
;	genAssign (pointer)
;	isBitvar = 0
	ld	l,c
	ld	h,b
	ld	(hl),e
	inc	hl
	ld	(hl),d
;carwar.c:973: buffer.DY = dy + ((u16)page << 8);
;	genAddrOf
	ld	hl,#0x0004
	add	hl,sp
	ld	c,l
	ld	b,h
;	genPlus
;	AOP_STK for _RAMtoVRAMTrans_sloc0_1_0
;	genPlusIncr
	ld	a,c
	add	a,#0x02
	ld	-13(ix),a
	ld	a,b
	adc	a,#0x00
	ld	-12(ix),a
;	genCast
;	AOP_STK for 
;	AOP_STK for _RAMtoVRAMTrans_sloc1_1_0
	ld	a,6(ix)
	ld	-15(ix),a
	ld	-14(ix),#0x00
;	genCast
;	AOP_STK for 
	ld	e,4(ix)
;	genLeftShift
	ld	d,e
	ld	e,#0x00
;	genPlus
;	AOP_STK for _RAMtoVRAMTrans_sloc1_1_0
	ld	a,-15(ix)
	add	a,e
	ld	e,a
	ld	a,-14(ix)
	adc	a,d
	ld	d,a
;	genAssign (pointer)
;	AOP_STK for _RAMtoVRAMTrans_sloc0_1_0
;	isBitvar = 0
	ld	l,-13(ix)
	ld	h,-12(ix)
	ld	(hl),e
	inc	hl
	ld	(hl),d
;carwar.c:974: buffer.NX = nx;
;	genPlus
;	AOP_STK for _RAMtoVRAMTrans_sloc1_1_0
;	genPlusIncr
	ld	a,c
	add	a,#0x04
	ld	-15(ix),a
	ld	a,b
	adc	a,#0x00
	ld	-14(ix),a
;	genCast
;	AOP_STK for 
	ld	e,7(ix)
	ld	d,#0x00
;	genAssign (pointer)
;	AOP_STK for _RAMtoVRAMTrans_sloc1_1_0
;	isBitvar = 0
	ld	l,-15(ix)
	ld	h,-14(ix)
	ld	(hl),e
	inc	hl
	ld	(hl),d
;carwar.c:975: buffer.NY = ny;
;	genPlus
;	AOP_STK for _RAMtoVRAMTrans_sloc1_1_0
;	genPlusIncr
	ld	a,c
	add	a,#0x06
	ld	-15(ix),a
	ld	a,b
	adc	a,#0x00
	ld	-14(ix),a
;	genCast
;	AOP_STK for 
	ld	e,8(ix)
	ld	d,#0x00
;	genAssign (pointer)
;	AOP_STK for _RAMtoVRAMTrans_sloc1_1_0
;	isBitvar = 0
	ld	l,-15(ix)
	ld	h,-14(ix)
	ld	(hl),e
	inc	hl
	ld	(hl),d
;carwar.c:976: buffer.CLR = ((u8*)ram)[0];
;	genPlus
;	AOP_STK for _RAMtoVRAMTrans_sloc1_1_0
;	genPlusIncr
	ld	a,c
	add	a,#0x08
	ld	-15(ix),a
	ld	a,b
	adc	a,#0x00
	ld	-14(ix),a
;	genCast
;	AOP_STK for 
	ld	e,9(ix)
	ld	d,10(ix)
;	genPointerGet
	ld	a,(de)
;	genAssign (pointer)
;	AOP_STK for _RAMtoVRAMTrans_sloc1_1_0
;	isBitvar = 0
	ld	l,-15(ix)
	ld	h,-14(ix)
	ld	(hl),a
;carwar.c:977: buffer.ARG = 0;
;	genPlus
;	genPlusIncr
	ld	a,c
	add	a,#0x09
	ld	e,a
	ld	a,b
	adc	a,#0x00
	ld	d,a
;	genAssign (pointer)
;	isBitvar = 0
	ld	a,#0x00
	ld	(de),a
;carwar.c:978: buffer.CMD = 0xB8;
;	genPlus
;	genPlusIncr
	ld	a,c
	add	a,#0x0A
	ld	e,a
	ld	a,b
	adc	a,#0x00
	ld	d,a
;	genAssign (pointer)
;	isBitvar = 0
	ld	a,#0xB8
	ld	(de),a
;carwar.c:979: VPDCommand36((u16)&buffer);
;	genAssign
;	(registers are the same)
;	genCast
;	genIpush
; _saveRegsForCall: sendSetSize: 0 deInUse: 0 bcInUse: 0 deSending: 0
	push	bc
;	genCall
	call	_VPDCommand36
	pop	af
;carwar.c:980: VPDCommandLoop(ram);
;	genIpush
; _saveRegsForCall: sendSetSize: 0 deInUse: 0 bcInUse: 0 deSending: 0
;	AOP_STK for 
	ld	l,9(ix)
	ld	h,10(ix)
	push	hl
;	genCall
	call	_VPDCommandLoop
	pop	af
;	genLabel
;	genEndFunction
	ld	sp,ix
	pop	ix
	ret
_RAMtoVRAMTrans_end::
;carwar.c:984: void Fill8(u8 page, u8 dx, u8 dy, u8 nx, u8 ny, u8 color)
;	genLabel
;	genFunction
;	---------------------------------
; Function Fill8
; ---------------------------------
_Fill8_start::
_Fill8:
	push	ix
	ld	ix,#0
	add	ix,sp
	ld	hl,#-15
	add	hl,sp
	ld	sp,hl
;carwar.c:988: buffer.DX = dx;
;	genAddrOf
	ld	hl,#0x0004
	add	hl,sp
	ld	c,l
	ld	b,h
;	genCast
;	AOP_STK for 
	ld	e,5(ix)
	ld	d,#0x00
;	genAssign (pointer)
;	isBitvar = 0
	ld	l,c
	ld	h,b
	ld	(hl),e
	inc	hl
	ld	(hl),d
;carwar.c:989: buffer.DY = dy + ((u16)page << 8);
;	genAddrOf
	ld	hl,#0x0004
	add	hl,sp
	ld	c,l
	ld	b,h
;	genPlus
;	AOP_STK for _Fill8_sloc0_1_0
;	genPlusIncr
	ld	a,c
	add	a,#0x02
	ld	-13(ix),a
	ld	a,b
	adc	a,#0x00
	ld	-12(ix),a
;	genCast
;	AOP_STK for 
;	AOP_STK for _Fill8_sloc1_1_0
	ld	a,6(ix)
	ld	-15(ix),a
	ld	-14(ix),#0x00
;	genCast
;	AOP_STK for 
	ld	e,4(ix)
;	genLeftShift
	ld	d,e
	ld	e,#0x00
;	genPlus
;	AOP_STK for _Fill8_sloc1_1_0
	ld	a,-15(ix)
	add	a,e
	ld	e,a
	ld	a,-14(ix)
	adc	a,d
	ld	d,a
;	genAssign (pointer)
;	AOP_STK for _Fill8_sloc0_1_0
;	isBitvar = 0
	ld	l,-13(ix)
	ld	h,-12(ix)
	ld	(hl),e
	inc	hl
	ld	(hl),d
;carwar.c:990: buffer.NX = nx;
;	genPlus
;	AOP_STK for _Fill8_sloc1_1_0
;	genPlusIncr
	ld	a,c
	add	a,#0x04
	ld	-15(ix),a
	ld	a,b
	adc	a,#0x00
	ld	-14(ix),a
;	genCast
;	AOP_STK for 
	ld	e,7(ix)
	ld	d,#0x00
;	genAssign (pointer)
;	AOP_STK for _Fill8_sloc1_1_0
;	isBitvar = 0
	ld	l,-15(ix)
	ld	h,-14(ix)
	ld	(hl),e
	inc	hl
	ld	(hl),d
;carwar.c:991: buffer.NY = ny;
;	genPlus
;	AOP_STK for _Fill8_sloc1_1_0
;	genPlusIncr
	ld	a,c
	add	a,#0x06
	ld	-15(ix),a
	ld	a,b
	adc	a,#0x00
	ld	-14(ix),a
;	genCast
;	AOP_STK for 
	ld	e,8(ix)
	ld	d,#0x00
;	genAssign (pointer)
;	AOP_STK for _Fill8_sloc1_1_0
;	isBitvar = 0
	ld	l,-15(ix)
	ld	h,-14(ix)
	ld	(hl),e
	inc	hl
	ld	(hl),d
;carwar.c:992: buffer.CLR = color;
;	genPlus
;	genPlusIncr
	ld	a,c
	add	a,#0x08
	ld	e,a
	ld	a,b
	adc	a,#0x00
	ld	d,a
;	genAssign (pointer)
;	AOP_STK for 
;	isBitvar = 0
	ld	a,9(ix)
	ld	(de),a
;carwar.c:993: buffer.ARG = 0;
;	genPlus
;	genPlusIncr
	ld	a,c
	add	a,#0x09
	ld	e,a
	ld	a,b
	adc	a,#0x00
	ld	d,a
;	genAssign (pointer)
;	isBitvar = 0
	ld	a,#0x00
	ld	(de),a
;carwar.c:994: buffer.CMD = 0xC0;
;	genPlus
;	genPlusIncr
	ld	a,c
	add	a,#0x0A
	ld	e,a
	ld	a,b
	adc	a,#0x00
	ld	d,a
;	genAssign (pointer)
;	isBitvar = 0
	ld	a,#0xC0
	ld	(de),a
;carwar.c:995: VPDCommand36((u16)&buffer);
;	genAssign
;	(registers are the same)
;	genCast
;	genIpush
; _saveRegsForCall: sendSetSize: 0 deInUse: 0 bcInUse: 0 deSending: 0
	push	bc
;	genCall
	call	_VPDCommand36
	pop	af
;	genLabel
;	genEndFunction
	ld	sp,ix
	pop	ix
	ret
_Fill8_end::
;carwar.c:999: void VRAMtoVRAM(u8 sPage, u8 sx, u8 sy, u8 dPage, u8 dx, u8 dy, u8 nx, u8 ny)
;	genLabel
;	genFunction
;	---------------------------------
; Function VRAMtoVRAM
; ---------------------------------
_VRAMtoVRAM_start::
_VRAMtoVRAM:
	push	ix
	ld	ix,#0
	add	ix,sp
	ld	hl,#-19
	add	hl,sp
	ld	sp,hl
;carwar.c:1003: buffer.SX = sx;
;	genAddrOf
	ld	hl,#0x0004
	add	hl,sp
	ld	c,l
	ld	b,h
;	genCast
;	AOP_STK for 
	ld	e,5(ix)
	ld	d,#0x00
;	genAssign (pointer)
;	isBitvar = 0
	ld	l,c
	ld	h,b
	ld	(hl),e
	inc	hl
	ld	(hl),d
;carwar.c:1004: buffer.SY = sy + ((u16)sPage << 8);
;	genAddrOf
	ld	hl,#0x0004
	add	hl,sp
	ld	c,l
	ld	b,h
;	genPlus
;	AOP_STK for _VRAMtoVRAM_sloc0_1_0
;	genPlusIncr
	ld	a,c
	add	a,#0x02
	ld	-17(ix),a
	ld	a,b
	adc	a,#0x00
	ld	-16(ix),a
;	genCast
;	AOP_STK for 
;	AOP_STK for _VRAMtoVRAM_sloc1_1_0
	ld	a,6(ix)
	ld	-19(ix),a
	ld	-18(ix),#0x00
;	genCast
;	AOP_STK for 
	ld	e,4(ix)
;	genLeftShift
	ld	d,e
	ld	e,#0x00
;	genPlus
;	AOP_STK for _VRAMtoVRAM_sloc1_1_0
	ld	a,-19(ix)
	add	a,e
	ld	e,a
	ld	a,-18(ix)
	adc	a,d
	ld	d,a
;	genAssign (pointer)
;	AOP_STK for _VRAMtoVRAM_sloc0_1_0
;	isBitvar = 0
	ld	l,-17(ix)
	ld	h,-16(ix)
	ld	(hl),e
	inc	hl
	ld	(hl),d
;carwar.c:1005: buffer.DX = dx;
;	genPlus
;	AOP_STK for _VRAMtoVRAM_sloc1_1_0
;	genPlusIncr
	ld	a,c
	add	a,#0x04
	ld	-19(ix),a
	ld	a,b
	adc	a,#0x00
	ld	-18(ix),a
;	genCast
;	AOP_STK for 
	ld	e,8(ix)
	ld	d,#0x00
;	genAssign (pointer)
;	AOP_STK for _VRAMtoVRAM_sloc1_1_0
;	isBitvar = 0
	ld	l,-19(ix)
	ld	h,-18(ix)
	ld	(hl),e
	inc	hl
	ld	(hl),d
;carwar.c:1006: buffer.DY = dy + ((u16)dPage << 8);
;	genPlus
;	AOP_STK for _VRAMtoVRAM_sloc1_1_0
;	genPlusIncr
	ld	a,c
	add	a,#0x06
	ld	-19(ix),a
	ld	a,b
	adc	a,#0x00
	ld	-18(ix),a
;	genCast
;	AOP_STK for 
;	AOP_STK for _VRAMtoVRAM_sloc0_1_0
	ld	a,9(ix)
	ld	-17(ix),a
	ld	-16(ix),#0x00
;	genCast
;	AOP_STK for 
	ld	e,7(ix)
;	genLeftShift
	ld	d,e
	ld	e,#0x00
;	genPlus
;	AOP_STK for _VRAMtoVRAM_sloc0_1_0
	ld	a,-17(ix)
	add	a,e
	ld	e,a
	ld	a,-16(ix)
	adc	a,d
	ld	d,a
;	genAssign (pointer)
;	AOP_STK for _VRAMtoVRAM_sloc1_1_0
;	isBitvar = 0
	ld	l,-19(ix)
	ld	h,-18(ix)
	ld	(hl),e
	inc	hl
	ld	(hl),d
;carwar.c:1007: buffer.NX = nx;
;	genPlus
;	AOP_STK for _VRAMtoVRAM_sloc1_1_0
;	genPlusIncr
	ld	a,c
	add	a,#0x08
	ld	-19(ix),a
	ld	a,b
	adc	a,#0x00
	ld	-18(ix),a
;	genCast
;	AOP_STK for 
	ld	e,10(ix)
	ld	d,#0x00
;	genAssign (pointer)
;	AOP_STK for _VRAMtoVRAM_sloc1_1_0
;	isBitvar = 0
	ld	l,-19(ix)
	ld	h,-18(ix)
	ld	(hl),e
	inc	hl
	ld	(hl),d
;carwar.c:1008: buffer.NY = ny;
;	genPlus
;	AOP_STK for _VRAMtoVRAM_sloc1_1_0
;	genPlusIncr
	ld	a,c
	add	a,#0x0A
	ld	-19(ix),a
	ld	a,b
	adc	a,#0x00
	ld	-18(ix),a
;	genCast
;	AOP_STK for 
	ld	e,11(ix)
	ld	d,#0x00
;	genAssign (pointer)
;	AOP_STK for _VRAMtoVRAM_sloc1_1_0
;	isBitvar = 0
	ld	l,-19(ix)
	ld	h,-18(ix)
	ld	(hl),e
	inc	hl
	ld	(hl),d
;carwar.c:1009: buffer.CLR = 0;
;	genPlus
;	genPlusIncr
	ld	a,c
	add	a,#0x0C
	ld	e,a
	ld	a,b
	adc	a,#0x00
	ld	d,a
;	genAssign (pointer)
;	isBitvar = 0
	ld	a,#0x00
	ld	(de),a
;carwar.c:1010: buffer.ARG = 0;
;	genPlus
;	genPlusIncr
	ld	a,c
	add	a,#0x0D
	ld	e,a
	ld	a,b
	adc	a,#0x00
	ld	d,a
;	genAssign (pointer)
;	isBitvar = 0
	ld	a,#0x00
	ld	(de),a
;carwar.c:1011: buffer.CMD = 0xF0;
;	genPlus
;	genPlusIncr
	ld	a,c
	add	a,#0x0E
	ld	e,a
	ld	a,b
	adc	a,#0x00
	ld	d,a
;	genAssign (pointer)
;	isBitvar = 0
	ld	a,#0xF0
	ld	(de),a
;carwar.c:1012: VPDCommand32((u16)&buffer);
;	genAssign
;	(registers are the same)
;	genCast
;	genIpush
; _saveRegsForCall: sendSetSize: 0 deInUse: 0 bcInUse: 0 deSending: 0
	push	bc
;	genCall
	call	_VPDCommand32
	pop	af
;	genLabel
;	genEndFunction
	ld	sp,ix
	pop	ix
	ret
_VRAMtoVRAM_end::
;carwar.c:1016: void VRAMtoVRAMTrans(u8 sPage, u8 sx, u8 sy, u8 dPage, u8 dx, u8 dy, u8 nx, u8 ny)
;	genLabel
;	genFunction
;	---------------------------------
; Function VRAMtoVRAMTrans
; ---------------------------------
_VRAMtoVRAMTrans_start::
_VRAMtoVRAMTrans:
	push	ix
	ld	ix,#0
	add	ix,sp
	ld	hl,#-19
	add	hl,sp
	ld	sp,hl
;carwar.c:1020: buffer.SX = sx;
;	genAddrOf
	ld	hl,#0x0004
	add	hl,sp
	ld	c,l
	ld	b,h
;	genCast
;	AOP_STK for 
	ld	e,5(ix)
	ld	d,#0x00
;	genAssign (pointer)
;	isBitvar = 0
	ld	l,c
	ld	h,b
	ld	(hl),e
	inc	hl
	ld	(hl),d
;carwar.c:1021: buffer.SY = sy + ((u16)sPage << 8);
;	genAddrOf
	ld	hl,#0x0004
	add	hl,sp
	ld	c,l
	ld	b,h
;	genPlus
;	AOP_STK for _VRAMtoVRAMTrans_sloc0_1_0
;	genPlusIncr
	ld	a,c
	add	a,#0x02
	ld	-17(ix),a
	ld	a,b
	adc	a,#0x00
	ld	-16(ix),a
;	genCast
;	AOP_STK for 
;	AOP_STK for _VRAMtoVRAMTrans_sloc1_1_0
	ld	a,6(ix)
	ld	-19(ix),a
	ld	-18(ix),#0x00
;	genCast
;	AOP_STK for 
	ld	e,4(ix)
;	genLeftShift
	ld	d,e
	ld	e,#0x00
;	genPlus
;	AOP_STK for _VRAMtoVRAMTrans_sloc1_1_0
	ld	a,-19(ix)
	add	a,e
	ld	e,a
	ld	a,-18(ix)
	adc	a,d
	ld	d,a
;	genAssign (pointer)
;	AOP_STK for _VRAMtoVRAMTrans_sloc0_1_0
;	isBitvar = 0
	ld	l,-17(ix)
	ld	h,-16(ix)
	ld	(hl),e
	inc	hl
	ld	(hl),d
;carwar.c:1022: buffer.DX = dx;
;	genPlus
;	AOP_STK for _VRAMtoVRAMTrans_sloc1_1_0
;	genPlusIncr
	ld	a,c
	add	a,#0x04
	ld	-19(ix),a
	ld	a,b
	adc	a,#0x00
	ld	-18(ix),a
;	genCast
;	AOP_STK for 
	ld	e,8(ix)
	ld	d,#0x00
;	genAssign (pointer)
;	AOP_STK for _VRAMtoVRAMTrans_sloc1_1_0
;	isBitvar = 0
	ld	l,-19(ix)
	ld	h,-18(ix)
	ld	(hl),e
	inc	hl
	ld	(hl),d
;carwar.c:1023: buffer.DY = dy + ((u16)dPage << 8);
;	genPlus
;	AOP_STK for _VRAMtoVRAMTrans_sloc1_1_0
;	genPlusIncr
	ld	a,c
	add	a,#0x06
	ld	-19(ix),a
	ld	a,b
	adc	a,#0x00
	ld	-18(ix),a
;	genCast
;	AOP_STK for 
;	AOP_STK for _VRAMtoVRAMTrans_sloc0_1_0
	ld	a,9(ix)
	ld	-17(ix),a
	ld	-16(ix),#0x00
;	genCast
;	AOP_STK for 
	ld	e,7(ix)
;	genLeftShift
	ld	d,e
	ld	e,#0x00
;	genPlus
;	AOP_STK for _VRAMtoVRAMTrans_sloc0_1_0
	ld	a,-17(ix)
	add	a,e
	ld	e,a
	ld	a,-16(ix)
	adc	a,d
	ld	d,a
;	genAssign (pointer)
;	AOP_STK for _VRAMtoVRAMTrans_sloc1_1_0
;	isBitvar = 0
	ld	l,-19(ix)
	ld	h,-18(ix)
	ld	(hl),e
	inc	hl
	ld	(hl),d
;carwar.c:1024: buffer.NX = nx;
;	genPlus
;	AOP_STK for _VRAMtoVRAMTrans_sloc1_1_0
;	genPlusIncr
	ld	a,c
	add	a,#0x08
	ld	-19(ix),a
	ld	a,b
	adc	a,#0x00
	ld	-18(ix),a
;	genCast
;	AOP_STK for 
	ld	e,10(ix)
	ld	d,#0x00
;	genAssign (pointer)
;	AOP_STK for _VRAMtoVRAMTrans_sloc1_1_0
;	isBitvar = 0
	ld	l,-19(ix)
	ld	h,-18(ix)
	ld	(hl),e
	inc	hl
	ld	(hl),d
;carwar.c:1025: buffer.NY = ny;
;	genPlus
;	AOP_STK for _VRAMtoVRAMTrans_sloc1_1_0
;	genPlusIncr
	ld	a,c
	add	a,#0x0A
	ld	-19(ix),a
	ld	a,b
	adc	a,#0x00
	ld	-18(ix),a
;	genCast
;	AOP_STK for 
	ld	e,11(ix)
	ld	d,#0x00
;	genAssign (pointer)
;	AOP_STK for _VRAMtoVRAMTrans_sloc1_1_0
;	isBitvar = 0
	ld	l,-19(ix)
	ld	h,-18(ix)
	ld	(hl),e
	inc	hl
	ld	(hl),d
;carwar.c:1026: buffer.CLR = 0;
;	genPlus
;	genPlusIncr
	ld	a,c
	add	a,#0x0C
	ld	e,a
	ld	a,b
	adc	a,#0x00
	ld	d,a
;	genAssign (pointer)
;	isBitvar = 0
	ld	a,#0x00
	ld	(de),a
;carwar.c:1027: buffer.ARG = 0;
;	genPlus
;	genPlusIncr
	ld	a,c
	add	a,#0x0D
	ld	e,a
	ld	a,b
	adc	a,#0x00
	ld	d,a
;	genAssign (pointer)
;	isBitvar = 0
	ld	a,#0x00
	ld	(de),a
;carwar.c:1028: buffer.CMD = 0x98;
;	genPlus
;	genPlusIncr
	ld	a,c
	add	a,#0x0E
	ld	e,a
	ld	a,b
	adc	a,#0x00
	ld	d,a
;	genAssign (pointer)
;	isBitvar = 0
	ld	a,#0x98
	ld	(de),a
;carwar.c:1029: VPDCommand32((u16)&buffer);
;	genAssign
;	(registers are the same)
;	genCast
;	genIpush
; _saveRegsForCall: sendSetSize: 0 deInUse: 0 bcInUse: 0 deSending: 0
	push	bc
;	genCall
	call	_VPDCommand32
	pop	af
;	genLabel
;	genEndFunction
	ld	sp,ix
	pop	ix
	ret
_VRAMtoVRAMTrans_end::
;carwar.c:1042: void VPDCommand32(u16 address)
;	genLabel
;	genFunction
;	---------------------------------
; Function VPDCommand32
; ---------------------------------
_VPDCommand32_start::
_VPDCommand32:
	push	ix
	ld	ix,#0
	add	ix,sp
;carwar.c:1046: WaitForVDP();
;	genCall
; _saveRegsForCall: sendSetSize: 0 deInUse: 0 bcInUse: 0 deSending: 0
	call	_WaitForVDP
;carwar.c:1076: _endasm;
;	genInline
	
	
		 ld l,4(ix)
		 ld h,5(ix)
	
		 ld a,#32
		di
		 out (#0x99),a
		 ld a,#(0x80+17)
		 out (#0x99),a
		 ld c,#0x99 +#2
		 outi
		 outi
		 outi
		 outi
		 outi
		 outi
		 outi
		 outi
		 outi
		 outi
		 outi
		 outi
		 outi
		 outi
		ei
		 outi
	
		
;	genLabel
;	genEndFunction
	pop	ix
	ret
_VPDCommand32_end::
;carwar.c:1082: void VPDCommand36(u16 address)
;	genLabel
;	genFunction
;	---------------------------------
; Function VPDCommand36
; ---------------------------------
_VPDCommand36_start::
_VPDCommand36:
	push	ix
	ld	ix,#0
	add	ix,sp
;carwar.c:1086: WaitForVDP();
;	genCall
; _saveRegsForCall: sendSetSize: 0 deInUse: 0 bcInUse: 0 deSending: 0
	call	_WaitForVDP
;carwar.c:1112: _endasm;
;	genInline
	
	
		 ld l,4(ix)
		 ld h,5(ix)
		 ;
		 ld a,#36 ;
		di
		 out (#0x99),a
		 ld a,#(0x80+17)
		 out (#0x99),a ;
		 ld c,#0x99 +#2 ;
		 outi
		 outi
		 outi
		 outi
		 outi
		 outi
		 outi
		 outi
		 outi
		 outi
		ei ;
		 outi
	
		
;	genLabel
;	genEndFunction
	pop	ix
	ret
_VPDCommand36_end::
;carwar.c:1115: void PrintSprite(u8 X, u8 Y, const char* text)
;	genLabel
;	genFunction
;	---------------------------------
; Function PrintSprite
; ---------------------------------
_PrintSprite_start::
_PrintSprite:
	push	ix
	ld	ix,#0
	add	ix,sp
;carwar.c:1117: X; Y; text;
;	genLabel
;	genEndFunction
	pop	ix
	ret
_PrintSprite_end::
;carwar.c:1120: void SetSprite(u8 index, u8 X, u8 Y, u8 shape)
;	genLabel
;	genFunction
;	---------------------------------
; Function SetSprite
; ---------------------------------
_SetSprite_start::
_SetSprite:
	push	ix
	ld	ix,#0
	add	ix,sp
	ld	hl,#-4
	add	hl,sp
	ld	sp,hl
;carwar.c:1123: sprt.posX = X;
;	genAddrOf
	ld	hl,#0x0000
	add	hl,sp
	ld	c,l
	ld	b,h
;	genPlus
;	genPlusIncr
	ld	e,c
	ld	d,b
	inc	de
;	genAssign (pointer)
;	AOP_STK for 
;	isBitvar = 0
	ld	a,5(ix)
	ld	(de),a
;carwar.c:1124: sprt.posY = Y;
;	genAssign (pointer)
;	AOP_STK for 
;	isBitvar = 0
	ld	a,6(ix)
	ld	(bc),a
;carwar.c:1125: sprt.index = shape;
;	genPlus
;	genPlusIncr
	ld	e,c
	ld	d,b
	inc	de
	inc	de
;	genAssign (pointer)
;	AOP_STK for 
;	isBitvar = 0
	ld	a,7(ix)
	ld	(de),a
;carwar.c:1128: RAMtoVRAM(0, 0, 247, 4, 1, (u16)&sprt);
;	genAssign
;	(registers are the same)
;	genCast
;	genIpush
; _saveRegsForCall: sendSetSize: 0 deInUse: 0 bcInUse: 0 deSending: 0
	push	bc
;	genIpush
	ld	hl,#0x0104
	push	hl
;	genIpush
	ld	hl,#0xF700
	push	hl
;	genIpush
	ld	a,#0x00
	push	af
	inc	sp
;	genCall
	call	_RAMtoVRAM
	pop	af
	pop	af
	pop	af
	inc	sp
;carwar.c:1129: RAMtoVRAM(0, 0, 245, 8, 1, (u16)&defaultColor);
;	genCast
	ld	c,#<_defaultColor
	ld	b,#>_defaultColor
;	genIpush
; _saveRegsForCall: sendSetSize: 0 deInUse: 0 bcInUse: 0 deSending: 0
	push	bc
;	genIpush
	ld	hl,#0x0108
	push	hl
;	genIpush
	ld	hl,#0xF500
	push	hl
;	genIpush
	ld	a,#0x00
	push	af
	inc	sp
;	genCall
	call	_RAMtoVRAM
	pop	af
	pop	af
	pop	af
	inc	sp
;	genLabel
;	genEndFunction
	ld	sp,ix
	pop	ix
	ret
_SetSprite_end::
	.area _CODE
	.area _CABS
