;--------------------------------------------------------
; File Created by SDCC : free open source ANSI-C Compiler
; Version 2.8.0 #5117 (Mar 23 2008) (MINGW32)
; This file was generated Fri Jan 28 01:29:59 2011
;--------------------------------------------------------
	.module carwar
	.optsdcc -mz80
	
;--------------------------------------------------------
; Public variables in this module
;--------------------------------------------------------
	.globl _main
	.globl _backgound
	.globl _shadow
	.globl _car4
	.globl _car3
	.globl _car2
	.globl _car1
	.globl _MainLoop
	.globl _InitializePlayer
	.globl _SetScreen8
	.globl _SetPage8
	.globl _DrawPoint8
	.globl _DrawLine8
	.globl _waitRetrace
	.globl _WaitForVDP
	.globl _Joystick
	.globl _Joytrig
	.globl _GetKeyMatrixLine
	.globl _SetTo50Hz
	.globl _SetTo60Hz
	.globl _WriteToVRAM8
	.globl _VPDCommandLoop
	.globl _RAMtoVRAM
	.globl _RAMtoVRAMTrans
	.globl _Fill8
	.globl _VPDCommand32
	.globl _VPDCommand36
;--------------------------------------------------------
; special function registers
;--------------------------------------------------------
_g_slotPort	=	0x00a8
;--------------------------------------------------------
;  ram data
;--------------------------------------------------------
	.area _DATA
;--------------------------------------------------------
; overlayable items in  ram 
;--------------------------------------------------------
	.area _OVERLAY
;--------------------------------------------------------
; external initialized ram data
;--------------------------------------------------------
;--------------------------------------------------------
; global & static initialisations
;--------------------------------------------------------
	.area _HOME
	.area _GSINIT
	.area _GSFINAL
	.area _GSINIT
;--------------------------------------------------------
; Home
;--------------------------------------------------------
	.area _HOME
	.area _HOME
;--------------------------------------------------------
; code
;--------------------------------------------------------
	.area _CODE
;carwar.c:196: void main(void)
;	genLabel
;	genFunction
;	---------------------------------
; Function main
; ---------------------------------
_main_start::
_main:
;carwar.c:202: _endasm;
;	genInline
	
		 di
		 ld sp, (#0xFC4A)
		 ei
		
;carwar.c:204: g_slotPort = (g_slotPort & 0xCF) | ((g_slotPort & 0x0C) << 2);
;	genAnd
;Z80 AOP_SFR for _g_slotPort banked:0 bc:1 de:0
	in	a,(_g_slotPort)
	and	a,#0xCF
	ld	c,a
;	genAnd
;Z80 AOP_SFR for _g_slotPort banked:0 bc:1 de:0
	in	a,(_g_slotPort)
	and	a,#0x0C
	ld	b,a
;	genLeftShift
	sla	b
	sla	b
;	genOr
;Z80 AOP_SFR for _g_slotPort banked:0 bc:1 de:0
	ld	a,c
	or	a,b
	out	(_g_slotPort),a
;carwar.c:206: MainLoop();
;	genCall
; _saveRegsForCall: sendSetSize: 0 deInUse: 0 bcInUse: 0 deSending: 0
;	genLabel
;	genEndFunction
	jp	_MainLoop
_main_end::
_car1:
	.db #0x00
	.db #0x00
	.db #0x00
	.db #0x00
	.db #0x00
	.db #0x00
	.db #0x00
	.db #0x00
	.db #0x00
	.db #0x00
	.db #0x00
	.db #0x00
	.db #0x00
	.db #0x00
	.db #0x00
	.db #0x00
	.db #0x00
	.db #0x00
	.db #0x00
	.db #0x00
	.db #0x00
	.db #0x00
	.db #0x00
	.db #0x00
	.db #0x00
	.db #0x00
	.db #0x00
	.db #0x00
	.db #0x04
	.db #0x04
	.db #0x04
	.db #0x10
	.db #0x21
	.db #0x00
	.db #0x00
	.db #0x00
	.db #0x00
	.db #0x00
	.db #0x00
	.db #0x6D
	.db #0x49
	.db #0x04
	.db #0x21
	.db #0x04
	.db #0xFB
	.db #0x21
	.db #0x21
	.db #0x91
	.db #0x92
	.db #0xBC
	.db #0x6D
	.db #0x00
	.db #0x00
	.db #0x04
	.db #0x21
	.db #0x42
	.db #0x04
	.db #0xD6
	.db #0x63
	.db #0x42
	.db #0xDA
	.db #0xB6
	.db #0x49
	.db #0x6D
	.db #0x00
	.db #0x00
	.db #0x04
	.db #0x21
	.db #0x63
	.db #0x04
	.db #0x1C
	.db #0x42
	.db #0x42
	.db #0xDA
	.db #0x92
	.db #0xFC
	.db #0x6D
	.db #0x00
	.db #0x00
	.db #0x04
	.db #0x04
	.db #0x04
	.db #0x04
	.db #0x04
	.db #0x04
	.db #0x92
	.db #0xDA
	.db #0xDA
	.db #0xDA
	.db #0x91
	.db #0x00
	.db #0x00
	.db #0x04
	.db #0x04
	.db #0x04
	.db #0x04
	.db #0x04
	.db #0x49
	.db #0x6D
	.db #0x6D
	.db #0x04
	.db #0x04
	.db #0x6D
	.db #0x00
	.db #0x00
	.db #0x00
	.db #0x04
	.db #0x04
	.db #0x00
	.db #0x00
	.db #0x00
	.db #0x00
	.db #0x00
	.db #0x04
	.db #0x04
	.db #0x00
	.db #0x00
	.db #0x00
	.db #0x00
	.db #0x00
	.db #0x00
	.db #0x00
	.db #0x00
	.db #0x00
	.db #0x00
	.db #0x00
	.db #0x00
	.db #0x00
	.db #0x00
	.db #0x00
	.db #0x00
	.db #0x00
	.db #0x00
	.db #0x00
	.db #0x00
	.db #0x00
	.db #0x00
	.db #0x00
	.db #0x00
	.db #0x00
	.db #0x00
	.db #0x00
	.db #0x00
	.db #0x00
	.db #0x00
	.db #0x00
	.db #0x00
	.db #0x00
	.db #0x00
	.db #0x00
	.db #0x00
	.db #0x00
	.db #0x00
	.db #0x00
	.db #0x00
	.db #0x00
	.db #0x00
	.db #0x00
	.db #0x00
	.db #0x00
	.db #0x00
	.db #0x00
	.db #0x00
	.db #0x00
	.db #0x00
	.db #0x00
	.db #0x00
	.db #0x00
	.db #0x00
	.db #0x00
	.db #0x00
	.db #0x00
	.db #0x00
	.db #0x00
	.db #0x10
	.db #0x21
	.db #0x00
	.db #0x6D
	.db #0xB8
	.db #0x49
	.db #0x00
	.db #0x00
	.db #0x00
	.db #0x00
	.db #0x00
	.db #0x04
	.db #0x04
	.db #0xFB
	.db #0x21
	.db #0x21
	.db #0x21
	.db #0xB6
	.db #0x49
	.db #0x6D
	.db #0x00
	.db #0x00
	.db #0x04
	.db #0x04
	.db #0x04
	.db #0x04
	.db #0xD6
	.db #0x63
	.db #0x42
	.db #0x21
	.db #0x92
	.db #0xDA
	.db #0x6D
	.db #0x00
	.db #0x6D
	.db #0x04
	.db #0x21
	.db #0x21
	.db #0x04
	.db #0x04
	.db #0x1C
	.db #0x42
	.db #0x21
	.db #0xDA
	.db #0xDC
	.db #0x49
	.db #0x00
	.db #0x00
	.db #0x04
	.db #0x04
	.db #0x42
	.db #0x42
	.db #0x04
	.db #0x04
	.db #0x04
	.db #0x92
	.db #0x6D
	.db #0x49
	.db #0x04
	.db #0x00
	.db #0x00
	.db #0x04
	.db #0x04
	.db #0x04
	.db #0x04
	.db #0x04
	.db #0x04
	.db #0x6D
	.db #0x6D
	.db #0x49
	.db #0x04
	.db #0x04
	.db #0x00
	.db #0x00
	.db #0x00
	.db #0x04
	.db #0x04
	.db #0x04
	.db #0x00
	.db #0x00
	.db #0x00
	.db #0x00
	.db #0x00
	.db #0x00
	.db #0x00
	.db #0x00
	.db #0x00
	.db #0x00
	.db #0x00
	.db #0x00
	.db #0x00
	.db #0x00
	.db #0x00
	.db #0x00
	.db #0x00
	.db #0x00
	.db #0x00
	.db #0x00
	.db #0x00
	.db #0x00
	.db #0x00
	.db #0x00
	.db #0x00
	.db #0x00
	.db #0x00
	.db #0x00
	.db #0x00
	.db #0x00
	.db #0x00
	.db #0x00
	.db #0x00
	.db #0x00
	.db #0x00
	.db #0x00
	.db #0x00
	.db #0x00
	.db #0x00
	.db #0x00
	.db #0x00
	.db #0x49
	.db #0x6D
	.db #0x00
	.db #0x00
	.db #0x00
	.db #0x00
	.db #0x00
	.db #0x00
	.db #0x00
	.db #0x00
	.db #0x00
	.db #0x00
	.db #0x6D
	.db #0x6D
	.db #0xBC
	.db #0x49
	.db #0x00
	.db #0x00
	.db #0x00
	.db #0x00
	.db #0x00
	.db #0x00
	.db #0x00
	.db #0x00
	.db #0x21
	.db #0x21
	.db #0xB6
	.db #0xDA
	.db #0x91
	.db #0x49
	.db #0x00
	.db #0x00
	.db #0x00
	.db #0x00
	.db #0x00
	.db #0x10
	.db #0x04
	.db #0x41
	.db #0x62
	.db #0x41
	.db #0xDA
	.db #0xDA
	.db #0xFC
	.db #0x6D
	.db #0x00
	.db #0x00
	.db #0x00
	.db #0x00
	.db #0xB2
	.db #0xFB
	.db #0x04
	.db #0x04
	.db #0x63
	.db #0x04
	.db #0xDA
	.db #0x91
	.db #0x04
	.db #0x00
	.db #0x00
	.db #0x00
	.db #0x04
	.db #0x21
	.db #0x04
	.db #0x1C
	.db #0x04
	.db #0x04
	.db #0x04
	.db #0x91
	.db #0x04
	.db #0x00
	.db #0x00
	.db #0x00
	.db #0x04
	.db #0x21
	.db #0x41
	.db #0x63
	.db #0x42
	.db #0x04
	.db #0x04
	.db #0x6D
	.db #0x00
	.db #0x00
	.db #0x00
	.db #0x00
	.db #0x00
	.db #0x6D
	.db #0x04
	.db #0x04
	.db #0x42
	.db #0x04
	.db #0x04
	.db #0x04
	.db #0x49
	.db #0x00
	.db #0x00
	.db #0x00
	.db #0x00
	.db #0x00
	.db #0x00
	.db #0x04
	.db #0x04
	.db #0x04
	.db #0x04
	.db #0x04
	.db #0x00
	.db #0x00
	.db #0x00
	.db #0x00
	.db #0x00
	.db #0x00
	.db #0x00
	.db #0x00
	.db #0x00
	.db #0x04
	.db #0x04
	.db #0x04
	.db #0x00
	.db #0x00
	.db #0x00
	.db #0x00
	.db #0x00
	.db #0x00
	.db #0x00
	.db #0x00
	.db #0x00
	.db #0x00
	.db #0x00
	.db #0x00
	.db #0x00
	.db #0x00
	.db #0x00
	.db #0x00
	.db #0x00
	.db #0x00
	.db #0x00
	.db #0x00
	.db #0x00
	.db #0x00
	.db #0x00
	.db #0x00
	.db #0x00
	.db #0x00
	.db #0xB6
	.db #0xB8
	.db #0x00
	.db #0x00
	.db #0x00
	.db #0x00
	.db #0x00
	.db #0x00
	.db #0x00
	.db #0x00
	.db #0x00
	.db #0x00
	.db #0x92
	.db #0xDA
	.db #0x6D
	.db #0x6D
	.db #0xB8
	.db #0x00
	.db #0x00
	.db #0x00
	.db #0x00
	.db #0x00
	.db #0x00
	.db #0x00
	.db #0x00
	.db #0xDA
	.db #0xDA
	.db #0xDA
	.db #0xB6
	.db #0x91
	.db #0x49
	.db #0x00
	.db #0x00
	.db #0x00
	.db #0x00
	.db #0x00
	.db #0x00
	.db #0x21
	.db #0x21
	.db #0x42
	.db #0xDA
	.db #0xDA
	.db #0x6D
	.db #0x24
	.db #0x00
	.db #0x00
	.db #0x00
	.db #0x00
	.db #0x00
	.db #0x10
	.db #0x04
	.db #0x21
	.db #0x42
	.db #0x63
	.db #0x91
	.db #0x49
	.db #0x04
	.db #0x00
	.db #0x00
	.db #0x00
	.db #0x00
	.db #0x00
	.db #0xB2
	.db #0xFB
	.db #0x04
	.db #0x04
	.db #0x63
	.db #0x24
	.db #0x24
	.db #0x00
	.db #0x00
	.db #0x00
	.db #0x00
	.db #0x00
	.db #0x00
	.db #0x04
	.db #0x04
	.db #0x1C
	.db #0x04
	.db #0x04
	.db #0x04
	.db #0x04
	.db #0x00
	.db #0x00
	.db #0x00
	.db #0x00
	.db #0x00
	.db #0x04
	.db #0x21
	.db #0x42
	.db #0x63
	.db #0x04
	.db #0x04
	.db #0x04
	.db #0x00
	.db #0x00
	.db #0x00
	.db #0x00
	.db #0x00
	.db #0x00
	.db #0x04
	.db #0x04
	.db #0x21
	.db #0x21
	.db #0x21
	.db #0x04
	.db #0x04
	.db #0x00
	.db #0x00
	.db #0x00
	.db #0x00
	.db #0x00
	.db #0x00
	.db #0x6D
	.db #0x04
	.db #0x04
	.db #0x04
	.db #0x04
	.db #0x04
	.db #0x00
	.db #0x00
	.db #0x00
	.db #0x00
	.db #0x00
	.db #0x00
	.db #0x00
	.db #0x00
	.db #0x00
	.db #0x04
	.db #0x04
	.db #0x04
	.db #0x04
	.db #0x00
	.db #0x00
	.db #0x00
	.db #0x00
	.db #0x00
	.db #0x00
	.db #0x00
	.db #0x00
	.db #0x6D
	.db #0x98
	.db #0x24
	.db #0x49
	.db #0x98
	.db #0x6D
	.db #0x00
	.db #0x00
	.db #0x00
	.db #0x00
	.db #0x00
	.db #0x00
	.db #0x00
	.db #0xB6
	.db #0x92
	.db #0xDA
	.db #0xDA
	.db #0x92
	.db #0xB6
	.db #0x00
	.db #0x00
	.db #0x00
	.db #0x00
	.db #0x00
	.db #0x00
	.db #0x04
	.db #0x91
	.db #0xDA
	.db #0xDA
	.db #0xDA
	.db #0xDA
	.db #0x92
	.db #0x04
	.db #0x00
	.db #0x00
	.db #0x00
	.db #0x00
	.db #0x00
	.db #0x04
	.db #0x6D
	.db #0x21
	.db #0x41
	.db #0x42
	.db #0x63
	.db #0x6D
	.db #0x04
	.db #0x00
	.db #0x00
	.db #0x00
	.db #0x00
	.db #0x00
	.db #0x00
	.db #0x24
	.db #0x41
	.db #0x42
	.db #0x63
	.db #0x42
	.db #0x24
	.db #0x00
	.db #0x00
	.db #0x00
	.db #0x00
	.db #0x00
	.db #0x00
	.db #0x00
	.db #0x04
	.db #0x10
	.db #0xFB
	.db #0xD6
	.db #0x1C
	.db #0x04
	.db #0x00
	.db #0x00
	.db #0x00
	.db #0x00
	.db #0x00
	.db #0x00
	.db #0x00
	.db #0x04
	.db #0x04
	.db #0x04
	.db #0x04
	.db #0x04
	.db #0x04
	.db #0x00
	.db #0x00
	.db #0x00
	.db #0x00
	.db #0x00
	.db #0x00
	.db #0x00
	.db #0x04
	.db #0x21
	.db #0x42
	.db #0x63
	.db #0x21
	.db #0x04
	.db #0x00
	.db #0x00
	.db #0x00
	.db #0x00
	.db #0x00
	.db #0x00
	.db #0x04
	.db #0x04
	.db #0x04
	.db #0x21
	.db #0x21
	.db #0x04
	.db #0x04
	.db #0x04
	.db #0x00
	.db #0x00
	.db #0x00
	.db #0x00
	.db #0x00
	.db #0x04
	.db #0x04
	.db #0x04
	.db #0x04
	.db #0x04
	.db #0x04
	.db #0x04
	.db #0x04
	.db #0x00
	.db #0x00
	.db #0x00
	.db #0x00
	.db #0x00
	.db #0x00
	.db #0x04
	.db #0x6D
	.db #0x04
	.db #0x04
	.db #0x04
	.db #0x04
	.db #0x00
	.db #0x00
	.db #0x00
	.db #0x00
	.db #0x00
	.db #0x00
	.db #0x00
	.db #0x00
	.db #0x49
	.db #0x98
	.db #0x6D
	.db #0x00
	.db #0x00
	.db #0x00
	.db #0x00
	.db #0x00
	.db #0x00
	.db #0x00
	.db #0x00
	.db #0x6D
	.db #0x98
	.db #0x49
	.db #0xDA
	.db #0x92
	.db #0x00
	.db #0x00
	.db #0x00
	.db #0x00
	.db #0x00
	.db #0x00
	.db #0x00
	.db #0x00
	.db #0x92
	.db #0x92
	.db #0xDA
	.db #0xDA
	.db #0xDA
	.db #0x6D
	.db #0x00
	.db #0x00
	.db #0x00
	.db #0x00
	.db #0x00
	.db #0x00
	.db #0x00
	.db #0x04
	.db #0x91
	.db #0x6D
	.db #0x41
	.db #0x42
	.db #0x42
	.db #0x04
	.db #0x00
	.db #0x00
	.db #0x00
	.db #0x00
	.db #0x00
	.db #0x00
	.db #0x04
	.db #0x6D
	.db #0x41
	.db #0x42
	.db #0x63
	.db #0x1C
	.db #0x04
	.db #0x00
	.db #0x00
	.db #0x00
	.db #0x00
	.db #0x00
	.db #0x00
	.db #0x00
	.db #0x24
	.db #0x10
	.db #0xFB
	.db #0xD6
	.db #0x04
	.db #0x04
	.db #0x04
	.db #0x00
	.db #0x00
	.db #0x00
	.db #0x00
	.db #0x00
	.db #0x00
	.db #0x04
	.db #0x04
	.db #0x04
	.db #0x04
	.db #0x63
	.db #0x21
	.db #0x04
	.db #0x00
	.db #0x00
	.db #0x00
	.db #0x00
	.db #0x00
	.db #0x00
	.db #0x00
	.db #0x04
	.db #0x04
	.db #0x63
	.db #0x42
	.db #0x21
	.db #0x04
	.db #0x04
	.db #0x00
	.db #0x00
	.db #0x00
	.db #0x00
	.db #0x00
	.db #0x00
	.db #0x00
	.db #0x04
	.db #0x04
	.db #0x42
	.db #0x04
	.db #0x04
	.db #0x04
	.db #0x00
	.db #0x00
	.db #0x00
	.db #0x00
	.db #0x00
	.db #0x00
	.db #0x00
	.db #0x04
	.db #0x04
	.db #0x04
	.db #0x04
	.db #0x04
	.db #0x00
	.db #0x00
	.db #0x00
	.db #0x00
	.db #0x00
	.db #0x00
	.db #0x00
	.db #0x00
	.db #0x00
	.db #0x04
	.db #0x6D
	.db #0x00
	.db #0x00
	.db #0x00
	.db #0x00
	.db #0x00
	.db #0x00
	.db #0x00
	.db #0x00
	.db #0x00
	.db #0x00
	.db #0x00
	.db #0x00
	.db #0x00
	.db #0x00
	.db #0x00
	.db #0x00
	.db #0x00
	.db #0x00
	.db #0x00
	.db #0x00
	.db #0x49
	.db #0xBC
	.db #0x6D
	.db #0x6D
	.db #0x00
	.db #0x00
	.db #0x00
	.db #0x00
	.db #0x00
	.db #0x00
	.db #0x00
	.db #0x00
	.db #0x49
	.db #0xDA
	.db #0xDA
	.db #0xB6
	.db #0x21
	.db #0x49
	.db #0x00
	.db #0x00
	.db #0x00
	.db #0x00
	.db #0x00
	.db #0x00
	.db #0x00
	.db #0xFC
	.db #0xDA
	.db #0xDA
	.db #0x41
	.db #0x62
	.db #0x41
	.db #0x04
	.db #0x1C
	.db #0x00
	.db #0x00
	.db #0x00
	.db #0x00
	.db #0x00
	.db #0x6D
	.db #0xDA
	.db #0x49
	.db #0x63
	.db #0x04
	.db #0x04
	.db #0xFB
	.db #0x04
	.db #0x04
	.db #0x00
	.db #0x00
	.db #0x00
	.db #0x00
	.db #0x04
	.db #0x6D
	.db #0x04
	.db #0x04
	.db #0x04
	.db #0x10
	.db #0x04
	.db #0x21
	.db #0x04
	.db #0x04
	.db #0x00
	.db #0x00
	.db #0x00
	.db #0x00
	.db #0x04
	.db #0x49
	.db #0x04
	.db #0x04
	.db #0x21
	.db #0x63
	.db #0x41
	.db #0x21
	.db #0x04
	.db #0x04
	.db #0x00
	.db #0x00
	.db #0x00
	.db #0x00
	.db #0x00
	.db #0x04
	.db #0x04
	.db #0x41
	.db #0x42
	.db #0x04
	.db #0x04
	.db #0x04
	.db #0x04
	.db #0x00
	.db #0x00
	.db #0x00
	.db #0x00
	.db #0x00
	.db #0x00
	.db #0x04
	.db #0x04
	.db #0x04
	.db #0x04
	.db #0x04
	.db #0x04
	.db #0x00
	.db #0x00
	.db #0x00
	.db #0x00
	.db #0x00
	.db #0x00
	.db #0x00
	.db #0x00
	.db #0x04
	.db #0x04
	.db #0x04
	.db #0x6D
	.db #0x00
	.db #0x00
	.db #0x00
	.db #0x00
	.db #0x00
	.db #0x00
	.db #0x00
	.db #0x00
	.db #0x00
	.db #0x00
	.db #0x00
	.db #0x00
	.db #0x00
	.db #0x00
	.db #0x00
	.db #0x00
	.db #0x00
	.db #0x00
	.db #0x00
	.db #0x00
	.db #0x00
	.db #0x00
	.db #0x00
	.db #0x00
	.db #0x00
	.db #0x00
	.db #0x00
	.db #0x00
	.db #0x00
	.db #0x00
	.db #0x00
	.db #0x49
	.db #0x49
	.db #0x00
	.db #0x00
	.db #0x00
	.db #0x00
	.db #0x00
	.db #0x00
	.db #0x00
	.db #0x00
	.db #0x00
	.db #0x00
	.db #0x6D
	.db #0xBC
	.db #0x91
	.db #0x49
	.db #0x21
	.db #0x04
	.db #0x1C
	.db #0x00
	.db #0x00
	.db #0x00
	.db #0x00
	.db #0x00
	.db #0x6D
	.db #0x49
	.db #0xDA
	.db #0xDA
	.db #0x21
	.db #0x21
	.db #0xFB
	.db #0x04
	.db #0x04
	.db #0x00
	.db #0x00
	.db #0x00
	.db #0x00
	.db #0xFC
	.db #0xDA
	.db #0xDA
	.db #0x21
	.db #0x42
	.db #0x10
	.db #0x04
	.db #0x04
	.db #0x21
	.db #0x04
	.db #0x04
	.db #0x00
	.db #0x00
	.db #0x04
	.db #0x49
	.db #0x6D
	.db #0x21
	.db #0x42
	.db #0x04
	.db #0x04
	.db #0x04
	.db #0x42
	.db #0x21
	.db #0x04
	.db #0x04
	.db #0x00
	.db #0x04
	.db #0x04
	.db #0x6D
	.db #0x49
	.db #0x04
	.db #0x04
	.db #0x21
	.db #0x42
	.db #0x63
	.db #0x04
	.db #0x04
	.db #0x04
	.db #0x00
	.db #0x00
	.db #0x00
	.db #0x04
	.db #0x04
	.db #0x04
	.db #0x04
	.db #0x04
	.db #0x21
	.db #0x04
	.db #0x04
	.db #0x04
	.db #0x04
	.db #0x00
	.db #0x00
	.db #0x00
	.db #0x00
	.db #0x00
	.db #0x00
	.db #0x04
	.db #0x04
	.db #0x04
	.db #0x04
	.db #0x04
	.db #0x6D
	.db #0x00
	.db #0x00
	.db #0x00
	.db #0x00
	.db #0x00
	.db #0x00
	.db #0x00
	.db #0x00
	.db #0x00
	.db #0x04
	.db #0x04
	.db #0x04
	.db #0x00
	.db #0x00
	.db #0x00
	.db #0x00
	.db #0x00
	.db #0x00
	.db #0x00
	.db #0x00
	.db #0x00
	.db #0x00
	.db #0x00
	.db #0x00
	.db #0x00
	.db #0x00
	.db #0x00
	.db #0x00
	.db #0x00
	.db #0x00
	.db #0x00
	.db #0x00
	.db #0x00
	.db #0x00
	.db #0x00
	.db #0x00
	.db #0x00
	.db #0x00
	.db #0x00
	.db #0x00
	.db #0x00
	.db #0x00
	.db #0x00
	.db #0x00
	.db #0x00
	.db #0x00
	.db #0x00
	.db #0x00
	.db #0x00
	.db #0x00
	.db #0x00
	.db #0x00
	.db #0x00
	.db #0x00
	.db #0x00
	.db #0x00
	.db #0x00
	.db #0x00
	.db #0x00
	.db #0x21
	.db #0x1C
	.db #0x04
	.db #0x04
	.db #0x04
	.db #0x00
	.db #0x00
	.db #0x00
	.db #0x6D
	.db #0xBC
	.db #0x92
	.db #0x91
	.db #0x21
	.db #0x21
	.db #0xFB
	.db #0x04
	.db #0x21
	.db #0x04
	.db #0x04
	.db #0x00
	.db #0x00
	.db #0x49
	.db #0xDA
	.db #0xB6
	.db #0xDA
	.db #0x42
	.db #0x63
	.db #0xD6
	.db #0x04
	.db #0x42
	.db #0x21
	.db #0x04
	.db #0x00
	.db #0x00
	.db #0x6D
	.db #0xFC
	.db #0x92
	.db #0xDA
	.db #0x42
	.db #0x42
	.db #0x10
	.db #0x04
	.db #0x63
	.db #0x21
	.db #0x04
	.db #0x00
	.db #0x00
	.db #0x91
	.db #0xDA
	.db #0xDA
	.db #0xDA
	.db #0x92
	.db #0x04
	.db #0x04
	.db #0x04
	.db #0x04
	.db #0x04
	.db #0x6D
	.db #0x00
	.db #0x00
	.db #0x6D
	.db #0x24
	.db #0x24
	.db #0x6D
	.db #0x6D
	.db #0x49
	.db #0x04
	.db #0x04
	.db #0x24
	.db #0x24
	.db #0x04
	.db #0x00
	.db #0x00
	.db #0x00
	.db #0x04
	.db #0x04
	.db #0x00
	.db #0x00
	.db #0x00
	.db #0x00
	.db #0x00
	.db #0x04
	.db #0x04
	.db #0x00
	.db #0x00
	.db #0x00
	.db #0x00
	.db #0x00
	.db #0x00
	.db #0x00
	.db #0x00
	.db #0x00
	.db #0x00
	.db #0x00
	.db #0x00
	.db #0x00
	.db #0x00
	.db #0x00
	.db #0x00
	.db #0x00
	.db #0x00
	.db #0x00
	.db #0x00
	.db #0x00
	.db #0x00
	.db #0x00
	.db #0x00
	.db #0x00
	.db #0x00
	.db #0x00
	.db #0x00
	.db #0x00
	.db #0x00
	.db #0x00
	.db #0x00
	.db #0x00
	.db #0x00
	.db #0x00
	.db #0x00
	.db #0x00
	.db #0x00
	.db #0x00
	.db #0x00
	.db #0x00
	.db #0x00
	.db #0x00
	.db #0x00
	.db #0x00
	.db #0x00
	.db #0x00
	.db #0x00
	.db #0x04
	.db #0x04
	.db #0x04
	.db #0x00
	.db #0x00
	.db #0x00
	.db #0x00
	.db #0x00
	.db #0x00
	.db #0x00
	.db #0x00
	.db #0x21
	.db #0x1C
	.db #0x21
	.db #0x21
	.db #0x04
	.db #0x04
	.db #0x00
	.db #0x00
	.db #0x00
	.db #0x00
	.db #0x00
	.db #0x04
	.db #0x21
	.db #0x21
	.db #0xFB
	.db #0xAE
	.db #0x63
	.db #0x21
	.db #0x04
	.db #0x04
	.db #0x6D
	.db #0x00
	.db #0x00
	.db #0x92
	.db #0x91
	.db #0x42
	.db #0x63
	.db #0x04
	.db #0x1C
	.db #0x04
	.db #0x42
	.db #0x04
	.db #0x04
	.db #0x00
	.db #0x00
	.db #0xB6
	.db #0xB6
	.db #0xDA
	.db #0xB6
	.db #0x42
	.db #0x42
	.db #0x04
	.db #0x04
	.db #0x04
	.db #0x04
	.db #0x04
	.db #0x00
	.db #0x00
	.db #0xBC
	.db #0xDA
	.db #0xDA
	.db #0xDA
	.db #0xB6
	.db #0x04
	.db #0x04
	.db #0x04
	.db #0x04
	.db #0x04
	.db #0x00
	.db #0x00
	.db #0x00
	.db #0x6D
	.db #0x24
	.db #0xB6
	.db #0x92
	.db #0x92
	.db #0x6D
	.db #0x49
	.db #0x04
	.db #0x00
	.db #0x00
	.db #0x00
	.db #0x00
	.db #0x00
	.db #0x00
	.db #0x6D
	.db #0xFC
	.db #0x6D
	.db #0x04
	.db #0x49
	.db #0x00
	.db #0x00
	.db #0x00
	.db #0x00
	.db #0x00
	.db #0x00
	.db #0x00
	.db #0x00
	.db #0x00
	.db #0x49
	.db #0x04
	.db #0x00
	.db #0x00
	.db #0x00
	.db #0x00
	.db #0x00
	.db #0x00
	.db #0x00
	.db #0x00
	.db #0x00
	.db #0x00
	.db #0x00
	.db #0x00
	.db #0x00
	.db #0x00
	.db #0x00
	.db #0x00
	.db #0x00
	.db #0x00
	.db #0x00
	.db #0x00
	.db #0x00
	.db #0x00
	.db #0x00
	.db #0x00
	.db #0x00
	.db #0x00
	.db #0x00
	.db #0x00
	.db #0x00
	.db #0x00
	.db #0x00
	.db #0x00
	.db #0x00
	.db #0x00
	.db #0x00
	.db #0x00
	.db #0x00
	.db #0x00
	.db #0x00
	.db #0x00
	.db #0x04
	.db #0x04
	.db #0x04
	.db #0x04
	.db #0x00
	.db #0x00
	.db #0x00
	.db #0x00
	.db #0x00
	.db #0x00
	.db #0x00
	.db #0x00
	.db #0x04
	.db #0x1C
	.db #0x21
	.db #0x21
	.db #0x04
	.db #0x04
	.db #0x6D
	.db #0x00
	.db #0x00
	.db #0x00
	.db #0x00
	.db #0x00
	.db #0x04
	.db #0x42
	.db #0xB2
	.db #0xD6
	.db #0x42
	.db #0x21
	.db #0x04
	.db #0x04
	.db #0x00
	.db #0x00
	.db #0x00
	.db #0x00
	.db #0x6D
	.db #0x04
	.db #0x21
	.db #0x42
	.db #0x04
	.db #0x10
	.db #0x21
	.db #0x04
	.db #0x04
	.db #0x00
	.db #0x00
	.db #0x00
	.db #0x6D
	.db #0x92
	.db #0xB6
	.db #0x92
	.db #0x41
	.db #0x63
	.db #0x04
	.db #0x04
	.db #0x04
	.db #0x04
	.db #0x00
	.db #0x00
	.db #0x6D
	.db #0xFC
	.db #0x92
	.db #0xB6
	.db #0xDA
	.db #0x92
	.db #0x04
	.db #0x04
	.db #0x04
	.db #0x04
	.db #0x00
	.db #0x00
	.db #0x00
	.db #0x24
	.db #0x49
	.db #0xB6
	.db #0xDA
	.db #0xDA
	.db #0xDA
	.db #0x49
	.db #0x04
	.db #0x00
	.db #0x00
	.db #0x00
	.db #0x00
	.db #0x00
	.db #0x00
	.db #0x6D
	.db #0x49
	.db #0xFC
	.db #0xDA
	.db #0x49
	.db #0x24
	.db #0x00
	.db #0x00
	.db #0x00
	.db #0x00
	.db #0x00
	.db #0x00
	.db #0x00
	.db #0x00
	.db #0x6D
	.db #0x6D
	.db #0x04
	.db #0x04
	.db #0x00
	.db #0x00
	.db #0x00
	.db #0x00
	.db #0x00
	.db #0x00
	.db #0x00
	.db #0x00
	.db #0x00
	.db #0x00
	.db #0x24
	.db #0x00
	.db #0x00
	.db #0x00
	.db #0x00
	.db #0x00
	.db #0x00
	.db #0x00
	.db #0x00
	.db #0x00
	.db #0x00
	.db #0x00
	.db #0x00
	.db #0x00
	.db #0x00
	.db #0x00
	.db #0x00
	.db #0x00
	.db #0x00
	.db #0x00
	.db #0x00
	.db #0x00
	.db #0x00
	.db #0x00
	.db #0x00
	.db #0x00
	.db #0x00
	.db #0x00
	.db #0x04
	.db #0x04
	.db #0x04
	.db #0x6D
	.db #0x00
	.db #0x00
	.db #0x00
	.db #0x00
	.db #0x00
	.db #0x00
	.db #0x00
	.db #0x00
	.db #0x04
	.db #0x21
	.db #0x21
	.db #0x04
	.db #0x04
	.db #0x04
	.db #0x00
	.db #0x00
	.db #0x00
	.db #0x00
	.db #0x00
	.db #0x00
	.db #0x04
	.db #0x1C
	.db #0xFB
	.db #0x63
	.db #0x42
	.db #0x21
	.db #0x04
	.db #0x00
	.db #0x00
	.db #0x00
	.db #0x00
	.db #0x00
	.db #0x00
	.db #0x04
	.db #0x41
	.db #0xAE
	.db #0xD6
	.db #0x10
	.db #0x04
	.db #0x04
	.db #0x00
	.db #0x00
	.db #0x00
	.db #0x00
	.db #0x00
	.db #0x04
	.db #0x04
	.db #0x21
	.db #0x42
	.db #0x62
	.db #0x63
	.db #0x04
	.db #0x00
	.db #0x00
	.db #0x00
	.db #0x00
	.db #0x00
	.db #0x00
	.db #0x91
	.db #0xDA
	.db #0xDA
	.db #0xDA
	.db #0x42
	.db #0x04
	.db #0x04
	.db #0x00
	.db #0x00
	.db #0x00
	.db #0x00
	.db #0x00
	.db #0x24
	.db #0xB6
	.db #0xDA
	.db #0xDA
	.db #0xDA
	.db #0xDA
	.db #0x6D
	.db #0x00
	.db #0x00
	.db #0x00
	.db #0x00
	.db #0x00
	.db #0x00
	.db #0x04
	.db #0xFC
	.db #0x92
	.db #0xB6
	.db #0xB6
	.db #0xDA
	.db #0x24
	.db #0x00
	.db #0x00
	.db #0x00
	.db #0x00
	.db #0x00
	.db #0x00
	.db #0x00
	.db #0x24
	.db #0x6D
	.db #0x6D
	.db #0xFC
	.db #0xB6
	.db #0x04
	.db #0x00
	.db #0x00
	.db #0x00
	.db #0x00
	.db #0x00
	.db #0x00
	.db #0x00
	.db #0x00
	.db #0x24
	.db #0x49
	.db #0x24
	.db #0x00
	.db #0x00
	.db #0x00
	.db #0x00
	.db #0x00
	.db #0x00
	.db #0x00
	.db #0x00
	.db #0x00
	.db #0x00
	.db #0x00
	.db #0x00
	.db #0x00
	.db #0x00
	.db #0x00
	.db #0x00
	.db #0x00
	.db #0x00
	.db #0x00
	.db #0x00
	.db #0x00
	.db #0x00
	.db #0x00
	.db #0x04
	.db #0x04
	.db #0x04
	.db #0x04
	.db #0x6D
	.db #0x04
	.db #0x00
	.db #0x00
	.db #0x00
	.db #0x00
	.db #0x00
	.db #0x00
	.db #0x04
	.db #0x04
	.db #0x04
	.db #0x21
	.db #0x21
	.db #0x04
	.db #0x04
	.db #0x04
	.db #0x00
	.db #0x00
	.db #0x00
	.db #0x00
	.db #0x00
	.db #0x04
	.db #0x04
	.db #0x21
	.db #0x42
	.db #0x63
	.db #0x21
	.db #0x04
	.db #0x04
	.db #0x00
	.db #0x00
	.db #0x00
	.db #0x00
	.db #0x00
	.db #0x00
	.db #0x04
	.db #0x1C
	.db #0xFB
	.db #0xD6
	.db #0x10
	.db #0x04
	.db #0x00
	.db #0x00
	.db #0x00
	.db #0x00
	.db #0x00
	.db #0x00
	.db #0x00
	.db #0x04
	.db #0x41
	.db #0x42
	.db #0x62
	.db #0x63
	.db #0x04
	.db #0x00
	.db #0x00
	.db #0x00
	.db #0x00
	.db #0x00
	.db #0x00
	.db #0x00
	.db #0x04
	.db #0x21
	.db #0x42
	.db #0x63
	.db #0x42
	.db #0x04
	.db #0x00
	.db #0x00
	.db #0x00
	.db #0x00
	.db #0x00
	.db #0x00
	.db #0x04
	.db #0x6D
	.db #0xDA
	.db #0xDA
	.db #0xDA
	.db #0xDA
	.db #0x6D
	.db #0x04
	.db #0x00
	.db #0x00
	.db #0x00
	.db #0x00
	.db #0x00
	.db #0x04
	.db #0x91
	.db #0xB6
	.db #0xDA
	.db #0xDA
	.db #0xB6
	.db #0x92
	.db #0x04
	.db #0x00
	.db #0x00
	.db #0x00
	.db #0x00
	.db #0x00
	.db #0x00
	.db #0xB6
	.db #0xFC
	.db #0x24
	.db #0x24
	.db #0xFC
	.db #0xB6
	.db #0x00
	.db #0x00
	.db #0x00
	.db #0x00
	.db #0x00
	.db #0x00
	.db #0x00
	.db #0x24
	.db #0x6D
	.db #0x6D
	.db #0x6D
	.db #0x6D
	.db #0x24
	.db #0x00
	.db #0x00
	.db #0x00
	.db #0x00
	.db #0x00
	.db #0x00
	.db #0x00
	.db #0x00
	.db #0x00
	.db #0x00
	.db #0x00
	.db #0x00
	.db #0x00
	.db #0x00
	.db #0x00
	.db #0x00
	.db #0x00
	.db #0x00
	.db #0x00
	.db #0x00
	.db #0x00
	.db #0x04
	.db #0x04
	.db #0x6D
	.db #0x00
	.db #0x00
	.db #0x00
	.db #0x00
	.db #0x00
	.db #0x00
	.db #0x00
	.db #0x00
	.db #0x04
	.db #0x04
	.db #0x04
	.db #0x21
	.db #0x04
	.db #0x04
	.db #0x00
	.db #0x00
	.db #0x00
	.db #0x00
	.db #0x00
	.db #0x00
	.db #0x00
	.db #0x04
	.db #0x21
	.db #0x42
	.db #0x63
	.db #0x21
	.db #0x1C
	.db #0x04
	.db #0x00
	.db #0x00
	.db #0x00
	.db #0x00
	.db #0x00
	.db #0x00
	.db #0x04
	.db #0x21
	.db #0x1C
	.db #0xFB
	.db #0xD6
	.db #0x63
	.db #0x04
	.db #0x00
	.db #0x00
	.db #0x00
	.db #0x00
	.db #0x00
	.db #0x00
	.db #0x04
	.db #0x04
	.db #0x41
	.db #0x42
	.db #0x62
	.db #0x42
	.db #0x6D
	.db #0x24
	.db #0x00
	.db #0x00
	.db #0x00
	.db #0x00
	.db #0x00
	.db #0x00
	.db #0x04
	.db #0x21
	.db #0x42
	.db #0x63
	.db #0xDA
	.db #0xDA
	.db #0x6D
	.db #0x24
	.db #0x00
	.db #0x00
	.db #0x00
	.db #0x00
	.db #0x00
	.db #0x04
	.db #0x6D
	.db #0xDA
	.db #0xDA
	.db #0xDA
	.db #0xDA
	.db #0xDA
	.db #0x49
	.db #0x00
	.db #0x00
	.db #0x00
	.db #0x00
	.db #0x00
	.db #0x00
	.db #0x49
	.db #0x91
	.db #0x92
	.db #0x6D
	.db #0x24
	.db #0xFC
	.db #0x24
	.db #0x00
	.db #0x00
	.db #0x00
	.db #0x00
	.db #0x00
	.db #0x00
	.db #0x24
	.db #0x04
	.db #0xFC
	.db #0x6D
	.db #0x91
	.db #0x24
	.db #0x00
	.db #0x00
	.db #0x00
	.db #0x00
	.db #0x00
	.db #0x00
	.db #0x00
	.db #0x00
	.db #0x04
	.db #0x49
	.db #0x24
	.db #0x00
	.db #0x00
	.db #0x00
	.db #0x00
	.db #0x00
	.db #0x00
	.db #0x00
	.db #0x00
	.db #0x00
	.db #0x00
	.db #0x00
	.db #0x00
	.db #0x00
	.db #0x00
	.db #0x00
	.db #0x00
	.db #0x00
	.db #0x00
	.db #0x00
	.db #0x00
	.db #0x00
	.db #0x6D
	.db #0x00
	.db #0x00
	.db #0x00
	.db #0x00
	.db #0x00
	.db #0x00
	.db #0x00
	.db #0x00
	.db #0x00
	.db #0x00
	.db #0x00
	.db #0x04
	.db #0x04
	.db #0x21
	.db #0x21
	.db #0x10
	.db #0x00
	.db #0x00
	.db #0x00
	.db #0x00
	.db #0x00
	.db #0x00
	.db #0x00
	.db #0x04
	.db #0x04
	.db #0x21
	.db #0x42
	.db #0xD6
	.db #0xB2
	.db #0x63
	.db #0x04
	.db #0x00
	.db #0x00
	.db #0x00
	.db #0x00
	.db #0x00
	.db #0x04
	.db #0x04
	.db #0x21
	.db #0x1C
	.db #0x04
	.db #0x62
	.db #0x42
	.db #0x49
	.db #0x6D
	.db #0x00
	.db #0x00
	.db #0x00
	.db #0x00
	.db #0x04
	.db #0x04
	.db #0x04
	.db #0x21
	.db #0x42
	.db #0x42
	.db #0x92
	.db #0xB6
	.db #0x92
	.db #0x6D
	.db #0x00
	.db #0x00
	.db #0x00
	.db #0x00
	.db #0x04
	.db #0x04
	.db #0x04
	.db #0x21
	.db #0x92
	.db #0xDA
	.db #0xB6
	.db #0x92
	.db #0xBC
	.db #0x6D
	.db #0x00
	.db #0x00
	.db #0x00
	.db #0x00
	.db #0x04
	.db #0x04
	.db #0x49
	.db #0xDA
	.db #0xDA
	.db #0xDA
	.db #0x24
	.db #0x49
	.db #0x24
	.db #0x00
	.db #0x00
	.db #0x00
	.db #0x00
	.db #0x00
	.db #0x00
	.db #0x04
	.db #0x49
	.db #0xDA
	.db #0xFC
	.db #0x6D
	.db #0x24
	.db #0x00
	.db #0x00
	.db #0x00
	.db #0x00
	.db #0x00
	.db #0x00
	.db #0x00
	.db #0x00
	.db #0x04
	.db #0xB6
	.db #0x49
	.db #0x24
	.db #0x00
	.db #0x00
	.db #0x00
	.db #0x00
	.db #0x00
	.db #0x00
	.db #0x00
	.db #0x00
	.db #0x00
	.db #0x00
	.db #0x00
	.db #0x24
	.db #0x00
	.db #0x00
	.db #0x00
	.db #0x00
	.db #0x00
	.db #0x00
	.db #0x00
	.db #0x00
	.db #0x00
	.db #0x00
	.db #0x00
	.db #0x00
	.db #0x00
	.db #0x00
	.db #0x00
	.db #0x00
	.db #0x00
	.db #0x00
	.db #0x00
	.db #0x00
	.db #0x00
	.db #0x00
	.db #0x00
	.db #0x00
	.db #0x00
	.db #0x00
	.db #0x00
	.db #0x00
	.db #0x00
	.db #0x00
	.db #0x00
	.db #0x6D
	.db #0x04
	.db #0x04
	.db #0x04
	.db #0x04
	.db #0x10
	.db #0x00
	.db #0x00
	.db #0x00
	.db #0x00
	.db #0x00
	.db #0x00
	.db #0x24
	.db #0x04
	.db #0x21
	.db #0x21
	.db #0x04
	.db #0xFB
	.db #0x21
	.db #0x21
	.db #0x24
	.db #0x24
	.db #0x00
	.db #0x00
	.db #0x00
	.db #0x00
	.db #0x04
	.db #0x42
	.db #0x63
	.db #0x04
	.db #0xD6
	.db #0x42
	.db #0x42
	.db #0x91
	.db #0x92
	.db #0xBC
	.db #0x49
	.db #0x00
	.db #0x00
	.db #0x04
	.db #0x21
	.db #0x42
	.db #0x04
	.db #0x1C
	.db #0x42
	.db #0x42
	.db #0xDA
	.db #0xB6
	.db #0x24
	.db #0x49
	.db #0x00
	.db #0x00
	.db #0x04
	.db #0x04
	.db #0x04
	.db #0x04
	.db #0x04
	.db #0x04
	.db #0xB6
	.db #0xDA
	.db #0xDA
	.db #0xFC
	.db #0x6D
	.db #0x00
	.db #0x00
	.db #0x04
	.db #0x04
	.db #0x04
	.db #0x04
	.db #0x49
	.db #0x6D
	.db #0xB6
	.db #0xDA
	.db #0xDA
	.db #0x91
	.db #0x6D
	.db #0x00
	.db #0x00
	.db #0x00
	.db #0x04
	.db #0x04
	.db #0x00
	.db #0x00
	.db #0x49
	.db #0x49
	.db #0x24
	.db #0x24
	.db #0x6D
	.db #0x49
	.db #0x00
	.db #0x00
	.db #0x00
	.db #0x00
	.db #0x00
	.db #0x00
	.db #0x00
	.db #0x00
	.db #0x00
	.db #0x04
	.db #0x04
	.db #0x00
	.db #0x00
	.db #0x00
	.db #0x00
	.db #0x00
	.db #0x00
	.db #0x00
	.db #0x00
	.db #0x00
	.db #0x00
	.db #0x00
	.db #0x00
	.db #0x00
	.db #0x00
	.db #0x00
	.db #0x00
_car2:
	.db #0x00
	.db #0x00
	.db #0x00
	.db #0x00
	.db #0x00
	.db #0x00
	.db #0x00
	.db #0x00
	.db #0x00
	.db #0x00
	.db #0x00
	.db #0x00
	.db #0x00
	.db #0x00
	.db #0x00
	.db #0x00
	.db #0x42
	.db #0xDC
	.db #0x63
	.db #0x00
	.db #0x00
	.db #0x00
	.db #0x00
	.db #0x00
	.db #0x00
	.db #0x00
	.db #0x00
	.db #0x14
	.db #0x42
	.db #0x42
	.db #0xB8
	.db #0x63
	.db #0xBC
	.db #0xB8
	.db #0x98
	.db #0x74
	.db #0xBC
	.db #0x50
	.db #0x00
	.db #0xB2
	.db #0x74
	.db #0x42
	.db #0x41
	.db #0xB8
	.db #0x62
	.db #0xB8
	.db #0x04
	.db #0x04
	.db #0x04
	.db #0x04
	.db #0x74
	.db #0x00
	.db #0x00
	.db #0x74
	.db #0x42
	.db #0x21
	.db #0x74
	.db #0x42
	.db #0xB8
	.db #0x49
	.db #0x49
	.db #0x24
	.db #0x24
	.db #0x04
	.db #0x00
	.db #0x00
	.db #0x98
	.db #0x42
	.db #0x21
	.db #0x50
	.db #0x21
	.db #0x74
	.db #0x24
	.db #0x24
	.db #0x24
	.db #0x24
	.db #0xBC
	.db #0x00
	.db #0x00
	.db #0x18
	.db #0xBC
	.db #0xB8
	.db #0x74
	.db #0x74
	.db #0x74
	.db #0x98
	.db #0xBC
	.db #0xB8
	.db #0xFC
	.db #0x74
	.db #0x00
	.db #0x00
	.db #0x98
	.db #0x24
	.db #0x24
	.db #0x50
	.db #0x74
	.db #0x74
	.db #0x50
	.db #0x24
	.db #0x24
	.db #0x74
	.db #0x50
	.db #0x00
	.db #0x00
	.db #0x00
	.db #0x04
	.db #0x04
	.db #0x00
	.db #0x00
	.db #0x00
	.db #0x00
	.db #0x04
	.db #0x04
	.db #0x00
	.db #0x00
	.db #0x00
	.db #0x00
	.db #0x00
	.db #0x00
	.db #0x00
	.db #0x00
	.db #0x00
	.db #0x00
	.db #0x00
	.db #0x00
	.db #0x00
	.db #0x00
	.db #0x00
	.db #0x00
	.db #0x00
	.db #0x00
	.db #0x00
	.db #0x00
	.db #0x00
	.db #0x00
	.db #0x00
	.db #0x00
	.db #0x00
	.db #0x00
	.db #0x00
	.db #0x00
	.db #0x00
	.db #0x00
	.db #0x00
	.db #0x00
	.db #0x00
	.db #0x00
	.db #0x00
	.db #0x00
	.db #0x00
	.db #0x00
	.db #0x00
	.db #0x00
	.db #0x00
	.db #0x00
	.db #0x00
	.db #0x00
	.db #0x00
	.db #0x00
	.db #0x00
	.db #0x00
	.db #0x00
	.db #0x50
	.db #0x74
	.db #0xBC
	.db #0x00
	.db #0x00
	.db #0x00
	.db #0x00
	.db #0x00
	.db #0x42
	.db #0x98
	.db #0x63
	.db #0x50
	.db #0x74
	.db #0x98
	.db #0x04
	.db #0x04
	.db #0x50
	.db #0x00
	.db #0x00
	.db #0x00
	.db #0x74
	.db #0x42
	.db #0xDC
	.db #0x63
	.db #0x62
	.db #0x74
	.db #0x04
	.db #0x24
	.db #0x24
	.db #0x04
	.db #0x00
	.db #0x00
	.db #0x14
	.db #0x42
	.db #0x41
	.db #0x21
	.db #0xB8
	.db #0x62
	.db #0xBC
	.db #0x49
	.db #0x24
	.db #0x74
	.db #0xBC
	.db #0x74
	.db #0x00
	.db #0xB2
	.db #0x74
	.db #0x42
	.db #0x21
	.db #0x98
	.db #0x21
	.db #0xB8
	.db #0xBC
	.db #0xBC
	.db #0x98
	.db #0xFC
	.db #0x50
	.db #0x00
	.db #0x24
	.db #0x74
	.db #0x42
	.db #0x98
	.db #0x74
	.db #0x98
	.db #0x98
	.db #0x74
	.db #0x04
	.db #0x50
	.db #0x74
	.db #0x00
	.db #0x00
	.db #0x00
	.db #0x1C
	.db #0xBC
	.db #0xB8
	.db #0x98
	.db #0x50
	.db #0x74
	.db #0x50
	.db #0x04
	.db #0x04
	.db #0x00
	.db #0x00
	.db #0x00
	.db #0x00
	.db #0x24
	.db #0x98
	.db #0x04
	.db #0x50
	.db #0x00
	.db #0x00
	.db #0x00
	.db #0x00
	.db #0x00
	.db #0x00
	.db #0x00
	.db #0x00
	.db #0x00
	.db #0x00
	.db #0x00
	.db #0x04
	.db #0x04
	.db #0x00
	.db #0x00
	.db #0x00
	.db #0x00
	.db #0x00
	.db #0x00
	.db #0x00
	.db #0x00
	.db #0x00
	.db #0x00
	.db #0x00
	.db #0x00
	.db #0x00
	.db #0x00
	.db #0x00
	.db #0x00
	.db #0x00
	.db #0x00
	.db #0x00
	.db #0x00
	.db #0x00
	.db #0x00
	.db #0x00
	.db #0x00
	.db #0x00
	.db #0x00
	.db #0x00
	.db #0x00
	.db #0xB8
	.db #0xBC
	.db #0x00
	.db #0x00
	.db #0x00
	.db #0x00
	.db #0x00
	.db #0x00
	.db #0x00
	.db #0x00
	.db #0x00
	.db #0x00
	.db #0xB8
	.db #0x04
	.db #0x04
	.db #0x24
	.db #0x00
	.db #0x00
	.db #0x00
	.db #0x00
	.db #0x00
	.db #0x00
	.db #0x00
	.db #0x00
	.db #0x74
	.db #0x04
	.db #0x04
	.db #0x49
	.db #0x24
	.db #0x50
	.db #0x00
	.db #0x00
	.db #0x00
	.db #0x00
	.db #0x00
	.db #0x98
	.db #0x41
	.db #0x63
	.db #0xDC
	.db #0x49
	.db #0x24
	.db #0x04
	.db #0x04
	.db #0xFC
	.db #0x00
	.db #0x00
	.db #0x00
	.db #0xB8
	.db #0x63
	.db #0xDC
	.db #0x62
	.db #0x62
	.db #0xBC
	.db #0x04
	.db #0x04
	.db #0xBC
	.db #0x98
	.db #0x00
	.db #0x00
	.db #0x50
	.db #0x63
	.db #0x42
	.db #0x42
	.db #0xBC
	.db #0x41
	.db #0xB8
	.db #0x74
	.db #0x98
	.db #0xBC
	.db #0x04
	.db #0x00
	.db #0x00
	.db #0x18
	.db #0x74
	.db #0x42
	.db #0x42
	.db #0x21
	.db #0x98
	.db #0x74
	.db #0x74
	.db #0x50
	.db #0x04
	.db #0x00
	.db #0x00
	.db #0x00
	.db #0xB2
	.db #0x74
	.db #0x98
	.db #0x41
	.db #0x74
	.db #0x74
	.db #0x74
	.db #0x00
	.db #0x00
	.db #0x00
	.db #0x00
	.db #0x00
	.db #0x00
	.db #0x00
	.db #0x00
	.db #0x1C
	.db #0x74
	.db #0xBC
	.db #0x98
	.db #0x04
	.db #0x00
	.db #0x00
	.db #0x00
	.db #0x00
	.db #0x00
	.db #0x00
	.db #0x00
	.db #0x00
	.db #0x00
	.db #0x74
	.db #0x74
	.db #0x04
	.db #0x00
	.db #0x00
	.db #0x00
	.db #0x00
	.db #0x00
	.db #0x00
	.db #0x00
	.db #0x00
	.db #0x00
	.db #0x00
	.db #0x00
	.db #0x00
	.db #0x00
	.db #0x00
	.db #0x00
	.db #0x00
	.db #0x00
	.db #0x00
	.db #0x00
	.db #0x00
	.db #0x00
	.db #0x00
	.db #0x00
	.db #0x00
	.db #0x00
	.db #0x74
	.db #0x04
	.db #0x00
	.db #0x00
	.db #0x00
	.db #0x00
	.db #0x00
	.db #0x00
	.db #0x00
	.db #0x00
	.db #0x00
	.db #0x00
	.db #0xB8
	.db #0x04
	.db #0x24
	.db #0x04
	.db #0x24
	.db #0x00
	.db #0x00
	.db #0x00
	.db #0x00
	.db #0x00
	.db #0x00
	.db #0x00
	.db #0xBC
	.db #0x04
	.db #0x24
	.db #0x24
	.db #0x04
	.db #0xBC
	.db #0x00
	.db #0x00
	.db #0x00
	.db #0x00
	.db #0x00
	.db #0x00
	.db #0x00
	.db #0x98
	.db #0x04
	.db #0x49
	.db #0x24
	.db #0x04
	.db #0xFC
	.db #0x98
	.db #0x00
	.db #0x00
	.db #0x00
	.db #0x00
	.db #0x00
	.db #0x74
	.db #0xDC
	.db #0xBC
	.db #0x24
	.db #0x04
	.db #0x98
	.db #0xBC
	.db #0x04
	.db #0x00
	.db #0x00
	.db #0x00
	.db #0x00
	.db #0x50
	.db #0x74
	.db #0x62
	.db #0x63
	.db #0xBC
	.db #0xB8
	.db #0x74
	.db #0x04
	.db #0x00
	.db #0x00
	.db #0x00
	.db #0x00
	.db #0x00
	.db #0x98
	.db #0x74
	.db #0xDC
	.db #0xBC
	.db #0x63
	.db #0x41
	.db #0x74
	.db #0x00
	.db #0x00
	.db #0x00
	.db #0x00
	.db #0x00
	.db #0x74
	.db #0xB8
	.db #0x42
	.db #0x42
	.db #0x42
	.db #0xB8
	.db #0x74
	.db #0x50
	.db #0x00
	.db #0x00
	.db #0x00
	.db #0x00
	.db #0x00
	.db #0x50
	.db #0x18
	.db #0x63
	.db #0x42
	.db #0x42
	.db #0x21
	.db #0x98
	.db #0x00
	.db #0x00
	.db #0x00
	.db #0x00
	.db #0x00
	.db #0x00
	.db #0x00
	.db #0xB2
	.db #0x74
	.db #0x98
	.db #0x42
	.db #0x74
	.db #0x04
	.db #0x00
	.db #0x00
	.db #0x00
	.db #0x00
	.db #0x00
	.db #0x00
	.db #0x00
	.db #0x00
	.db #0x00
	.db #0x74
	.db #0x74
	.db #0x18
	.db #0x00
	.db #0x00
	.db #0x00
	.db #0x00
	.db #0x00
	.db #0x00
	.db #0x00
	.db #0x00
	.db #0x00
	.db #0xBC
	.db #0x74
	.db #0x04
	.db #0x04
	.db #0x74
	.db #0xBC
	.db #0x00
	.db #0x00
	.db #0x00
	.db #0x00
	.db #0x00
	.db #0x00
	.db #0x98
	.db #0xB8
	.db #0x04
	.db #0x24
	.db #0x24
	.db #0x04
	.db #0xFC
	.db #0x98
	.db #0x00
	.db #0x00
	.db #0x00
	.db #0x00
	.db #0x00
	.db #0xBC
	.db #0xBC
	.db #0x04
	.db #0x49
	.db #0x24
	.db #0x04
	.db #0xBC
	.db #0xBC
	.db #0x00
	.db #0x00
	.db #0x00
	.db #0x00
	.db #0x00
	.db #0x04
	.db #0x98
	.db #0x04
	.db #0x49
	.db #0x24
	.db #0x04
	.db #0x98
	.db #0x04
	.db #0x00
	.db #0x00
	.db #0x00
	.db #0x00
	.db #0x00
	.db #0x00
	.db #0x74
	.db #0xDC
	.db #0xBC
	.db #0xBC
	.db #0xB8
	.db #0x74
	.db #0x00
	.db #0x00
	.db #0x00
	.db #0x00
	.db #0x00
	.db #0x00
	.db #0x00
	.db #0x74
	.db #0x62
	.db #0x63
	.db #0x63
	.db #0x41
	.db #0x74
	.db #0x00
	.db #0x00
	.db #0x00
	.db #0x00
	.db #0x00
	.db #0x00
	.db #0x98
	.db #0x74
	.db #0xDC
	.db #0xBC
	.db #0xBC
	.db #0xB8
	.db #0x74
	.db #0x98
	.db #0x00
	.db #0x00
	.db #0x00
	.db #0x00
	.db #0x00
	.db #0xBC
	.db #0x98
	.db #0x42
	.db #0x42
	.db #0x42
	.db #0x21
	.db #0x98
	.db #0xBC
	.db #0x00
	.db #0x00
	.db #0x00
	.db #0x00
	.db #0x00
	.db #0x04
	.db #0xB8
	.db #0x63
	.db #0x42
	.db #0x42
	.db #0x41
	.db #0x74
	.db #0x04
	.db #0x00
	.db #0x00
	.db #0x00
	.db #0x00
	.db #0x00
	.db #0x00
	.db #0x18
	.db #0x74
	.db #0x98
	.db #0x98
	.db #0x74
	.db #0x18
	.db #0x00
	.db #0x00
	.db #0x00
	.db #0x00
	.db #0x00
	.db #0x00
	.db #0x00
	.db #0x00
	.db #0xB2
	.db #0x00
	.db #0x00
	.db #0x00
	.db #0x00
	.db #0x00
	.db #0x00
	.db #0x00
	.db #0x00
	.db #0x00
	.db #0x00
	.db #0x00
	.db #0x00
	.db #0x04
	.db #0x74
	.db #0x00
	.db #0x00
	.db #0x00
	.db #0x00
	.db #0x00
	.db #0x00
	.db #0x00
	.db #0x00
	.db #0x00
	.db #0x00
	.db #0x04
	.db #0x24
	.db #0x04
	.db #0xB8
	.db #0x00
	.db #0x00
	.db #0x00
	.db #0x00
	.db #0x00
	.db #0x00
	.db #0x00
	.db #0x00
	.db #0xBC
	.db #0x04
	.db #0x24
	.db #0x24
	.db #0x04
	.db #0xBC
	.db #0x00
	.db #0x00
	.db #0x00
	.db #0x00
	.db #0x00
	.db #0x00
	.db #0x98
	.db #0xFC
	.db #0x04
	.db #0x24
	.db #0x49
	.db #0x04
	.db #0x98
	.db #0x00
	.db #0x00
	.db #0x00
	.db #0x00
	.db #0x00
	.db #0x00
	.db #0x74
	.db #0xBC
	.db #0x98
	.db #0x04
	.db #0x24
	.db #0xBC
	.db #0xDC
	.db #0x74
	.db #0x00
	.db #0x00
	.db #0x00
	.db #0x00
	.db #0x00
	.db #0x04
	.db #0x50
	.db #0x74
	.db #0xB8
	.db #0xBC
	.db #0x63
	.db #0x62
	.db #0x74
	.db #0x50
	.db #0x00
	.db #0x00
	.db #0x00
	.db #0x00
	.db #0x00
	.db #0x04
	.db #0x74
	.db #0x41
	.db #0x63
	.db #0xBC
	.db #0xDC
	.db #0x74
	.db #0x98
	.db #0x50
	.db #0x00
	.db #0x00
	.db #0x00
	.db #0x00
	.db #0x00
	.db #0x50
	.db #0x74
	.db #0xB8
	.db #0x42
	.db #0x42
	.db #0x42
	.db #0xB8
	.db #0x74
	.db #0x00
	.db #0x00
	.db #0x00
	.db #0x00
	.db #0x00
	.db #0x00
	.db #0x98
	.db #0x21
	.db #0x42
	.db #0x42
	.db #0x63
	.db #0x18
	.db #0x00
	.db #0x00
	.db #0x00
	.db #0x00
	.db #0x00
	.db #0x00
	.db #0x00
	.db #0x04
	.db #0x74
	.db #0x42
	.db #0x98
	.db #0x74
	.db #0x00
	.db #0x00
	.db #0x00
	.db #0x00
	.db #0x00
	.db #0x00
	.db #0x00
	.db #0x00
	.db #0x00
	.db #0x04
	.db #0x18
	.db #0xB2
	.db #0x00
	.db #0x00
	.db #0x00
	.db #0x00
	.db #0x00
	.db #0x00
	.db #0x00
	.db #0x00
	.db #0x00
	.db #0xBC
	.db #0xB8
	.db #0x00
	.db #0x00
	.db #0x00
	.db #0x00
	.db #0x00
	.db #0x00
	.db #0x00
	.db #0x00
	.db #0x00
	.db #0x00
	.db #0x24
	.db #0x04
	.db #0x04
	.db #0xB8
	.db #0x00
	.db #0x00
	.db #0x00
	.db #0x00
	.db #0x00
	.db #0x00
	.db #0x00
	.db #0x04
	.db #0x74
	.db #0x24
	.db #0x49
	.db #0x04
	.db #0x04
	.db #0x74
	.db #0x00
	.db #0x00
	.db #0x00
	.db #0x00
	.db #0x00
	.db #0x00
	.db #0xFC
	.db #0x04
	.db #0x04
	.db #0x24
	.db #0x49
	.db #0xDC
	.db #0x63
	.db #0x41
	.db #0x98
	.db #0x00
	.db #0x00
	.db #0x00
	.db #0x00
	.db #0x98
	.db #0xBC
	.db #0x04
	.db #0x04
	.db #0xBC
	.db #0x62
	.db #0x62
	.db #0xDC
	.db #0x63
	.db #0xB8
	.db #0x00
	.db #0x00
	.db #0x00
	.db #0x04
	.db #0xBC
	.db #0x98
	.db #0x74
	.db #0xB8
	.db #0x41
	.db #0xBC
	.db #0x42
	.db #0x42
	.db #0x63
	.db #0x50
	.db #0x00
	.db #0x00
	.db #0x00
	.db #0x04
	.db #0x50
	.db #0x74
	.db #0x74
	.db #0x98
	.db #0x21
	.db #0x42
	.db #0x42
	.db #0x74
	.db #0x18
	.db #0x00
	.db #0x00
	.db #0x00
	.db #0x00
	.db #0x00
	.db #0x00
	.db #0x74
	.db #0x74
	.db #0x74
	.db #0x41
	.db #0x98
	.db #0x74
	.db #0x00
	.db #0x00
	.db #0x00
	.db #0x00
	.db #0x00
	.db #0x00
	.db #0x00
	.db #0x00
	.db #0x98
	.db #0xBC
	.db #0x1C
	.db #0x98
	.db #0x00
	.db #0x00
	.db #0x00
	.db #0x00
	.db #0x00
	.db #0x00
	.db #0x00
	.db #0x00
	.db #0x00
	.db #0x04
	.db #0x04
	.db #0x74
	.db #0xB2
	.db #0x00
	.db #0x00
	.db #0x00
	.db #0x00
	.db #0x00
	.db #0x00
	.db #0x00
	.db #0x00
	.db #0x00
	.db #0x00
	.db #0x00
	.db #0x00
	.db #0x00
	.db #0x00
	.db #0x00
	.db #0x00
	.db #0x00
	.db #0x00
	.db #0x00
	.db #0x00
	.db #0x00
	.db #0x00
	.db #0x00
	.db #0x00
	.db #0x00
	.db #0x00
	.db #0x00
	.db #0x00
	.db #0x00
	.db #0x00
	.db #0x00
	.db #0xDC
	.db #0x74
	.db #0x50
	.db #0x00
	.db #0x00
	.db #0x00
	.db #0x00
	.db #0x00
	.db #0x00
	.db #0x00
	.db #0x00
	.db #0x00
	.db #0x74
	.db #0x04
	.db #0x04
	.db #0x98
	.db #0x74
	.db #0x50
	.db #0x63
	.db #0x98
	.db #0x42
	.db #0x00
	.db #0x00
	.db #0x00
	.db #0x00
	.db #0x04
	.db #0x24
	.db #0x24
	.db #0x04
	.db #0x74
	.db #0x62
	.db #0x63
	.db #0xDC
	.db #0x42
	.db #0x50
	.db #0x00
	.db #0x00
	.db #0x74
	.db #0xBC
	.db #0x74
	.db #0x24
	.db #0x49
	.db #0xBC
	.db #0x62
	.db #0xB8
	.db #0x21
	.db #0x41
	.db #0x42
	.db #0x14
	.db #0x00
	.db #0x50
	.db #0xFC
	.db #0x98
	.db #0xBC
	.db #0xBC
	.db #0xB8
	.db #0x21
	.db #0x98
	.db #0x21
	.db #0x42
	.db #0x74
	.db #0x00
	.db #0x00
	.db #0x00
	.db #0x74
	.db #0x04
	.db #0x50
	.db #0x74
	.db #0x98
	.db #0x98
	.db #0x74
	.db #0x98
	.db #0x42
	.db #0x74
	.db #0x00
	.db #0x00
	.db #0x00
	.db #0x00
	.db #0x04
	.db #0x04
	.db #0x50
	.db #0x74
	.db #0x50
	.db #0x98
	.db #0xB8
	.db #0xBC
	.db #0x1C
	.db #0xB2
	.db #0x00
	.db #0x00
	.db #0x00
	.db #0x00
	.db #0x00
	.db #0x00
	.db #0x00
	.db #0x00
	.db #0x04
	.db #0x50
	.db #0x98
	.db #0x50
	.db #0x00
	.db #0x00
	.db #0x00
	.db #0x00
	.db #0x00
	.db #0x00
	.db #0x00
	.db #0x00
	.db #0x00
	.db #0x04
	.db #0x04
	.db #0x00
	.db #0x00
	.db #0x00
	.db #0x00
	.db #0x00
	.db #0x00
	.db #0x00
	.db #0x00
	.db #0x00
	.db #0x00
	.db #0x00
	.db #0x00
	.db #0x00
	.db #0x00
	.db #0x00
	.db #0x00
	.db #0x00
	.db #0x00
	.db #0x00
	.db #0x00
	.db #0x00
	.db #0x00
	.db #0x00
	.db #0x00
	.db #0x00
	.db #0x00
	.db #0x00
	.db #0x00
	.db #0x00
	.db #0x00
	.db #0x00
	.db #0x00
	.db #0x00
	.db #0x00
	.db #0x00
	.db #0x00
	.db #0x00
	.db #0x63
	.db #0xDC
	.db #0x42
	.db #0x00
	.db #0x00
	.db #0x00
	.db #0x00
	.db #0x50
	.db #0xBC
	.db #0x74
	.db #0x98
	.db #0xB8
	.db #0xBC
	.db #0x63
	.db #0xB8
	.db #0x42
	.db #0x42
	.db #0x14
	.db #0x00
	.db #0x00
	.db #0x74
	.db #0x04
	.db #0x04
	.db #0x04
	.db #0x04
	.db #0xB8
	.db #0x62
	.db #0xB8
	.db #0x41
	.db #0x42
	.db #0x74
	.db #0x00
	.db #0x00
	.db #0x04
	.db #0x24
	.db #0x24
	.db #0x49
	.db #0x49
	.db #0xB8
	.db #0x42
	.db #0x74
	.db #0x21
	.db #0x42
	.db #0x74
	.db #0x00
	.db #0x00
	.db #0xBC
	.db #0x24
	.db #0x24
	.db #0x24
	.db #0x24
	.db #0x74
	.db #0x21
	.db #0x50
	.db #0x21
	.db #0x42
	.db #0x98
	.db #0x00
	.db #0x00
	.db #0x74
	.db #0xFC
	.db #0xB8
	.db #0xBC
	.db #0x98
	.db #0x74
	.db #0x74
	.db #0x74
	.db #0xB8
	.db #0xBC
	.db #0x18
	.db #0xB2
	.db #0x00
	.db #0x50
	.db #0x74
	.db #0x04
	.db #0x04
	.db #0x50
	.db #0x74
	.db #0x74
	.db #0x50
	.db #0x04
	.db #0x04
	.db #0x98
	.db #0x00
	.db #0x00
	.db #0x00
	.db #0x00
	.db #0x04
	.db #0x04
	.db #0x00
	.db #0x00
	.db #0x00
	.db #0x00
	.db #0x04
	.db #0x04
	.db #0x00
	.db #0x00
	.db #0x00
	.db #0x00
	.db #0x00
	.db #0x00
	.db #0x00
	.db #0x00
	.db #0x00
	.db #0x00
	.db #0x00
	.db #0x00
	.db #0x00
	.db #0x00
	.db #0x00
	.db #0x00
	.db #0x00
	.db #0x00
	.db #0x00
	.db #0x00
	.db #0x00
	.db #0x00
	.db #0x00
	.db #0x00
	.db #0x00
	.db #0x00
	.db #0x00
	.db #0x00
	.db #0x00
	.db #0x00
	.db #0x00
	.db #0x00
	.db #0x00
	.db #0x00
	.db #0x00
	.db #0x00
	.db #0x00
	.db #0x00
	.db #0x00
	.db #0x00
	.db #0x00
	.db #0x00
	.db #0x00
	.db #0x00
	.db #0x00
	.db #0x00
	.db #0x00
	.db #0x63
	.db #0x98
	.db #0x42
	.db #0x42
	.db #0x14
	.db #0x00
	.db #0x00
	.db #0x00
	.db #0x00
	.db #0x00
	.db #0x50
	.db #0xB8
	.db #0xBC
	.db #0x63
	.db #0xDC
	.db #0x42
	.db #0x42
	.db #0x74
	.db #0x00
	.db #0x00
	.db #0x00
	.db #0xBC
	.db #0x74
	.db #0x98
	.db #0x04
	.db #0xDC
	.db #0x62
	.db #0x62
	.db #0xB8
	.db #0x42
	.db #0x74
	.db #0x50
	.db #0x00
	.db #0x74
	.db #0x74
	.db #0x04
	.db #0x04
	.db #0x49
	.db #0x49
	.db #0xB8
	.db #0x42
	.db #0x98
	.db #0x21
	.db #0x42
	.db #0x98
	.db #0xB2
	.db #0x50
	.db #0x04
	.db #0x24
	.db #0x24
	.db #0x24
	.db #0x24
	.db #0xB8
	.db #0x21
	.db #0x74
	.db #0xB8
	.db #0xBC
	.db #0x18
	.db #0x00
	.db #0x00
	.db #0xBC
	.db #0x24
	.db #0x24
	.db #0xBC
	.db #0xBC
	.db #0xBC
	.db #0x98
	.db #0x98
	.db #0x74
	.db #0x04
	.db #0x50
	.db #0x00
	.db #0x00
	.db #0x74
	.db #0xFC
	.db #0xB8
	.db #0x04
	.db #0x50
	.db #0x74
	.db #0x74
	.db #0x50
	.db #0x04
	.db #0x04
	.db #0x00
	.db #0x00
	.db #0x00
	.db #0x00
	.db #0x50
	.db #0x74
	.db #0x04
	.db #0x04
	.db #0x00
	.db #0x00
	.db #0x00
	.db #0x00
	.db #0x00
	.db #0x00
	.db #0x00
	.db #0x00
	.db #0x00
	.db #0x00
	.db #0x00
	.db #0x00
	.db #0x00
	.db #0x00
	.db #0x00
	.db #0x00
	.db #0x00
	.db #0x00
	.db #0x00
	.db #0x00
	.db #0x00
	.db #0x00
	.db #0x00
	.db #0x00
	.db #0x00
	.db #0x00
	.db #0x00
	.db #0x00
	.db #0x00
	.db #0x00
	.db #0x00
	.db #0x00
	.db #0x00
	.db #0x00
	.db #0x00
	.db #0x00
	.db #0x00
	.db #0x00
	.db #0x00
	.db #0x50
	.db #0x14
	.db #0x74
	.db #0x00
	.db #0x00
	.db #0x00
	.db #0x00
	.db #0x00
	.db #0x00
	.db #0x00
	.db #0x00
	.db #0x00
	.db #0x74
	.db #0x42
	.db #0x42
	.db #0x42
	.db #0x74
	.db #0x00
	.db #0x00
	.db #0x00
	.db #0x00
	.db #0x00
	.db #0x00
	.db #0x00
	.db #0x63
	.db #0xB8
	.db #0xBC
	.db #0x74
	.db #0x42
	.db #0x21
	.db #0x98
	.db #0xB2
	.db #0x00
	.db #0x00
	.db #0x00
	.db #0x00
	.db #0x50
	.db #0x62
	.db #0x62
	.db #0x98
	.db #0xBC
	.db #0x74
	.db #0x21
	.db #0xBC
	.db #0x1C
	.db #0x00
	.db #0x00
	.db #0x00
	.db #0x74
	.db #0xB8
	.db #0xBC
	.db #0x62
	.db #0x42
	.db #0x74
	.db #0xB8
	.db #0xBC
	.db #0x04
	.db #0x00
	.db #0x00
	.db #0x00
	.db #0xB8
	.db #0xB8
	.db #0x04
	.db #0x49
	.db #0xBC
	.db #0x42
	.db #0x21
	.db #0x74
	.db #0x04
	.db #0x00
	.db #0x00
	.db #0x00
	.db #0x74
	.db #0xFC
	.db #0x04
	.db #0x24
	.db #0x49
	.db #0x24
	.db #0xBC
	.db #0xB8
	.db #0x74
	.db #0x00
	.db #0x00
	.db #0x00
	.db #0x00
	.db #0x50
	.db #0x04
	.db #0x24
	.db #0x24
	.db #0x24
	.db #0x98
	.db #0xBC
	.db #0x74
	.db #0x00
	.db #0x00
	.db #0x00
	.db #0x00
	.db #0x00
	.db #0x00
	.db #0x04
	.db #0x04
	.db #0x24
	.db #0xFC
	.db #0xBC
	.db #0x04
	.db #0x00
	.db #0x00
	.db #0x00
	.db #0x00
	.db #0x00
	.db #0x00
	.db #0x00
	.db #0x00
	.db #0x04
	.db #0x74
	.db #0x74
	.db #0x04
	.db #0x00
	.db #0x00
	.db #0x00
	.db #0x00
	.db #0x00
	.db #0x00
	.db #0x00
	.db #0x00
	.db #0x00
	.db #0x00
	.db #0x00
	.db #0x00
	.db #0x00
	.db #0x00
	.db #0x00
	.db #0x00
	.db #0x00
	.db #0x00
	.db #0x00
	.db #0x00
	.db #0x00
	.db #0x00
	.db #0x00
	.db #0x00
	.db #0x00
	.db #0x00
	.db #0x18
	.db #0x74
	.db #0x00
	.db #0x00
	.db #0x00
	.db #0x00
	.db #0x00
	.db #0x00
	.db #0x00
	.db #0x00
	.db #0x00
	.db #0x50
	.db #0x74
	.db #0x41
	.db #0x42
	.db #0x98
	.db #0x74
	.db #0x00
	.db #0x00
	.db #0x00
	.db #0x00
	.db #0x00
	.db #0x00
	.db #0x00
	.db #0xBC
	.db #0x98
	.db #0xB8
	.db #0x42
	.db #0x42
	.db #0x63
	.db #0x18
	.db #0x00
	.db #0x00
	.db #0x00
	.db #0x00
	.db #0x00
	.db #0x24
	.db #0x74
	.db #0xB8
	.db #0xBC
	.db #0xBC
	.db #0xBC
	.db #0xDC
	.db #0xB8
	.db #0x00
	.db #0x00
	.db #0x00
	.db #0x00
	.db #0x00
	.db #0x50
	.db #0x74
	.db #0x41
	.db #0x63
	.db #0xBC
	.db #0xDC
	.db #0x98
	.db #0xBC
	.db #0x00
	.db #0x00
	.db #0x00
	.db #0x00
	.db #0x00
	.db #0x98
	.db #0x74
	.db #0xB8
	.db #0x42
	.db #0x63
	.db #0x62
	.db #0x74
	.db #0x04
	.db #0x00
	.db #0x00
	.db #0x00
	.db #0x00
	.db #0xBC
	.db #0xBC
	.db #0x04
	.db #0x24
	.db #0xBC
	.db #0xDC
	.db #0x74
	.db #0x74
	.db #0x00
	.db #0x00
	.db #0x00
	.db #0x00
	.db #0x00
	.db #0x98
	.db #0xBC
	.db #0x04
	.db #0x24
	.db #0x49
	.db #0x04
	.db #0x50
	.db #0x00
	.db #0x00
	.db #0x00
	.db #0x00
	.db #0x00
	.db #0x50
	.db #0x98
	.db #0x04
	.db #0x24
	.db #0x24
	.db #0x49
	.db #0x04
	.db #0xBC
	.db #0x00
	.db #0x00
	.db #0x00
	.db #0x00
	.db #0x00
	.db #0x04
	.db #0x50
	.db #0x74
	.db #0x24
	.db #0x24
	.db #0x04
	.db #0xFC
	.db #0xBC
	.db #0x00
	.db #0x00
	.db #0x00
	.db #0x00
	.db #0x00
	.db #0x00
	.db #0x00
	.db #0x50
	.db #0x74
	.db #0x74
	.db #0x74
	.db #0xFC
	.db #0x04
	.db #0x00
	.db #0x00
	.db #0x00
	.db #0x00
	.db #0x00
	.db #0x00
	.db #0x00
	.db #0x14
	.db #0x74
	.db #0x98
	.db #0x74
	.db #0x74
	.db #0x14
	.db #0x00
	.db #0x00
	.db #0x00
	.db #0x00
	.db #0x00
	.db #0x00
	.db #0x00
	.db #0xB8
	.db #0x63
	.db #0x42
	.db #0x42
	.db #0x41
	.db #0x74
	.db #0x00
	.db #0x00
	.db #0x00
	.db #0x00
	.db #0x00
	.db #0x00
	.db #0xBC
	.db #0x98
	.db #0xDC
	.db #0xBC
	.db #0xBC
	.db #0xB8
	.db #0x74
	.db #0xBC
	.db #0x00
	.db #0x00
	.db #0x00
	.db #0x00
	.db #0x00
	.db #0x98
	.db #0x74
	.db #0xDC
	.db #0xBC
	.db #0xBC
	.db #0xB8
	.db #0x74
	.db #0x98
	.db #0x00
	.db #0x00
	.db #0x00
	.db #0x00
	.db #0x00
	.db #0x24
	.db #0x74
	.db #0x62
	.db #0x63
	.db #0x63
	.db #0x41
	.db #0x50
	.db #0x04
	.db #0x00
	.db #0x00
	.db #0x00
	.db #0x00
	.db #0x00
	.db #0x00
	.db #0x74
	.db #0xDC
	.db #0xBC
	.db #0xBC
	.db #0xB8
	.db #0x74
	.db #0x00
	.db #0x00
	.db #0x00
	.db #0x00
	.db #0x00
	.db #0x00
	.db #0x00
	.db #0x98
	.db #0x04
	.db #0x49
	.db #0x24
	.db #0x04
	.db #0x98
	.db #0x00
	.db #0x00
	.db #0x00
	.db #0x00
	.db #0x00
	.db #0x00
	.db #0xBC
	.db #0xBC
	.db #0x04
	.db #0x49
	.db #0x24
	.db #0x04
	.db #0xBC
	.db #0xBC
	.db #0x00
	.db #0x00
	.db #0x00
	.db #0x00
	.db #0x00
	.db #0x98
	.db #0xB8
	.db #0x04
	.db #0x24
	.db #0x24
	.db #0x04
	.db #0xBC
	.db #0x98
	.db #0x00
	.db #0x00
	.db #0x00
	.db #0x00
	.db #0x00
	.db #0x24
	.db #0xFC
	.db #0x74
	.db #0x24
	.db #0x24
	.db #0x74
	.db #0xFC
	.db #0x04
	.db #0x00
	.db #0x00
	.db #0x00
	.db #0x00
	.db #0x00
	.db #0x00
	.db #0x00
	.db #0x50
	.db #0x74
	.db #0x74
	.db #0x50
	.db #0x00
	.db #0x00
	.db #0x00
	.db #0x00
	.db #0x00
	.db #0x00
	.db #0x00
	.db #0x00
	.db #0x00
	.db #0x00
	.db #0x74
	.db #0x18
	.db #0x00
	.db #0x00
	.db #0x00
	.db #0x00
	.db #0x00
	.db #0x00
	.db #0x00
	.db #0x00
	.db #0x00
	.db #0x74
	.db #0x98
	.db #0x42
	.db #0x41
	.db #0x74
	.db #0x50
	.db #0x00
	.db #0x00
	.db #0x00
	.db #0x00
	.db #0x00
	.db #0x00
	.db #0x18
	.db #0x63
	.db #0x42
	.db #0x42
	.db #0xB8
	.db #0x98
	.db #0xBC
	.db #0x00
	.db #0x00
	.db #0x00
	.db #0x00
	.db #0x00
	.db #0x00
	.db #0xB8
	.db #0xDC
	.db #0xBC
	.db #0xBC
	.db #0xBC
	.db #0xB8
	.db #0x74
	.db #0x00
	.db #0x00
	.db #0x00
	.db #0x00
	.db #0x00
	.db #0x00
	.db #0x50
	.db #0x98
	.db #0xDC
	.db #0xBC
	.db #0x63
	.db #0x41
	.db #0x74
	.db #0x50
	.db #0x00
	.db #0x00
	.db #0x00
	.db #0x00
	.db #0x00
	.db #0x24
	.db #0xB8
	.db #0x62
	.db #0x63
	.db #0x42
	.db #0xB8
	.db #0x74
	.db #0x98
	.db #0x00
	.db #0x00
	.db #0x00
	.db #0x00
	.db #0x00
	.db #0x00
	.db #0x74
	.db #0x74
	.db #0xDC
	.db #0xBC
	.db #0x24
	.db #0x04
	.db #0xBC
	.db #0xBC
	.db #0x00
	.db #0x00
	.db #0x00
	.db #0x00
	.db #0x00
	.db #0x00
	.db #0x98
	.db #0x04
	.db #0x49
	.db #0x24
	.db #0x04
	.db #0x50
	.db #0x98
	.db #0x50
	.db #0x00
	.db #0x00
	.db #0x00
	.db #0x00
	.db #0x00
	.db #0xBC
	.db #0x04
	.db #0x49
	.db #0x24
	.db #0x24
	.db #0x04
	.db #0xFC
	.db #0x04
	.db #0x00
	.db #0x00
	.db #0x00
	.db #0x00
	.db #0x00
	.db #0x50
	.db #0xFC
	.db #0x04
	.db #0x24
	.db #0x24
	.db #0x74
	.db #0x50
	.db #0x00
	.db #0x00
	.db #0x00
	.db #0x00
	.db #0x00
	.db #0x00
	.db #0x24
	.db #0xB8
	.db #0x74
	.db #0x74
	.db #0x74
	.db #0x50
	.db #0x00
	.db #0x00
	.db #0x00
	.db #0x00
	.db #0x00
	.db #0x00
	.db #0x00
	.db #0xB2
	.db #0x14
	.db #0x00
	.db #0x00
	.db #0x00
	.db #0x00
	.db #0x00
	.db #0x00
	.db #0x00
	.db #0x00
	.db #0x00
	.db #0x00
	.db #0x74
	.db #0x42
	.db #0x42
	.db #0x42
	.db #0x74
	.db #0x00
	.db #0x00
	.db #0x00
	.db #0x00
	.db #0x00
	.db #0x00
	.db #0x00
	.db #0x98
	.db #0x21
	.db #0x42
	.db #0x74
	.db #0xBC
	.db #0xB8
	.db #0x63
	.db #0x00
	.db #0x00
	.db #0x00
	.db #0x00
	.db #0x00
	.db #0x1C
	.db #0xBC
	.db #0x21
	.db #0x74
	.db #0xBC
	.db #0x98
	.db #0x62
	.db #0x62
	.db #0x50
	.db #0x00
	.db #0x00
	.db #0x00
	.db #0x00
	.db #0x00
	.db #0x04
	.db #0xBC
	.db #0xB8
	.db #0x74
	.db #0x42
	.db #0x62
	.db #0xBC
	.db #0xB8
	.db #0x74
	.db #0x00
	.db #0x00
	.db #0x00
	.db #0x00
	.db #0x00
	.db #0x04
	.db #0x74
	.db #0x21
	.db #0x42
	.db #0xBC
	.db #0x49
	.db #0x04
	.db #0xB8
	.db #0x74
	.db #0x00
	.db #0x00
	.db #0x00
	.db #0x00
	.db #0x00
	.db #0x74
	.db #0xB8
	.db #0xBC
	.db #0x24
	.db #0x49
	.db #0x24
	.db #0x04
	.db #0xFC
	.db #0x50
	.db #0x00
	.db #0x00
	.db #0x00
	.db #0x00
	.db #0x00
	.db #0x74
	.db #0xBC
	.db #0x98
	.db #0x24
	.db #0x24
	.db #0x24
	.db #0x74
	.db #0x74
	.db #0x00
	.db #0x00
	.db #0x00
	.db #0x00
	.db #0x00
	.db #0x00
	.db #0x04
	.db #0xBC
	.db #0xFC
	.db #0x24
	.db #0x04
	.db #0x04
	.db #0x00
	.db #0x00
	.db #0x00
	.db #0x00
	.db #0x00
	.db #0x00
	.db #0x00
	.db #0x00
	.db #0x04
	.db #0x74
	.db #0x74
	.db #0x04
	.db #0x00
	.db #0x00
	.db #0x00
	.db #0x00
	.db #0x00
	.db #0x00
	.db #0x00
	.db #0x00
	.db #0x00
	.db #0x00
	.db #0x00
	.db #0x00
	.db #0x00
	.db #0x00
	.db #0x00
	.db #0x00
	.db #0x00
	.db #0x00
	.db #0x00
	.db #0x00
	.db #0x00
	.db #0x00
	.db #0x00
	.db #0x00
	.db #0x00
	.db #0x00
	.db #0x00
	.db #0x00
	.db #0x00
	.db #0x00
	.db #0x14
	.db #0x42
	.db #0x42
	.db #0x98
	.db #0x63
	.db #0x00
	.db #0x00
	.db #0x00
	.db #0x00
	.db #0x00
	.db #0x00
	.db #0x00
	.db #0xB2
	.db #0x74
	.db #0x42
	.db #0x42
	.db #0xDC
	.db #0x63
	.db #0xBC
	.db #0xB8
	.db #0x50
	.db #0x00
	.db #0x00
	.db #0x00
	.db #0x00
	.db #0x50
	.db #0x74
	.db #0x42
	.db #0xB8
	.db #0x62
	.db #0x62
	.db #0xDC
	.db #0x04
	.db #0x98
	.db #0x74
	.db #0xBC
	.db #0x00
	.db #0x00
	.db #0x98
	.db #0x42
	.db #0x21
	.db #0x98
	.db #0x42
	.db #0xB8
	.db #0x49
	.db #0x49
	.db #0x04
	.db #0x04
	.db #0x74
	.db #0x74
	.db #0x00
	.db #0x18
	.db #0xBC
	.db #0xB8
	.db #0x74
	.db #0x21
	.db #0xB8
	.db #0x24
	.db #0x24
	.db #0x24
	.db #0x24
	.db #0x04
	.db #0x50
	.db #0x00
	.db #0x50
	.db #0x04
	.db #0x74
	.db #0x98
	.db #0x98
	.db #0xBC
	.db #0xBC
	.db #0xBC
	.db #0x24
	.db #0x24
	.db #0xBC
	.db #0x00
	.db #0x00
	.db #0x00
	.db #0x04
	.db #0x04
	.db #0x50
	.db #0x74
	.db #0x74
	.db #0x04
	.db #0x74
	.db #0x98
	.db #0xFC
	.db #0x74
	.db #0x00
	.db #0x00
	.db #0x00
	.db #0x00
	.db #0x00
	.db #0x00
	.db #0x00
	.db #0x00
	.db #0x04
	.db #0x04
	.db #0xB8
	.db #0x50
	.db #0x00
	.db #0x00
	.db #0x00
	.db #0x00
	.db #0x00
	.db #0x00
	.db #0x00
	.db #0x00
	.db #0x00
	.db #0x00
	.db #0x00
	.db #0x00
	.db #0x00
	.db #0x00
	.db #0x00
	.db #0x00
	.db #0x00
	.db #0x00
	.db #0x00
	.db #0x00
	.db #0x00
	.db #0x00
	.db #0x00
	.db #0x00
	.db #0x00
	.db #0x00
	.db #0x00
	.db #0x00
_car3:
	.db #0x00
	.db #0x00
	.db #0x00
	.db #0x00
	.db #0x00
	.db #0x00
	.db #0x00
	.db #0x00
	.db #0x00
	.db #0x00
	.db #0x00
	.db #0x00
	.db #0x00
	.db #0x00
	.db #0x00
	.db #0x00
	.db #0x00
	.db #0x00
	.db #0x00
	.db #0x00
	.db #0x00
	.db #0x00
	.db #0x00
	.db #0x00
	.db #0x00
	.db #0x00
	.db #0x00
	.db #0x14
	.db #0x08
	.db #0x0C
	.db #0x65
	.db #0x14
	.db #0x14
	.db #0x65
	.db #0x10
	.db #0x10
	.db #0xB8
	.db #0x00
	.db #0x00
	.db #0x00
	.db #0x14
	.db #0x20
	.db #0x14
	.db #0xAE
	.db #0x1C
	.db #0x1C
	.db #0xAE
	.db #0x14
	.db #0x14
	.db #0x14
	.db #0x04
	.db #0x00
	.db #0x00
	.db #0x1C
	.db #0x20
	.db #0x1C
	.db #0x14
	.db #0x1C
	.db #0x1C
	.db #0xD2
	.db #0x14
	.db #0x18
	.db #0x1C
	.db #0x10
	.db #0x00
	.db #0x00
	.db #0x0C
	.db #0x14
	.db #0x14
	.db #0x14
	.db #0x14
	.db #0x1C
	.db #0x14
	.db #0x10
	.db #0x14
	.db #0x14
	.db #0x14
	.db #0x00
	.db #0x00
	.db #0x9C
	.db #0x18
	.db #0x1C
	.db #0x14
	.db #0x14
	.db #0x14
	.db #0x14
	.db #0x1C
	.db #0x18
	.db #0xFC
	.db #0x18
	.db #0x00
	.db #0x00
	.db #0x18
	.db #0x14
	.db #0x24
	.db #0x24
	.db #0x0C
	.db #0x10
	.db #0x0C
	.db #0x24
	.db #0x24
	.db #0x18
	.db #0x04
	.db #0x00
	.db #0x00
	.db #0x00
	.db #0x00
	.db #0x04
	.db #0x04
	.db #0x00
	.db #0x00
	.db #0x00
	.db #0x04
	.db #0x04
	.db #0x00
	.db #0x00
	.db #0x00
	.db #0x00
	.db #0x00
	.db #0x00
	.db #0x00
	.db #0x00
	.db #0x00
	.db #0x00
	.db #0x00
	.db #0x00
	.db #0x00
	.db #0x00
	.db #0x00
	.db #0x00
	.db #0x00
	.db #0x00
	.db #0x00
	.db #0x00
	.db #0x00
	.db #0x00
	.db #0x00
	.db #0x00
	.db #0x00
	.db #0x00
	.db #0x00
	.db #0x00
	.db #0x00
	.db #0x00
	.db #0x00
	.db #0x00
	.db #0x00
	.db #0x00
	.db #0x00
	.db #0x00
	.db #0x00
	.db #0x00
	.db #0x00
	.db #0x00
	.db #0x00
	.db #0x00
	.db #0x00
	.db #0x00
	.db #0x00
	.db #0x00
	.db #0x00
	.db #0x00
	.db #0x65
	.db #0x10
	.db #0x10
	.db #0xB8
	.db #0x04
	.db #0x00
	.db #0x00
	.db #0x00
	.db #0x00
	.db #0x00
	.db #0x65
	.db #0x14
	.db #0x14
	.db #0xAE
	.db #0x14
	.db #0x14
	.db #0x14
	.db #0x10
	.db #0x0C
	.db #0x00
	.db #0x00
	.db #0x08
	.db #0x14
	.db #0xAE
	.db #0x1C
	.db #0x1C
	.db #0xD2
	.db #0x14
	.db #0x18
	.db #0x1C
	.db #0x14
	.db #0x0C
	.db #0x00
	.db #0x00
	.db #0x14
	.db #0x20
	.db #0x1C
	.db #0x14
	.db #0x1C
	.db #0x1C
	.db #0x14
	.db #0x10
	.db #0x14
	.db #0xFC
	.db #0x18
	.db #0x00
	.db #0x00
	.db #0x1C
	.db #0x14
	.db #0x14
	.db #0x14
	.db #0x14
	.db #0x14
	.db #0x14
	.db #0x1C
	.db #0x18
	.db #0x18
	.db #0x04
	.db #0x00
	.db #0x00
	.db #0x0C
	.db #0x18
	.db #0x1C
	.db #0x14
	.db #0x14
	.db #0x10
	.db #0x0C
	.db #0x24
	.db #0x24
	.db #0x04
	.db #0x00
	.db #0x00
	.db #0x00
	.db #0x9C
	.db #0x14
	.db #0x24
	.db #0x24
	.db #0x0C
	.db #0x00
	.db #0x00
	.db #0x00
	.db #0x04
	.db #0x04
	.db #0x00
	.db #0x00
	.db #0x00
	.db #0x00
	.db #0x00
	.db #0x00
	.db #0x04
	.db #0x04
	.db #0x00
	.db #0x00
	.db #0x00
	.db #0x00
	.db #0x00
	.db #0x00
	.db #0x00
	.db #0x00
	.db #0x00
	.db #0x00
	.db #0x00
	.db #0x00
	.db #0x00
	.db #0x00
	.db #0x00
	.db #0x00
	.db #0x00
	.db #0x00
	.db #0x00
	.db #0x00
	.db #0x00
	.db #0x00
	.db #0x00
	.db #0x00
	.db #0x00
	.db #0x00
	.db #0x00
	.db #0x00
	.db #0x00
	.db #0x00
	.db #0x00
	.db #0x00
	.db #0x00
	.db #0x00
	.db #0x00
	.db #0x00
	.db #0x00
	.db #0x00
	.db #0x00
	.db #0x00
	.db #0x00
	.db #0x00
	.db #0x00
	.db #0x00
	.db #0x00
	.db #0x00
	.db #0x00
	.db #0x00
	.db #0x00
	.db #0x00
	.db #0x00
	.db #0x00
	.db #0x0C
	.db #0x10
	.db #0xB8
	.db #0x24
	.db #0x00
	.db #0x00
	.db #0x00
	.db #0x00
	.db #0x00
	.db #0x00
	.db #0x00
	.db #0x0C
	.db #0x8A
	.db #0x18
	.db #0x10
	.db #0x14
	.db #0x0C
	.db #0x0C
	.db #0x00
	.db #0x00
	.db #0x00
	.db #0x00
	.db #0x00
	.db #0x0C
	.db #0x10
	.db #0x14
	.db #0xB2
	.db #0x10
	.db #0x14
	.db #0x14
	.db #0x0C
	.db #0x00
	.db #0x00
	.db #0x00
	.db #0x00
	.db #0x08
	.db #0xB2
	.db #0x14
	.db #0x14
	.db #0x8A
	.db #0x14
	.db #0x18
	.db #0x14
	.db #0xBC
	.db #0x24
	.db #0x00
	.db #0x00
	.db #0x18
	.db #0x20
	.db #0x14
	.db #0xB2
	.db #0x10
	.db #0x10
	.db #0x14
	.db #0x1C
	.db #0x24
	.db #0x04
	.db #0x00
	.db #0x00
	.db #0x00
	.db #0x18
	.db #0x0C
	.db #0x20
	.db #0x1C
	.db #0x10
	.db #0x14
	.db #0x14
	.db #0x0C
	.db #0x04
	.db #0x04
	.db #0x00
	.db #0x00
	.db #0x00
	.db #0x00
	.db #0x18
	.db #0x0C
	.db #0x10
	.db #0x14
	.db #0x10
	.db #0x0C
	.db #0x00
	.db #0x00
	.db #0x00
	.db #0x00
	.db #0x00
	.db #0x00
	.db #0x00
	.db #0x9C
	.db #0x18
	.db #0x0C
	.db #0x24
	.db #0x04
	.db #0x00
	.db #0x00
	.db #0x00
	.db #0x00
	.db #0x00
	.db #0x00
	.db #0x00
	.db #0x00
	.db #0x00
	.db #0x00
	.db #0x04
	.db #0x04
	.db #0x00
	.db #0x00
	.db #0x00
	.db #0x00
	.db #0x00
	.db #0x00
	.db #0x00
	.db #0x00
	.db #0x00
	.db #0x00
	.db #0x00
	.db #0x00
	.db #0x00
	.db #0x00
	.db #0x00
	.db #0x00
	.db #0x00
	.db #0x00
	.db #0x00
	.db #0x00
	.db #0x00
	.db #0x00
	.db #0x00
	.db #0x00
	.db #0x98
	.db #0x10
	.db #0x0C
	.db #0x0C
	.db #0x00
	.db #0x00
	.db #0x00
	.db #0x00
	.db #0x00
	.db #0x00
	.db #0x00
	.db #0x00
	.db #0x10
	.db #0x18
	.db #0x14
	.db #0x14
	.db #0x14
	.db #0x0C
	.db #0x00
	.db #0x00
	.db #0x00
	.db #0x00
	.db #0x00
	.db #0x00
	.db #0x00
	.db #0x08
	.db #0x8A
	.db #0x14
	.db #0x14
	.db #0x18
	.db #0x10
	.db #0x98
	.db #0x00
	.db #0x00
	.db #0x00
	.db #0x00
	.db #0x00
	.db #0x08
	.db #0x0C
	.db #0x14
	.db #0xD6
	.db #0xB2
	.db #0x8A
	.db #0x1C
	.db #0x10
	.db #0x00
	.db #0x00
	.db #0x00
	.db #0x00
	.db #0x00
	.db #0x0C
	.db #0x10
	.db #0x14
	.db #0x18
	.db #0x1C
	.db #0x14
	.db #0x08
	.db #0x04
	.db #0x00
	.db #0x00
	.db #0x00
	.db #0x00
	.db #0x14
	.db #0x0C
	.db #0x14
	.db #0xB2
	.db #0x1C
	.db #0x14
	.db #0x14
	.db #0x08
	.db #0x04
	.db #0x00
	.db #0x00
	.db #0x00
	.db #0x00
	.db #0x04
	.db #0x10
	.db #0x14
	.db #0x10
	.db #0xB2
	.db #0x14
	.db #0x0C
	.db #0x00
	.db #0x00
	.db #0x00
	.db #0x00
	.db #0x00
	.db #0x00
	.db #0x04
	.db #0x10
	.db #0x20
	.db #0x10
	.db #0x0C
	.db #0x14
	.db #0x0C
	.db #0x14
	.db #0x00
	.db #0x00
	.db #0x00
	.db #0x00
	.db #0x00
	.db #0x00
	.db #0x18
	.db #0x1C
	.db #0x20
	.db #0x10
	.db #0x9C
	.db #0x14
	.db #0x04
	.db #0x00
	.db #0x00
	.db #0x00
	.db #0x00
	.db #0x00
	.db #0x00
	.db #0x00
	.db #0x00
	.db #0x1C
	.db #0x18
	.db #0x00
	.db #0x04
	.db #0x00
	.db #0x00
	.db #0x00
	.db #0x00
	.db #0x00
	.db #0x00
	.db #0x00
	.db #0x00
	.db #0x00
	.db #0x00
	.db #0x00
	.db #0x00
	.db #0x00
	.db #0x00
	.db #0x00
	.db #0x00
	.db #0x00
	.db #0x00
	.db #0x00
	.db #0x00
	.db #0x00
	.db #0x00
	.db #0x0C
	.db #0x0C
	.db #0x0C
	.db #0x0C
	.db #0x00
	.db #0x00
	.db #0x00
	.db #0x00
	.db #0x00
	.db #0x00
	.db #0x00
	.db #0x00
	.db #0x98
	.db #0x10
	.db #0x14
	.db #0x14
	.db #0x10
	.db #0x98
	.db #0x00
	.db #0x00
	.db #0x00
	.db #0x00
	.db #0x00
	.db #0x00
	.db #0x10
	.db #0x18
	.db #0x14
	.db #0x14
	.db #0x18
	.db #0x14
	.db #0x1C
	.db #0x10
	.db #0x00
	.db #0x00
	.db #0x00
	.db #0x00
	.db #0x00
	.db #0x0C
	.db #0x08
	.db #0x8A
	.db #0xD6
	.db #0xB2
	.db #0x8A
	.db #0x08
	.db #0x0C
	.db #0x00
	.db #0x00
	.db #0x00
	.db #0x00
	.db #0x00
	.db #0x04
	.db #0x08
	.db #0x14
	.db #0x18
	.db #0x1C
	.db #0x14
	.db #0x08
	.db #0x04
	.db #0x00
	.db #0x00
	.db #0x00
	.db #0x00
	.db #0x00
	.db #0x00
	.db #0x0C
	.db #0x14
	.db #0x18
	.db #0x1C
	.db #0x14
	.db #0x0C
	.db #0x00
	.db #0x00
	.db #0x00
	.db #0x00
	.db #0x00
	.db #0x00
	.db #0x14
	.db #0x0C
	.db #0x14
	.db #0xB2
	.db #0xB2
	.db #0x14
	.db #0x0C
	.db #0x14
	.db #0x00
	.db #0x00
	.db #0x00
	.db #0x00
	.db #0x00
	.db #0x14
	.db #0x10
	.db #0x14
	.db #0x10
	.db #0x0C
	.db #0x14
	.db #0x10
	.db #0x14
	.db #0x00
	.db #0x00
	.db #0x00
	.db #0x00
	.db #0x00
	.db #0x04
	.db #0x9C
	.db #0x10
	.db #0x20
	.db #0x20
	.db #0x10
	.db #0x9C
	.db #0x04
	.db #0x00
	.db #0x00
	.db #0x00
	.db #0x00
	.db #0x00
	.db #0x00
	.db #0x00
	.db #0x18
	.db #0x1C
	.db #0x1C
	.db #0x18
	.db #0x00
	.db #0x00
	.db #0x00
	.db #0x00
	.db #0x00
	.db #0x00
	.db #0x00
	.db #0x00
	.db #0x00
	.db #0x00
	.db #0x00
	.db #0x00
	.db #0x00
	.db #0x00
	.db #0x00
	.db #0x00
	.db #0x00
	.db #0x00
	.db #0x00
	.db #0x00
	.db #0x00
	.db #0x00
	.db #0x00
	.db #0x0C
	.db #0x0C
	.db #0x0C
	.db #0x24
	.db #0x00
	.db #0x00
	.db #0x00
	.db #0x00
	.db #0x00
	.db #0x00
	.db #0x00
	.db #0x24
	.db #0x0C
	.db #0x0C
	.db #0x14
	.db #0x10
	.db #0x98
	.db #0x00
	.db #0x00
	.db #0x00
	.db #0x00
	.db #0x00
	.db #0x00
	.db #0x00
	.db #0x98
	.db #0x10
	.db #0x14
	.db #0x18
	.db #0x14
	.db #0x1C
	.db #0x10
	.db #0x00
	.db #0x00
	.db #0x00
	.db #0x00
	.db #0x00
	.db #0x10
	.db #0x18
	.db #0x14
	.db #0x14
	.db #0xB2
	.db #0x8A
	.db #0x08
	.db #0x0C
	.db #0x00
	.db #0x00
	.db #0x00
	.db #0x00
	.db #0x00
	.db #0x00
	.db #0x0C
	.db #0x08
	.db #0x8A
	.db #0x18
	.db #0x1C
	.db #0x14
	.db #0x08
	.db #0x00
	.db #0x00
	.db #0x00
	.db #0x00
	.db #0x00
	.db #0x00
	.db #0x04
	.db #0x08
	.db #0x14
	.db #0x18
	.db #0x1C
	.db #0x14
	.db #0x0C
	.db #0x14
	.db #0x00
	.db #0x00
	.db #0x00
	.db #0x00
	.db #0x00
	.db #0x00
	.db #0x0C
	.db #0x14
	.db #0xB2
	.db #0xB2
	.db #0x14
	.db #0x0C
	.db #0x14
	.db #0x00
	.db #0x00
	.db #0x00
	.db #0x00
	.db #0x00
	.db #0x14
	.db #0x0C
	.db #0x14
	.db #0x10
	.db #0x0C
	.db #0x14
	.db #0x10
	.db #0x04
	.db #0x00
	.db #0x00
	.db #0x00
	.db #0x00
	.db #0x00
	.db #0x00
	.db #0x14
	.db #0x10
	.db #0x10
	.db #0x20
	.db #0x20
	.db #0x10
	.db #0x9C
	.db #0x00
	.db #0x00
	.db #0x00
	.db #0x00
	.db #0x00
	.db #0x00
	.db #0x04
	.db #0x9C
	.db #0x18
	.db #0x1C
	.db #0x1C
	.db #0x18
	.db #0x00
	.db #0x00
	.db #0x00
	.db #0x00
	.db #0x00
	.db #0x00
	.db #0x00
	.db #0x00
	.db #0x00
	.db #0x00
	.db #0x00
	.db #0x00
	.db #0x00
	.db #0x00
	.db #0x00
	.db #0x00
	.db #0x00
	.db #0x00
	.db #0x00
	.db #0x00
	.db #0x00
	.db #0x00
	.db #0x00
	.db #0x00
	.db #0x00
	.db #0x00
	.db #0x00
	.db #0x00
	.db #0x00
	.db #0x00
	.db #0x00
	.db #0x00
	.db #0x24
	.db #0xB8
	.db #0x10
	.db #0x0C
	.db #0x00
	.db #0x00
	.db #0x00
	.db #0x00
	.db #0x00
	.db #0x00
	.db #0x00
	.db #0x00
	.db #0x00
	.db #0x0C
	.db #0x14
	.db #0x10
	.db #0x18
	.db #0x8A
	.db #0x0C
	.db #0x00
	.db #0x00
	.db #0x00
	.db #0x00
	.db #0x00
	.db #0x00
	.db #0x0C
	.db #0x14
	.db #0x14
	.db #0x10
	.db #0xB2
	.db #0x14
	.db #0x10
	.db #0x0C
	.db #0x00
	.db #0x00
	.db #0x00
	.db #0x00
	.db #0x24
	.db #0xBC
	.db #0x14
	.db #0x18
	.db #0x14
	.db #0x8A
	.db #0x14
	.db #0x14
	.db #0xB2
	.db #0x08
	.db #0x00
	.db #0x00
	.db #0x00
	.db #0x00
	.db #0x24
	.db #0x24
	.db #0x1C
	.db #0x14
	.db #0x10
	.db #0x10
	.db #0xB2
	.db #0x14
	.db #0x20
	.db #0x18
	.db #0x00
	.db #0x00
	.db #0x00
	.db #0x04
	.db #0x04
	.db #0x0C
	.db #0x14
	.db #0x14
	.db #0x10
	.db #0x1C
	.db #0x20
	.db #0x0C
	.db #0x18
	.db #0x00
	.db #0x00
	.db #0x00
	.db #0x00
	.db #0x00
	.db #0x00
	.db #0x0C
	.db #0x10
	.db #0x14
	.db #0x10
	.db #0x0C
	.db #0x18
	.db #0x00
	.db #0x00
	.db #0x00
	.db #0x00
	.db #0x00
	.db #0x00
	.db #0x00
	.db #0x00
	.db #0x04
	.db #0x04
	.db #0x0C
	.db #0x18
	.db #0x9C
	.db #0x00
	.db #0x00
	.db #0x00
	.db #0x00
	.db #0x00
	.db #0x00
	.db #0x00
	.db #0x00
	.db #0x00
	.db #0x04
	.db #0x04
	.db #0x00
	.db #0x00
	.db #0x00
	.db #0x00
	.db #0x00
	.db #0x00
	.db #0x00
	.db #0x00
	.db #0x00
	.db #0x00
	.db #0x00
	.db #0x00
	.db #0x00
	.db #0x00
	.db #0x00
	.db #0x00
	.db #0x00
	.db #0x00
	.db #0x00
	.db #0x00
	.db #0x00
	.db #0x00
	.db #0x00
	.db #0x00
	.db #0x00
	.db #0x00
	.db #0x00
	.db #0x00
	.db #0x00
	.db #0x00
	.db #0x00
	.db #0x00
	.db #0x00
	.db #0x98
	.db #0x0C
	.db #0x00
	.db #0x00
	.db #0x00
	.db #0x00
	.db #0x00
	.db #0x00
	.db #0x00
	.db #0x00
	.db #0x00
	.db #0x00
	.db #0x04
	.db #0x14
	.db #0x10
	.db #0x10
	.db #0x65
	.db #0x10
	.db #0x0C
	.db #0x00
	.db #0x00
	.db #0x00
	.db #0x00
	.db #0x00
	.db #0x10
	.db #0x1C
	.db #0x18
	.db #0x14
	.db #0xAE
	.db #0x1C
	.db #0x1C
	.db #0x65
	.db #0x0C
	.db #0x08
	.db #0x14
	.db #0x00
	.db #0x00
	.db #0x14
	.db #0x14
	.db #0x14
	.db #0x14
	.db #0xD2
	.db #0x1C
	.db #0x1C
	.db #0xAE
	.db #0x14
	.db #0x20
	.db #0x14
	.db #0x00
	.db #0x00
	.db #0x18
	.db #0xFC
	.db #0x18
	.db #0x10
	.db #0x14
	.db #0x1C
	.db #0x14
	.db #0x14
	.db #0x1C
	.db #0x20
	.db #0x1C
	.db #0x00
	.db #0x00
	.db #0x04
	.db #0x18
	.db #0x24
	.db #0x1C
	.db #0x14
	.db #0x14
	.db #0x14
	.db #0x14
	.db #0x14
	.db #0x14
	.db #0x0C
	.db #0x00
	.db #0x00
	.db #0x00
	.db #0x04
	.db #0x04
	.db #0x0C
	.db #0x10
	.db #0x0C
	.db #0x24
	.db #0x1C
	.db #0x18
	.db #0x9C
	.db #0x00
	.db #0x00
	.db #0x00
	.db #0x00
	.db #0x00
	.db #0x00
	.db #0x00
	.db #0x00
	.db #0x00
	.db #0x04
	.db #0x24
	.db #0x14
	.db #0x18
	.db #0x00
	.db #0x00
	.db #0x00
	.db #0x00
	.db #0x00
	.db #0x00
	.db #0x00
	.db #0x00
	.db #0x00
	.db #0x00
	.db #0x04
	.db #0x00
	.db #0x00
	.db #0x00
	.db #0x00
	.db #0x00
	.db #0x00
	.db #0x00
	.db #0x00
	.db #0x00
	.db #0x00
	.db #0x00
	.db #0x00
	.db #0x00
	.db #0x00
	.db #0x00
	.db #0x00
	.db #0x00
	.db #0x00
	.db #0x00
	.db #0x00
	.db #0x00
	.db #0x00
	.db #0x00
	.db #0x00
	.db #0x00
	.db #0x00
	.db #0x00
	.db #0x00
	.db #0x00
	.db #0x00
	.db #0x00
	.db #0x00
	.db #0x00
	.db #0x00
	.db #0x00
	.db #0x00
	.db #0x00
	.db #0x00
	.db #0x00
	.db #0x00
	.db #0x00
	.db #0x00
	.db #0x00
	.db #0x00
	.db #0x00
	.db #0xB8
	.db #0x10
	.db #0x10
	.db #0x65
	.db #0x14
	.db #0x14
	.db #0x65
	.db #0x0C
	.db #0x08
	.db #0x14
	.db #0x00
	.db #0x00
	.db #0x04
	.db #0x14
	.db #0x14
	.db #0x14
	.db #0xAE
	.db #0x1C
	.db #0x1C
	.db #0xAE
	.db #0x14
	.db #0x20
	.db #0x14
	.db #0x00
	.db #0x00
	.db #0x10
	.db #0x1C
	.db #0x18
	.db #0x14
	.db #0xD2
	.db #0x1C
	.db #0x1C
	.db #0x14
	.db #0x1C
	.db #0x20
	.db #0x1C
	.db #0x00
	.db #0x00
	.db #0x14
	.db #0x14
	.db #0x14
	.db #0x10
	.db #0x14
	.db #0x1C
	.db #0x14
	.db #0x14
	.db #0x14
	.db #0x14
	.db #0x0C
	.db #0x00
	.db #0x00
	.db #0x18
	.db #0xFC
	.db #0x18
	.db #0x1C
	.db #0x14
	.db #0x14
	.db #0x14
	.db #0x14
	.db #0x1C
	.db #0x18
	.db #0x9C
	.db #0x00
	.db #0x00
	.db #0x04
	.db #0x18
	.db #0x24
	.db #0x24
	.db #0x0C
	.db #0x10
	.db #0x0C
	.db #0x24
	.db #0x24
	.db #0x14
	.db #0x18
	.db #0x00
	.db #0x00
	.db #0x00
	.db #0x00
	.db #0x04
	.db #0x04
	.db #0x00
	.db #0x00
	.db #0x00
	.db #0x04
	.db #0x04
	.db #0x00
	.db #0x00
	.db #0x00
	.db #0x00
	.db #0x00
	.db #0x00
	.db #0x00
	.db #0x00
	.db #0x00
	.db #0x00
	.db #0x00
	.db #0x00
	.db #0x00
	.db #0x00
	.db #0x00
	.db #0x00
	.db #0x00
	.db #0x00
	.db #0x00
	.db #0x00
	.db #0x00
	.db #0x00
	.db #0x00
	.db #0x00
	.db #0x00
	.db #0x00
	.db #0x00
	.db #0x00
	.db #0x00
	.db #0x00
	.db #0x00
	.db #0x00
	.db #0x00
	.db #0x00
	.db #0x00
	.db #0x00
	.db #0x00
	.db #0x00
	.db #0x00
	.db #0x00
	.db #0x00
	.db #0x00
	.db #0x00
	.db #0x00
	.db #0x00
	.db #0x00
	.db #0x00
	.db #0x00
	.db #0x00
	.db #0x08
	.db #0x08
	.db #0x14
	.db #0x5C
	.db #0x00
	.db #0x00
	.db #0x00
	.db #0x00
	.db #0x00
	.db #0x00
	.db #0x65
	.db #0x14
	.db #0x14
	.db #0x65
	.db #0x0C
	.db #0x20
	.db #0x14
	.db #0x00
	.db #0x00
	.db #0x00
	.db #0xB8
	.db #0x10
	.db #0x10
	.db #0xAE
	.db #0x1C
	.db #0x1C
	.db #0xAE
	.db #0x14
	.db #0x20
	.db #0x1C
	.db #0x0C
	.db #0x00
	.db #0x04
	.db #0x14
	.db #0x14
	.db #0x14
	.db #0xD2
	.db #0x1C
	.db #0x1C
	.db #0x14
	.db #0x1C
	.db #0x14
	.db #0x0C
	.db #0x0C
	.db #0x00
	.db #0x00
	.db #0x10
	.db #0x1C
	.db #0x18
	.db #0x10
	.db #0x14
	.db #0x1C
	.db #0x14
	.db #0x14
	.db #0x1C
	.db #0x18
	.db #0x9C
	.db #0x00
	.db #0x00
	.db #0x14
	.db #0x14
	.db #0x14
	.db #0x1C
	.db #0x14
	.db #0x14
	.db #0x14
	.db #0x04
	.db #0x24
	.db #0x14
	.db #0x18
	.db #0x00
	.db #0x00
	.db #0x18
	.db #0xFC
	.db #0x18
	.db #0x0C
	.db #0x0C
	.db #0x10
	.db #0x0C
	.db #0x04
	.db #0x04
	.db #0x00
	.db #0x00
	.db #0x00
	.db #0x00
	.db #0x04
	.db #0x18
	.db #0x24
	.db #0x04
	.db #0x0C
	.db #0x00
	.db #0x00
	.db #0x00
	.db #0x00
	.db #0x00
	.db #0x00
	.db #0x00
	.db #0x00
	.db #0x00
	.db #0x00
	.db #0x04
	.db #0x04
	.db #0x00
	.db #0x00
	.db #0x00
	.db #0x00
	.db #0x00
	.db #0x00
	.db #0x00
	.db #0x00
	.db #0x00
	.db #0x00
	.db #0x00
	.db #0x00
	.db #0x00
	.db #0x00
	.db #0x00
	.db #0x00
	.db #0x00
	.db #0x00
	.db #0x00
	.db #0x00
	.db #0x00
	.db #0x00
	.db #0x00
	.db #0x00
	.db #0x00
	.db #0x00
	.db #0x00
	.db #0x00
	.db #0x10
	.db #0x18
	.db #0x00
	.db #0x00
	.db #0x00
	.db #0x00
	.db #0x00
	.db #0x00
	.db #0x00
	.db #0x00
	.db #0x00
	.db #0x00
	.db #0x0C
	.db #0x14
	.db #0x0C
	.db #0x1C
	.db #0x00
	.db #0x00
	.db #0x00
	.db #0x00
	.db #0x00
	.db #0x00
	.db #0x00
	.db #0x0C
	.db #0x0C
	.db #0x14
	.db #0x20
	.db #0x0C
	.db #0x0C
	.db #0x18
	.db #0x00
	.db #0x00
	.db #0x00
	.db #0x00
	.db #0x00
	.db #0x0C
	.db #0x0C
	.db #0x14
	.db #0x18
	.db #0xB2
	.db #0x20
	.db #0x10
	.db #0x10
	.db #0x10
	.db #0x00
	.db #0x00
	.db #0x00
	.db #0x14
	.db #0x14
	.db #0x8A
	.db #0x18
	.db #0x18
	.db #0x1C
	.db #0x14
	.db #0x0C
	.db #0x14
	.db #0x10
	.db #0x00
	.db #0x00
	.db #0x00
	.db #0x18
	.db #0x14
	.db #0x18
	.db #0xD6
	.db #0x1C
	.db #0x14
	.db #0x0C
	.db #0x10
	.db #0x24
	.db #0x00
	.db #0x00
	.db #0x00
	.db #0xFC
	.db #0x10
	.db #0x14
	.db #0x18
	.db #0x1C
	.db #0x8A
	.db #0x0C
	.db #0x0C
	.db #0x24
	.db #0x04
	.db #0x00
	.db #0x00
	.db #0x00
	.db #0x04
	.db #0x10
	.db #0x14
	.db #0x18
	.db #0x14
	.db #0x1C
	.db #0x14
	.db #0x00
	.db #0x00
	.db #0x00
	.db #0x00
	.db #0x00
	.db #0x00
	.db #0x00
	.db #0x10
	.db #0x10
	.db #0x10
	.db #0x14
	.db #0x1C
	.db #0x14
	.db #0x00
	.db #0x00
	.db #0x00
	.db #0x00
	.db #0x00
	.db #0x00
	.db #0x00
	.db #0x00
	.db #0x0C
	.db #0x04
	.db #0xFC
	.db #0x24
	.db #0x00
	.db #0x00
	.db #0x00
	.db #0x00
	.db #0x00
	.db #0x00
	.db #0x00
	.db #0x00
	.db #0x00
	.db #0x00
	.db #0x00
	.db #0x04
	.db #0x04
	.db #0x00
	.db #0x00
	.db #0x00
	.db #0x00
	.db #0x00
	.db #0x00
	.db #0x00
	.db #0x00
	.db #0x00
	.db #0x00
	.db #0x10
	.db #0x18
	.db #0x1C
	.db #0x1C
	.db #0x18
	.db #0x00
	.db #0x00
	.db #0x00
	.db #0x00
	.db #0x00
	.db #0x00
	.db #0x00
	.db #0x14
	.db #0x0C
	.db #0x14
	.db #0x0C
	.db #0x0C
	.db #0x14
	.db #0x00
	.db #0x00
	.db #0x00
	.db #0x00
	.db #0x00
	.db #0x00
	.db #0x00
	.db #0x14
	.db #0x10
	.db #0x10
	.db #0x20
	.db #0x20
	.db #0x10
	.db #0x10
	.db #0x00
	.db #0x00
	.db #0x00
	.db #0x00
	.db #0x00
	.db #0x00
	.db #0x04
	.db #0x0C
	.db #0x14
	.db #0xB2
	.db #0xB2
	.db #0x14
	.db #0x0C
	.db #0x14
	.db #0x00
	.db #0x00
	.db #0x00
	.db #0x00
	.db #0x00
	.db #0x0C
	.db #0x14
	.db #0x18
	.db #0x1C
	.db #0x14
	.db #0x0C
	.db #0x14
	.db #0x04
	.db #0x00
	.db #0x00
	.db #0x00
	.db #0x00
	.db #0x0C
	.db #0x14
	.db #0x8A
	.db #0x18
	.db #0x1C
	.db #0x14
	.db #0x0C
	.db #0x04
	.db #0x00
	.db #0x00
	.db #0x00
	.db #0x00
	.db #0x00
	.db #0x14
	.db #0x18
	.db #0x14
	.db #0xD6
	.db #0xB2
	.db #0x8A
	.db #0x14
	.db #0x00
	.db #0x00
	.db #0x00
	.db #0x00
	.db #0x00
	.db #0x00
	.db #0x04
	.db #0x18
	.db #0x14
	.db #0x18
	.db #0x1C
	.db #0x14
	.db #0x1C
	.db #0x0C
	.db #0x00
	.db #0x00
	.db #0x00
	.db #0x00
	.db #0x00
	.db #0xFC
	.db #0x10
	.db #0x14
	.db #0x18
	.db #0x14
	.db #0x1C
	.db #0x04
	.db #0x00
	.db #0x00
	.db #0x00
	.db #0x00
	.db #0x00
	.db #0x00
	.db #0x04
	.db #0x0C
	.db #0x10
	.db #0x14
	.db #0x10
	.db #0xFC
	.db #0x04
	.db #0x00
	.db #0x00
	.db #0x00
	.db #0x00
	.db #0x00
	.db #0x00
	.db #0x00
	.db #0x00
	.db #0x00
	.db #0x10
	.db #0x0C
	.db #0x04
	.db #0x00
	.db #0x00
	.db #0x00
	.db #0x00
	.db #0x00
	.db #0x00
	.db #0x00
	.db #0x00
	.db #0x00
	.db #0x18
	.db #0x1C
	.db #0x1C
	.db #0x18
	.db #0x00
	.db #0x00
	.db #0x00
	.db #0x00
	.db #0x00
	.db #0x00
	.db #0x00
	.db #0x00
	.db #0x10
	.db #0x14
	.db #0x0C
	.db #0x0C
	.db #0x14
	.db #0x10
	.db #0x00
	.db #0x00
	.db #0x00
	.db #0x00
	.db #0x00
	.db #0x00
	.db #0x14
	.db #0x0C
	.db #0x10
	.db #0x20
	.db #0x20
	.db #0x10
	.db #0x0C
	.db #0x14
	.db #0x00
	.db #0x00
	.db #0x00
	.db #0x00
	.db #0x00
	.db #0x14
	.db #0x10
	.db #0x14
	.db #0xB2
	.db #0xB2
	.db #0x14
	.db #0x10
	.db #0x14
	.db #0x00
	.db #0x00
	.db #0x00
	.db #0x00
	.db #0x00
	.db #0x04
	.db #0x0C
	.db #0x14
	.db #0x18
	.db #0x1C
	.db #0x14
	.db #0x0C
	.db #0x04
	.db #0x00
	.db #0x00
	.db #0x00
	.db #0x00
	.db #0x00
	.db #0x00
	.db #0x0C
	.db #0x14
	.db #0x18
	.db #0x1C
	.db #0x14
	.db #0x0C
	.db #0x00
	.db #0x00
	.db #0x00
	.db #0x00
	.db #0x00
	.db #0x00
	.db #0x0C
	.db #0x14
	.db #0x8A
	.db #0xD6
	.db #0xB2
	.db #0x8A
	.db #0x14
	.db #0x0C
	.db #0x00
	.db #0x00
	.db #0x00
	.db #0x00
	.db #0x00
	.db #0x14
	.db #0x18
	.db #0x14
	.db #0x18
	.db #0x1C
	.db #0x14
	.db #0x1C
	.db #0x14
	.db #0x00
	.db #0x00
	.db #0x00
	.db #0x00
	.db #0x00
	.db #0x04
	.db #0x18
	.db #0x14
	.db #0x14
	.db #0x18
	.db #0x14
	.db #0x1C
	.db #0x04
	.db #0x00
	.db #0x00
	.db #0x00
	.db #0x00
	.db #0x00
	.db #0x00
	.db #0xFC
	.db #0x10
	.db #0x14
	.db #0x14
	.db #0x10
	.db #0xFC
	.db #0x00
	.db #0x00
	.db #0x00
	.db #0x00
	.db #0x00
	.db #0x00
	.db #0x00
	.db #0x04
	.db #0x0C
	.db #0x10
	.db #0x10
	.db #0x0C
	.db #0x04
	.db #0x00
	.db #0x00
	.db #0x00
	.db #0x00
	.db #0x00
	.db #0x00
	.db #0x00
	.db #0x00
	.db #0x18
	.db #0x1C
	.db #0x1C
	.db #0x18
	.db #0x10
	.db #0x00
	.db #0x00
	.db #0x00
	.db #0x00
	.db #0x00
	.db #0x00
	.db #0x00
	.db #0x00
	.db #0x14
	.db #0x0C
	.db #0x0C
	.db #0x14
	.db #0x0C
	.db #0x14
	.db #0x00
	.db #0x00
	.db #0x00
	.db #0x00
	.db #0x00
	.db #0x00
	.db #0x10
	.db #0x10
	.db #0x20
	.db #0x20
	.db #0x10
	.db #0x10
	.db #0x14
	.db #0x00
	.db #0x00
	.db #0x00
	.db #0x00
	.db #0x00
	.db #0x14
	.db #0x0C
	.db #0x14
	.db #0xB2
	.db #0xB2
	.db #0x14
	.db #0x0C
	.db #0x04
	.db #0x00
	.db #0x00
	.db #0x00
	.db #0x00
	.db #0x00
	.db #0x04
	.db #0x14
	.db #0x0C
	.db #0x14
	.db #0x1C
	.db #0x18
	.db #0x14
	.db #0x0C
	.db #0x00
	.db #0x00
	.db #0x00
	.db #0x00
	.db #0x00
	.db #0x00
	.db #0x04
	.db #0x0C
	.db #0x14
	.db #0x1C
	.db #0x18
	.db #0x8A
	.db #0x14
	.db #0x0C
	.db #0x00
	.db #0x00
	.db #0x00
	.db #0x00
	.db #0x00
	.db #0x00
	.db #0x14
	.db #0x8A
	.db #0xB2
	.db #0xD6
	.db #0x14
	.db #0x18
	.db #0x14
	.db #0x00
	.db #0x00
	.db #0x00
	.db #0x00
	.db #0x00
	.db #0x0C
	.db #0x1C
	.db #0x14
	.db #0x1C
	.db #0x18
	.db #0x14
	.db #0x18
	.db #0x04
	.db #0x00
	.db #0x00
	.db #0x00
	.db #0x00
	.db #0x00
	.db #0x00
	.db #0x24
	.db #0x1C
	.db #0x14
	.db #0x18
	.db #0x14
	.db #0x10
	.db #0xFC
	.db #0x00
	.db #0x00
	.db #0x00
	.db #0x00
	.db #0x00
	.db #0x00
	.db #0x04
	.db #0xFC
	.db #0x10
	.db #0x14
	.db #0x10
	.db #0x0C
	.db #0x04
	.db #0x00
	.db #0x00
	.db #0x00
	.db #0x00
	.db #0x00
	.db #0x00
	.db #0x00
	.db #0x04
	.db #0x0C
	.db #0x10
	.db #0x00
	.db #0x00
	.db #0x00
	.db #0x00
	.db #0x00
	.db #0x00
	.db #0x00
	.db #0x00
	.db #0x00
	.db #0x18
	.db #0x10
	.db #0x00
	.db #0x00
	.db #0x00
	.db #0x00
	.db #0x00
	.db #0x00
	.db #0x00
	.db #0x00
	.db #0x00
	.db #0x00
	.db #0x1C
	.db #0x0C
	.db #0x14
	.db #0x0C
	.db #0x00
	.db #0x00
	.db #0x00
	.db #0x00
	.db #0x00
	.db #0x00
	.db #0x00
	.db #0x00
	.db #0x18
	.db #0x0C
	.db #0x0C
	.db #0x20
	.db #0x14
	.db #0x0C
	.db #0x0C
	.db #0x00
	.db #0x00
	.db #0x00
	.db #0x00
	.db #0x00
	.db #0x10
	.db #0x10
	.db #0x10
	.db #0x20
	.db #0xB2
	.db #0x18
	.db #0x14
	.db #0x0C
	.db #0x0C
	.db #0x00
	.db #0x00
	.db #0x00
	.db #0x00
	.db #0x10
	.db #0x14
	.db #0x0C
	.db #0x14
	.db #0x1C
	.db #0x18
	.db #0x18
	.db #0x8A
	.db #0x14
	.db #0x14
	.db #0x00
	.db #0x00
	.db #0x00
	.db #0x00
	.db #0x24
	.db #0x10
	.db #0x0C
	.db #0x14
	.db #0x1C
	.db #0xD6
	.db #0x18
	.db #0x14
	.db #0x18
	.db #0x00
	.db #0x00
	.db #0x00
	.db #0x00
	.db #0x04
	.db #0x04
	.db #0x0C
	.db #0x0C
	.db #0x8A
	.db #0x1C
	.db #0x18
	.db #0x14
	.db #0x10
	.db #0xFC
	.db #0x00
	.db #0x00
	.db #0x00
	.db #0x00
	.db #0x00
	.db #0x00
	.db #0x14
	.db #0x1C
	.db #0x14
	.db #0x18
	.db #0x14
	.db #0x10
	.db #0x04
	.db #0x00
	.db #0x00
	.db #0x00
	.db #0x00
	.db #0x00
	.db #0x00
	.db #0x14
	.db #0x1C
	.db #0x14
	.db #0x10
	.db #0x10
	.db #0x10
	.db #0x00
	.db #0x00
	.db #0x00
	.db #0x00
	.db #0x00
	.db #0x00
	.db #0x00
	.db #0x00
	.db #0x24
	.db #0xFC
	.db #0x04
	.db #0x0C
	.db #0x00
	.db #0x00
	.db #0x00
	.db #0x00
	.db #0x00
	.db #0x00
	.db #0x00
	.db #0x00
	.db #0x00
	.db #0x04
	.db #0x04
	.db #0x00
	.db #0x00
	.db #0x00
	.db #0x00
	.db #0x00
	.db #0x00
	.db #0x00
	.db #0x00
	.db #0x00
	.db #0x00
	.db #0x00
	.db #0x00
	.db #0x00
	.db #0x00
	.db #0x00
	.db #0x00
	.db #0x00
	.db #0x00
	.db #0x00
	.db #0x00
	.db #0x14
	.db #0x08
	.db #0x0C
	.db #0x00
	.db #0x00
	.db #0x00
	.db #0x00
	.db #0x00
	.db #0x00
	.db #0x00
	.db #0x00
	.db #0x00
	.db #0x08
	.db #0x14
	.db #0x20
	.db #0x14
	.db #0x65
	.db #0x14
	.db #0x14
	.db #0x00
	.db #0x00
	.db #0x00
	.db #0x00
	.db #0x00
	.db #0x00
	.db #0x0C
	.db #0x1C
	.db #0x20
	.db #0x1C
	.db #0xAE
	.db #0x1C
	.db #0x1C
	.db #0x65
	.db #0x10
	.db #0x10
	.db #0xB8
	.db #0x00
	.db #0x00
	.db #0x0C
	.db #0x14
	.db #0x14
	.db #0x14
	.db #0x1C
	.db #0x1C
	.db #0xD2
	.db #0x14
	.db #0x14
	.db #0x14
	.db #0x04
	.db #0x00
	.db #0x00
	.db #0x9C
	.db #0x18
	.db #0x1C
	.db #0x14
	.db #0x14
	.db #0x1C
	.db #0x14
	.db #0x14
	.db #0x18
	.db #0x1C
	.db #0x10
	.db #0x00
	.db #0x00
	.db #0x18
	.db #0x14
	.db #0x24
	.db #0x24
	.db #0x14
	.db #0x14
	.db #0x14
	.db #0x10
	.db #0x14
	.db #0x14
	.db #0x14
	.db #0x00
	.db #0x00
	.db #0x00
	.db #0x00
	.db #0x04
	.db #0x04
	.db #0x0C
	.db #0x10
	.db #0x0C
	.db #0x1C
	.db #0x18
	.db #0xFC
	.db #0x18
	.db #0x00
	.db #0x00
	.db #0x00
	.db #0x00
	.db #0x00
	.db #0x00
	.db #0x00
	.db #0x00
	.db #0x04
	.db #0x24
	.db #0x18
	.db #0x04
	.db #0x00
	.db #0x00
	.db #0x00
	.db #0x00
	.db #0x00
	.db #0x00
	.db #0x00
	.db #0x00
	.db #0x00
	.db #0x04
	.db #0x04
	.db #0x00
	.db #0x00
	.db #0x00
	.db #0x00
	.db #0x00
	.db #0x00
	.db #0x00
	.db #0x00
	.db #0x00
	.db #0x00
	.db #0x00
	.db #0x00
	.db #0x00
	.db #0x00
	.db #0x00
	.db #0x00
	.db #0x00
_car4:
	.db #0x00
	.db #0x00
	.db #0x00
	.db #0x00
	.db #0x00
	.db #0x00
	.db #0x00
	.db #0x00
	.db #0x00
	.db #0x00
	.db #0x00
	.db #0x00
	.db #0x00
	.db #0x00
	.db #0x04
	.db #0x04
	.db #0x04
	.db #0x64
	.db #0x64
	.db #0x89
	.db #0x89
	.db #0x64
	.db #0x04
	.db #0x04
	.db #0x00
	.db #0x00
	.db #0x00
	.db #0x04
	.db #0x04
	.db #0x8D
	.db #0xD6
	.db #0xB1
	.db #0x21
	.db #0x21
	.db #0x8D
	.db #0x64
	.db #0x04
	.db #0x00
	.db #0x00
	.db #0x00
	.db #0x20
	.db #0x1C
	.db #0x8D
	.db #0xD6
	.db #0xB1
	.db #0x42
	.db #0x42
	.db #0x62
	.db #0xB1
	.db #0x44
	.db #0x00
	.db #0x00
	.db #0x00
	.db #0x40
	.db #0x64
	.db #0x44
	.db #0x64
	.db #0x44
	.db #0x21
	.db #0x21
	.db #0x42
	.db #0x8D
	.db #0xDC
	.db #0x00
	.db #0x00
	.db #0x00
	.db #0x40
	.db #0x44
	.db #0x44
	.db #0x64
	.db #0x21
	.db #0x21
	.db #0x21
	.db #0x89
	.db #0x89
	.db #0xBC
	.db #0x00
	.db #0x00
	.db #0x00
	.db #0x20
	.db #0x14
	.db #0x89
	.db #0x8D
	.db #0x8D
	.db #0x8D
	.db #0x89
	.db #0x89
	.db #0x64
	.db #0x44
	.db #0x00
	.db #0x00
	.db #0x00
	.db #0x04
	.db #0x04
	.db #0x64
	.db #0x89
	.db #0xB1
	.db #0x8D
	.db #0x89
	.db #0x64
	.db #0x44
	.db #0x04
	.db #0x00
	.db #0x00
	.db #0x00
	.db #0x24
	.db #0x04
	.db #0x04
	.db #0x44
	.db #0x64
	.db #0x64
	.db #0x44
	.db #0x04
	.db #0x04
	.db #0x24
	.db #0x00
	.db #0x00
	.db #0x00
	.db #0x04
	.db #0x04
	.db #0x04
	.db #0x00
	.db #0x00
	.db #0x00
	.db #0x00
	.db #0x04
	.db #0x04
	.db #0x04
	.db #0x00
	.db #0x00
	.db #0x00
	.db #0x00
	.db #0x00
	.db #0x00
	.db #0x00
	.db #0x00
	.db #0x00
	.db #0x00
	.db #0x00
	.db #0x00
	.db #0x00
	.db #0x00
	.db #0x00
	.db #0x00
	.db #0x00
	.db #0x00
	.db #0x00
	.db #0x00
	.db #0x00
	.db #0x00
	.db #0x04
	.db #0x04
	.db #0x04
	.db #0x00
	.db #0x00
	.db #0x00
	.db #0x00
	.db #0x00
	.db #0x00
	.db #0x00
	.db #0x00
	.db #0x40
	.db #0x44
	.db #0x89
	.db #0x64
	.db #0x44
	.db #0x00
	.db #0x00
	.db #0x00
	.db #0x00
	.db #0x00
	.db #0x00
	.db #0x40
	.db #0x64
	.db #0x64
	.db #0x89
	.db #0x21
	.db #0x8D
	.db #0x9C
	.db #0x44
	.db #0x00
	.db #0x00
	.db #0x00
	.db #0x04
	.db #0x04
	.db #0x64
	.db #0xB1
	.db #0x21
	.db #0x21
	.db #0x42
	.db #0x62
	.db #0xB1
	.db #0xDC
	.db #0x44
	.db #0x00
	.db #0x00
	.db #0x04
	.db #0x04
	.db #0x8D
	.db #0xD6
	.db #0xB1
	.db #0x42
	.db #0x21
	.db #0x42
	.db #0x8D
	.db #0x8D
	.db #0x64
	.db #0x00
	.db #0x00
	.db #0x00
	.db #0x1C
	.db #0x8D
	.db #0xB1
	.db #0x64
	.db #0x44
	.db #0x21
	.db #0x21
	.db #0x89
	.db #0x89
	.db #0x44
	.db #0x00
	.db #0x00
	.db #0x00
	.db #0x40
	.db #0x64
	.db #0x44
	.db #0x64
	.db #0x21
	.db #0x8D
	.db #0x89
	.db #0x89
	.db #0x64
	.db #0x04
	.db #0x00
	.db #0x00
	.db #0x00
	.db #0x40
	.db #0x44
	.db #0x89
	.db #0x8D
	.db #0x8D
	.db #0x8D
	.db #0x89
	.db #0x04
	.db #0x04
	.db #0x24
	.db #0x00
	.db #0x00
	.db #0x00
	.db #0x20
	.db #0x14
	.db #0x64
	.db #0x89
	.db #0xB1
	.db #0x64
	.db #0x44
	.db #0x04
	.db #0x04
	.db #0x04
	.db #0x00
	.db #0x00
	.db #0x00
	.db #0x00
	.db #0x04
	.db #0x04
	.db #0x04
	.db #0x44
	.db #0x00
	.db #0x00
	.db #0x00
	.db #0x00
	.db #0x00
	.db #0x00
	.db #0x00
	.db #0x00
	.db #0x00
	.db #0x24
	.db #0x04
	.db #0x04
	.db #0x00
	.db #0x00
	.db #0x00
	.db #0x00
	.db #0x00
	.db #0x00
	.db #0x00
	.db #0x00
	.db #0x00
	.db #0x00
	.db #0x00
	.db #0x00
	.db #0x00
	.db #0x04
	.db #0x04
	.db #0x04
	.db #0x00
	.db #0x00
	.db #0x00
	.db #0x00
	.db #0x00
	.db #0x00
	.db #0x00
	.db #0x00
	.db #0x00
	.db #0x04
	.db #0x44
	.db #0x64
	.db #0x44
	.db #0xDC
	.db #0x00
	.db #0x00
	.db #0x00
	.db #0x00
	.db #0x00
	.db #0x00
	.db #0x00
	.db #0x64
	.db #0x89
	.db #0xB1
	.db #0x8D
	.db #0x8D
	.db #0x89
	.db #0xBC
	.db #0x00
	.db #0x00
	.db #0x00
	.db #0x00
	.db #0x24
	.db #0x44
	.db #0x64
	.db #0x89
	.db #0x21
	.db #0x62
	.db #0x89
	.db #0x89
	.db #0x44
	.db #0x44
	.db #0x00
	.db #0x00
	.db #0x24
	.db #0x04
	.db #0x64
	.db #0x89
	.db #0x8D
	.db #0xD6
	.db #0x42
	.db #0x62
	.db #0x89
	.db #0x64
	.db #0x24
	.db #0x24
	.db #0x00
	.db #0x04
	.db #0x04
	.db #0x64
	.db #0x8D
	.db #0xD6
	.db #0xD6
	.db #0x21
	.db #0x21
	.db #0x89
	.db #0x04
	.db #0x04
	.db #0x04
	.db #0x00
	.db #0x00
	.db #0x04
	.db #0x1C
	.db #0x44
	.db #0x8D
	.db #0x44
	.db #0x44
	.db #0x21
	.db #0x89
	.db #0x04
	.db #0x04
	.db #0x04
	.db #0x00
	.db #0x00
	.db #0x00
	.db #0x40
	.db #0x64
	.db #0x44
	.db #0x44
	.db #0x64
	.db #0x89
	.db #0x64
	.db #0x00
	.db #0x04
	.db #0x00
	.db #0x00
	.db #0x00
	.db #0x00
	.db #0x00
	.db #0x40
	.db #0x44
	.db #0x14
	.db #0x04
	.db #0x04
	.db #0x00
	.db #0x00
	.db #0x00
	.db #0x00
	.db #0x00
	.db #0x00
	.db #0x00
	.db #0x00
	.db #0x00
	.db #0x20
	.db #0x24
	.db #0x04
	.db #0x04
	.db #0x00
	.db #0x00
	.db #0x00
	.db #0x00
	.db #0x00
	.db #0x00
	.db #0x00
	.db #0x00
	.db #0x00
	.db #0x00
	.db #0x04
	.db #0x04
	.db #0x04
	.db #0x00
	.db #0x00
	.db #0x00
	.db #0x00
	.db #0x00
	.db #0x00
	.db #0x00
	.db #0x24
	.db #0x04
	.db #0x04
	.db #0x44
	.db #0x00
	.db #0x00
	.db #0x00
	.db #0x00
	.db #0x00
	.db #0x00
	.db #0x00
	.db #0x00
	.db #0x00
	.db #0x04
	.db #0x44
	.db #0x64
	.db #0x89
	.db #0xDC
	.db #0xBC
	.db #0x44
	.db #0x24
	.db #0x00
	.db #0x00
	.db #0x00
	.db #0x00
	.db #0x00
	.db #0x44
	.db #0x89
	.db #0xB1
	.db #0x8D
	.db #0x89
	.db #0x64
	.db #0x44
	.db #0x04
	.db #0x04
	.db #0x00
	.db #0x00
	.db #0x00
	.db #0x00
	.db #0x89
	.db #0x8D
	.db #0x21
	.db #0x62
	.db #0x42
	.db #0x89
	.db #0x89
	.db #0x04
	.db #0x04
	.db #0x04
	.db #0x00
	.db #0x00
	.db #0x44
	.db #0x64
	.db #0x64
	.db #0x89
	.db #0xB1
	.db #0x21
	.db #0x21
	.db #0x89
	.db #0x64
	.db #0x04
	.db #0x00
	.db #0x00
	.db #0x00
	.db #0x40
	.db #0x44
	.db #0x89
	.db #0x89
	.db #0xB1
	.db #0x8D
	.db #0x21
	.db #0xB1
	.db #0x64
	.db #0x00
	.db #0x00
	.db #0x00
	.db #0x00
	.db #0x24
	.db #0x44
	.db #0x64
	.db #0x64
	.db #0xD6
	.db #0xB2
	.db #0x64
	.db #0x89
	.db #0x44
	.db #0x00
	.db #0x00
	.db #0x00
	.db #0x00
	.db #0x04
	.db #0x20
	.db #0x1C
	.db #0x64
	.db #0x89
	.db #0x44
	.db #0x44
	.db #0x04
	.db #0x04
	.db #0x00
	.db #0x00
	.db #0x00
	.db #0x00
	.db #0x04
	.db #0x04
	.db #0x20
	.db #0x40
	.db #0x44
	.db #0x14
	.db #0x24
	.db #0x04
	.db #0x04
	.db #0x00
	.db #0x00
	.db #0x00
	.db #0x00
	.db #0x00
	.db #0x00
	.db #0x00
	.db #0x00
	.db #0x40
	.db #0x20
	.db #0x04
	.db #0x04
	.db #0x04
	.db #0x00
	.db #0x00
	.db #0x00
	.db #0x00
	.db #0x00
	.db #0x00
	.db #0x00
	.db #0x00
	.db #0x00
	.db #0x00
	.db #0x24
	.db #0x24
	.db #0x00
	.db #0x00
	.db #0x00
	.db #0x00
	.db #0x00
	.db #0x00
	.db #0x00
	.db #0x00
	.db #0x00
	.db #0x00
	.db #0x00
	.db #0x00
	.db #0x00
	.db #0x00
	.db #0x00
	.db #0x00
	.db #0x00
	.db #0x24
	.db #0x04
	.db #0x04
	.db #0x44
	.db #0xDC
	.db #0xBC
	.db #0x44
	.db #0x24
	.db #0x24
	.db #0x04
	.db #0x00
	.db #0x00
	.db #0x00
	.db #0x04
	.db #0x04
	.db #0x64
	.db #0xB1
	.db #0x8D
	.db #0x89
	.db #0x64
	.db #0x44
	.db #0x04
	.db #0x04
	.db #0x00
	.db #0x00
	.db #0x00
	.db #0x04
	.db #0x64
	.db #0xB1
	.db #0x8D
	.db #0x62
	.db #0x42
	.db #0x89
	.db #0x89
	.db #0x44
	.db #0x04
	.db #0x00
	.db #0x00
	.db #0x00
	.db #0x00
	.db #0x89
	.db #0x8D
	.db #0x21
	.db #0x42
	.db #0x21
	.db #0x21
	.db #0x89
	.db #0x64
	.db #0x00
	.db #0x00
	.db #0x00
	.db #0x00
	.db #0x00
	.db #0x64
	.db #0x89
	.db #0x21
	.db #0xB1
	.db #0x8D
	.db #0x21
	.db #0xB1
	.db #0x64
	.db #0x00
	.db #0x00
	.db #0x00
	.db #0x00
	.db #0x00
	.db #0x64
	.db #0x89
	.db #0x64
	.db #0xD6
	.db #0xB2
	.db #0x64
	.db #0x89
	.db #0x64
	.db #0x00
	.db #0x00
	.db #0x00
	.db #0x00
	.db #0x24
	.db #0x04
	.db #0x64
	.db #0x44
	.db #0x8D
	.db #0x89
	.db #0x44
	.db #0x64
	.db #0x04
	.db #0x04
	.db #0x00
	.db #0x00
	.db #0x00
	.db #0x24
	.db #0x04
	.db #0x04
	.db #0x1C
	.db #0x64
	.db #0x44
	.db #0x14
	.db #0x24
	.db #0x04
	.db #0x04
	.db #0x00
	.db #0x00
	.db #0x00
	.db #0x04
	.db #0x04
	.db #0x04
	.db #0x20
	.db #0x40
	.db #0x40
	.db #0x20
	.db #0x04
	.db #0x04
	.db #0x04
	.db #0x00
	.db #0x00
	.db #0x00
	.db #0x00
	.db #0x00
	.db #0x00
	.db #0x00
	.db #0x00
	.db #0x00
	.db #0x00
	.db #0x00
	.db #0x00
	.db #0x00
	.db #0x00
	.db #0x00
	.db #0x00
	.db #0x00
	.db #0x00
	.db #0x00
	.db #0x00
	.db #0x00
	.db #0x44
	.db #0x04
	.db #0x04
	.db #0x24
	.db #0x00
	.db #0x00
	.db #0x00
	.db #0x00
	.db #0x00
	.db #0x24
	.db #0x44
	.db #0xBC
	.db #0xDC
	.db #0x89
	.db #0x64
	.db #0x44
	.db #0x04
	.db #0x00
	.db #0x00
	.db #0x00
	.db #0x00
	.db #0x04
	.db #0x04
	.db #0x44
	.db #0x64
	.db #0x89
	.db #0x8D
	.db #0xB1
	.db #0x89
	.db #0x44
	.db #0x00
	.db #0x00
	.db #0x00
	.db #0x04
	.db #0x04
	.db #0x04
	.db #0x89
	.db #0x89
	.db #0x42
	.db #0x62
	.db #0x21
	.db #0x8D
	.db #0x89
	.db #0x00
	.db #0x00
	.db #0x00
	.db #0x00
	.db #0x04
	.db #0x64
	.db #0x89
	.db #0x21
	.db #0x21
	.db #0xB1
	.db #0x89
	.db #0x64
	.db #0x64
	.db #0x44
	.db #0x00
	.db #0x00
	.db #0x00
	.db #0x00
	.db #0x64
	.db #0xB1
	.db #0x21
	.db #0x8D
	.db #0xB1
	.db #0x89
	.db #0x89
	.db #0x44
	.db #0x40
	.db #0x00
	.db #0x00
	.db #0x00
	.db #0x00
	.db #0x44
	.db #0x89
	.db #0x64
	.db #0xB2
	.db #0xD6
	.db #0x64
	.db #0x64
	.db #0x44
	.db #0x24
	.db #0x00
	.db #0x00
	.db #0x00
	.db #0x00
	.db #0x04
	.db #0x04
	.db #0x44
	.db #0x44
	.db #0x89
	.db #0x64
	.db #0x1C
	.db #0x20
	.db #0x04
	.db #0x00
	.db #0x00
	.db #0x00
	.db #0x00
	.db #0x04
	.db #0x04
	.db #0x24
	.db #0x14
	.db #0x44
	.db #0x40
	.db #0x20
	.db #0x04
	.db #0x04
	.db #0x00
	.db #0x00
	.db #0x00
	.db #0x00
	.db #0x04
	.db #0x04
	.db #0x04
	.db #0x20
	.db #0x40
	.db #0x00
	.db #0x00
	.db #0x00
	.db #0x00
	.db #0x00
	.db #0x00
	.db #0x00
	.db #0x00
	.db #0x00
	.db #0x24
	.db #0x24
	.db #0x00
	.db #0x00
	.db #0x00
	.db #0x00
	.db #0x00
	.db #0x00
	.db #0x00
	.db #0x00
	.db #0x00
	.db #0x00
	.db #0x00
	.db #0x00
	.db #0x04
	.db #0x04
	.db #0x04
	.db #0x00
	.db #0x00
	.db #0x00
	.db #0x00
	.db #0x00
	.db #0x00
	.db #0x00
	.db #0x00
	.db #0x00
	.db #0xDC
	.db #0x44
	.db #0x64
	.db #0x44
	.db #0x04
	.db #0x00
	.db #0x00
	.db #0x00
	.db #0x00
	.db #0x00
	.db #0x00
	.db #0x00
	.db #0xBC
	.db #0x89
	.db #0x8D
	.db #0x8D
	.db #0xB1
	.db #0x89
	.db #0x64
	.db #0x00
	.db #0x00
	.db #0x00
	.db #0x00
	.db #0x00
	.db #0x44
	.db #0x44
	.db #0x89
	.db #0x89
	.db #0x62
	.db #0x21
	.db #0x89
	.db #0x64
	.db #0x44
	.db #0x24
	.db #0x00
	.db #0x00
	.db #0x24
	.db #0x24
	.db #0x64
	.db #0x89
	.db #0x62
	.db #0x42
	.db #0xD6
	.db #0x8D
	.db #0x89
	.db #0x64
	.db #0x04
	.db #0x24
	.db #0x00
	.db #0x04
	.db #0x04
	.db #0x04
	.db #0x89
	.db #0x21
	.db #0x21
	.db #0xD6
	.db #0xD6
	.db #0x8D
	.db #0x64
	.db #0x04
	.db #0x04
	.db #0x00
	.db #0x04
	.db #0x04
	.db #0x04
	.db #0x89
	.db #0x21
	.db #0x44
	.db #0x44
	.db #0x8D
	.db #0x44
	.db #0x1C
	.db #0x04
	.db #0x00
	.db #0x00
	.db #0x00
	.db #0x04
	.db #0x00
	.db #0x64
	.db #0x89
	.db #0x64
	.db #0x44
	.db #0x44
	.db #0x64
	.db #0x40
	.db #0x00
	.db #0x00
	.db #0x00
	.db #0x00
	.db #0x00
	.db #0x00
	.db #0x00
	.db #0x04
	.db #0x04
	.db #0x14
	.db #0x44
	.db #0x40
	.db #0x00
	.db #0x00
	.db #0x00
	.db #0x00
	.db #0x00
	.db #0x00
	.db #0x00
	.db #0x00
	.db #0x04
	.db #0x04
	.db #0x24
	.db #0x20
	.db #0x00
	.db #0x00
	.db #0x00
	.db #0x00
	.db #0x00
	.db #0x00
	.db #0x00
	.db #0x00
	.db #0x00
	.db #0x04
	.db #0x04
	.db #0x04
	.db #0x00
	.db #0x00
	.db #0x00
	.db #0x00
	.db #0x00
	.db #0x00
	.db #0x00
	.db #0x00
	.db #0x00
	.db #0x00
	.db #0x04
	.db #0x04
	.db #0x00
	.db #0x00
	.db #0x00
	.db #0x00
	.db #0x00
	.db #0x00
	.db #0x00
	.db #0x00
	.db #0x00
	.db #0x00
	.db #0x44
	.db #0x64
	.db #0x89
	.db #0x44
	.db #0x40
	.db #0x00
	.db #0x00
	.db #0x00
	.db #0x00
	.db #0x00
	.db #0x00
	.db #0x00
	.db #0x44
	.db #0x9C
	.db #0x8D
	.db #0x21
	.db #0x89
	.db #0x64
	.db #0x64
	.db #0x40
	.db #0x00
	.db #0x00
	.db #0x00
	.db #0x00
	.db #0x44
	.db #0xDC
	.db #0xB1
	.db #0x62
	.db #0x42
	.db #0x21
	.db #0x21
	.db #0xB1
	.db #0x64
	.db #0x04
	.db #0x04
	.db #0x00
	.db #0x00
	.db #0x64
	.db #0x8D
	.db #0x8D
	.db #0x42
	.db #0x21
	.db #0x42
	.db #0xB1
	.db #0xD6
	.db #0x8D
	.db #0x04
	.db #0x04
	.db #0x00
	.db #0x00
	.db #0x44
	.db #0x89
	.db #0x89
	.db #0x89
	.db #0x21
	.db #0x44
	.db #0x64
	.db #0xB1
	.db #0x8D
	.db #0x1C
	.db #0x00
	.db #0x00
	.db #0x00
	.db #0x04
	.db #0x64
	.db #0x89
	.db #0x89
	.db #0x8D
	.db #0x21
	.db #0x64
	.db #0x44
	.db #0x64
	.db #0x40
	.db #0x00
	.db #0x00
	.db #0x00
	.db #0x24
	.db #0x04
	.db #0x04
	.db #0x89
	.db #0x8D
	.db #0x8D
	.db #0x8D
	.db #0x89
	.db #0x44
	.db #0x40
	.db #0x00
	.db #0x00
	.db #0x00
	.db #0x04
	.db #0x04
	.db #0x04
	.db #0x44
	.db #0x64
	.db #0xB1
	.db #0x89
	.db #0x64
	.db #0x14
	.db #0x20
	.db #0x00
	.db #0x00
	.db #0x00
	.db #0x00
	.db #0x00
	.db #0x00
	.db #0x00
	.db #0x00
	.db #0x44
	.db #0x04
	.db #0x04
	.db #0x04
	.db #0x00
	.db #0x00
	.db #0x00
	.db #0x00
	.db #0x00
	.db #0x00
	.db #0x00
	.db #0x00
	.db #0x00
	.db #0x00
	.db #0x04
	.db #0x04
	.db #0x24
	.db #0x00
	.db #0x00
	.db #0x00
	.db #0x00
	.db #0x00
	.db #0x00
	.db #0x00
	.db #0x00
	.db #0x00
	.db #0x00
	.db #0x00
	.db #0x00
	.db #0x00
	.db #0x00
	.db #0x00
	.db #0x00
	.db #0x00
	.db #0x00
	.db #0x04
	.db #0x04
	.db #0x64
	.db #0x89
	.db #0x89
	.db #0x64
	.db #0x64
	.db #0x04
	.db #0x04
	.db #0x04
	.db #0x00
	.db #0x00
	.db #0x00
	.db #0x04
	.db #0x64
	.db #0x8D
	.db #0x21
	.db #0x21
	.db #0xB1
	.db #0xD6
	.db #0x8D
	.db #0x04
	.db #0x04
	.db #0x00
	.db #0x00
	.db #0x00
	.db #0x44
	.db #0xB1
	.db #0x62
	.db #0x42
	.db #0x42
	.db #0xB1
	.db #0xD6
	.db #0x8D
	.db #0x1C
	.db #0x20
	.db #0x00
	.db #0x00
	.db #0x00
	.db #0xDC
	.db #0x8D
	.db #0x42
	.db #0x21
	.db #0x21
	.db #0x44
	.db #0x64
	.db #0x44
	.db #0x64
	.db #0x40
	.db #0x00
	.db #0x00
	.db #0x00
	.db #0xBC
	.db #0x89
	.db #0x89
	.db #0x21
	.db #0x21
	.db #0x21
	.db #0x64
	.db #0x44
	.db #0x44
	.db #0x40
	.db #0x00
	.db #0x00
	.db #0x00
	.db #0x44
	.db #0x64
	.db #0x89
	.db #0x89
	.db #0x8D
	.db #0x8D
	.db #0x8D
	.db #0x89
	.db #0x14
	.db #0x20
	.db #0x00
	.db #0x00
	.db #0x00
	.db #0x04
	.db #0x44
	.db #0x64
	.db #0x89
	.db #0x8D
	.db #0xB1
	.db #0x89
	.db #0x64
	.db #0x04
	.db #0x04
	.db #0x00
	.db #0x00
	.db #0x00
	.db #0x24
	.db #0x04
	.db #0x04
	.db #0x44
	.db #0x64
	.db #0x64
	.db #0x44
	.db #0x04
	.db #0x04
	.db #0x24
	.db #0x00
	.db #0x00
	.db #0x00
	.db #0x04
	.db #0x04
	.db #0x04
	.db #0x00
	.db #0x00
	.db #0x00
	.db #0x00
	.db #0x04
	.db #0x04
	.db #0x04
	.db #0x00
	.db #0x00
	.db #0x00
	.db #0x00
	.db #0x00
	.db #0x00
	.db #0x00
	.db #0x00
	.db #0x00
	.db #0x00
	.db #0x00
	.db #0x00
	.db #0x00
	.db #0x00
	.db #0x00
	.db #0x00
	.db #0x00
	.db #0x00
	.db #0x00
	.db #0x00
	.db #0x00
	.db #0x00
	.db #0x00
	.db #0x04
	.db #0x04
	.db #0x00
	.db #0x00
	.db #0x00
	.db #0x00
	.db #0x00
	.db #0x00
	.db #0x00
	.db #0x00
	.db #0x00
	.db #0x64
	.db #0x04
	.db #0x04
	.db #0x04
	.db #0x00
	.db #0x00
	.db #0x00
	.db #0x00
	.db #0x00
	.db #0x00
	.db #0x89
	.db #0x89
	.db #0x64
	.db #0xD6
	.db #0x8D
	.db #0x1C
	.db #0x20
	.db #0x00
	.db #0x00
	.db #0x00
	.db #0x00
	.db #0x04
	.db #0x04
	.db #0x8D
	.db #0x21
	.db #0x21
	.db #0xB1
	.db #0xD6
	.db #0x44
	.db #0x64
	.db #0x40
	.db #0x00
	.db #0x00
	.db #0x00
	.db #0x04
	.db #0x64
	.db #0x62
	.db #0x42
	.db #0x42
	.db #0x44
	.db #0x64
	.db #0x44
	.db #0x44
	.db #0x40
	.db #0x00
	.db #0x00
	.db #0x00
	.db #0x44
	.db #0xB1
	.db #0x42
	.db #0x21
	.db #0x21
	.db #0x21
	.db #0x64
	.db #0x89
	.db #0x14
	.db #0x20
	.db #0x00
	.db #0x00
	.db #0x00
	.db #0x00
	.db #0xDC
	.db #0x89
	.db #0x89
	.db #0x21
	.db #0x8D
	.db #0x8D
	.db #0x89
	.db #0x64
	.db #0x04
	.db #0x24
	.db #0x00
	.db #0x00
	.db #0x00
	.db #0xBC
	.db #0x64
	.db #0x89
	.db #0x89
	.db #0x8D
	.db #0xB1
	.db #0x44
	.db #0x04
	.db #0x04
	.db #0x04
	.db #0x00
	.db #0x00
	.db #0x00
	.db #0x00
	.db #0x04
	.db #0x44
	.db #0x64
	.db #0x44
	.db #0x64
	.db #0x00
	.db #0x00
	.db #0x04
	.db #0x00
	.db #0x00
	.db #0x00
	.db #0x00
	.db #0x00
	.db #0x24
	.db #0x04
	.db #0x04
	.db #0x00
	.db #0x00
	.db #0x00
	.db #0x00
	.db #0x00
	.db #0x00
	.db #0x00
	.db #0x00
	.db #0x00
	.db #0x00
	.db #0x04
	.db #0x04
	.db #0x04
	.db #0x00
	.db #0x00
	.db #0x00
	.db #0x00
	.db #0x00
	.db #0x00
	.db #0x00
	.db #0x00
	.db #0x00
	.db #0x00
	.db #0x04
	.db #0x04
	.db #0x10
	.db #0x04
	.db #0x00
	.db #0x00
	.db #0x00
	.db #0x00
	.db #0x00
	.db #0x00
	.db #0x00
	.db #0x00
	.db #0x00
	.db #0x04
	.db #0x44
	.db #0x40
	.db #0x40
	.db #0x64
	.db #0x00
	.db #0x00
	.db #0x00
	.db #0x00
	.db #0x00
	.db #0x00
	.db #0x00
	.db #0x00
	.db #0x44
	.db #0x64
	.db #0x40
	.db #0x44
	.db #0x64
	.db #0x64
	.db #0x14
	.db #0x00
	.db #0x00
	.db #0x00
	.db #0x00
	.db #0x00
	.db #0x64
	.db #0x89
	.db #0x21
	.db #0x89
	.db #0x8D
	.db #0x44
	.db #0x40
	.db #0x44
	.db #0x04
	.db #0x04
	.db #0x00
	.db #0x04
	.db #0x04
	.db #0x89
	.db #0xB1
	.db #0x21
	.db #0x42
	.db #0xD6
	.db #0x21
	.db #0x21
	.db #0x44
	.db #0x24
	.db #0x04
	.db #0x00
	.db #0x04
	.db #0x40
	.db #0x89
	.db #0x8D
	.db #0x42
	.db #0x62
	.db #0x21
	.db #0x21
	.db #0x89
	.db #0x64
	.db #0x04
	.db #0x04
	.db #0x00
	.db #0x04
	.db #0x04
	.db #0x89
	.db #0x89
	.db #0x8D
	.db #0x42
	.db #0x21
	.db #0x89
	.db #0x89
	.db #0x44
	.db #0x00
	.db #0x00
	.db #0x00
	.db #0x00
	.db #0x24
	.db #0x40
	.db #0xDC
	.db #0x8D
	.db #0xB1
	.db #0xB1
	.db #0x8D
	.db #0x89
	.db #0x00
	.db #0x00
	.db #0x00
	.db #0x00
	.db #0x00
	.db #0x00
	.db #0x40
	.db #0x40
	.db #0xDC
	.db #0x89
	.db #0x89
	.db #0x04
	.db #0x00
	.db #0x00
	.db #0x00
	.db #0x00
	.db #0x00
	.db #0x00
	.db #0x00
	.db #0x00
	.db #0x40
	.db #0x40
	.db #0x04
	.db #0x24
	.db #0x24
	.db #0x00
	.db #0x00
	.db #0x00
	.db #0x00
	.db #0x00
	.db #0x00
	.db #0x00
	.db #0x00
	.db #0x00
	.db #0x00
	.db #0x04
	.db #0x04
	.db #0x04
	.db #0x00
	.db #0x00
	.db #0x00
	.db #0x00
	.db #0x00
	.db #0x00
	.db #0x00
	.db #0x00
	.db #0x00
	.db #0x00
	.db #0x00
	.db #0x00
	.db #0x00
	.db #0x00
	.db #0x00
	.db #0x00
	.db #0x00
	.db #0x00
	.db #0x00
	.db #0x00
	.db #0x04
	.db #0x04
	.db #0x10
	.db #0x40
	.db #0x40
	.db #0x64
	.db #0x14
	.db #0x00
	.db #0x00
	.db #0x00
	.db #0x00
	.db #0x00
	.db #0x00
	.db #0x04
	.db #0x44
	.db #0x40
	.db #0x44
	.db #0x64
	.db #0x64
	.db #0x40
	.db #0x04
	.db #0x04
	.db #0x00
	.db #0x00
	.db #0x00
	.db #0x00
	.db #0x44
	.db #0x44
	.db #0x64
	.db #0x89
	.db #0x8D
	.db #0x44
	.db #0x64
	.db #0x44
	.db #0x24
	.db #0x00
	.db #0x00
	.db #0x00
	.db #0x00
	.db #0x64
	.db #0x21
	.db #0x8D
	.db #0xB2
	.db #0x21
	.db #0x21
	.db #0x89
	.db #0x44
	.db #0x24
	.db #0x00
	.db #0x00
	.db #0x00
	.db #0x89
	.db #0xB1
	.db #0x21
	.db #0x21
	.db #0x21
	.db #0x21
	.db #0x40
	.db #0x89
	.db #0x00
	.db #0x00
	.db #0x00
	.db #0x00
	.db #0x04
	.db #0x64
	.db #0x89
	.db #0x21
	.db #0x21
	.db #0x8D
	.db #0x8D
	.db #0x8D
	.db #0x89
	.db #0x00
	.db #0x00
	.db #0x00
	.db #0x00
	.db #0x04
	.db #0x40
	.db #0x89
	.db #0x8D
	.db #0x8D
	.db #0xB1
	.db #0xB1
	.db #0x89
	.db #0x40
	.db #0x00
	.db #0x00
	.db #0x00
	.db #0x00
	.db #0x04
	.db #0x04
	.db #0x40
	.db #0x9C
	.db #0xDC
	.db #0xB1
	.db #0x89
	.db #0x40
	.db #0x04
	.db #0x00
	.db #0x00
	.db #0x00
	.db #0x00
	.db #0x00
	.db #0x00
	.db #0x40
	.db #0x40
	.db #0x40
	.db #0x40
	.db #0x04
	.db #0x04
	.db #0x04
	.db #0x04
	.db #0x00
	.db #0x00
	.db #0x00
	.db #0x00
	.db #0x00
	.db #0x00
	.db #0x00
	.db #0x00
	.db #0x00
	.db #0x00
	.db #0x04
	.db #0x04
	.db #0x00
	.db #0x00
	.db #0x00
	.db #0x00
	.db #0x00
	.db #0x00
	.db #0x00
	.db #0x00
	.db #0x00
	.db #0x00
	.db #0x00
	.db #0x00
	.db #0x00
	.db #0x00
	.db #0x00
	.db #0x00
	.db #0x00
	.db #0x04
	.db #0x04
	.db #0x04
	.db #0x14
	.db #0x64
	.db #0x40
	.db #0x10
	.db #0x04
	.db #0x04
	.db #0x04
	.db #0x00
	.db #0x00
	.db #0x00
	.db #0x24
	.db #0x04
	.db #0x44
	.db #0x40
	.db #0x64
	.db #0x44
	.db #0x40
	.db #0x44
	.db #0x04
	.db #0x04
	.db #0x00
	.db #0x00
	.db #0x00
	.db #0x24
	.db #0x44
	.db #0x64
	.db #0x44
	.db #0x8D
	.db #0x89
	.db #0x44
	.db #0x64
	.db #0x44
	.db #0x04
	.db #0x00
	.db #0x00
	.db #0x00
	.db #0x00
	.db #0x64
	.db #0x89
	.db #0x21
	.db #0xD6
	.db #0xB2
	.db #0x21
	.db #0x89
	.db #0x64
	.db #0x00
	.db #0x00
	.db #0x00
	.db #0x00
	.db #0x00
	.db #0x89
	.db #0x89
	.db #0x21
	.db #0x21
	.db #0x21
	.db #0x21
	.db #0xB1
	.db #0x89
	.db #0x00
	.db #0x00
	.db #0x00
	.db #0x00
	.db #0x00
	.db #0x89
	.db #0x8D
	.db #0x8D
	.db #0x42
	.db #0x21
	.db #0x8D
	.db #0x89
	.db #0x64
	.db #0x00
	.db #0x00
	.db #0x00
	.db #0x00
	.db #0x04
	.db #0x40
	.db #0x89
	.db #0xB1
	.db #0xB1
	.db #0x8D
	.db #0x89
	.db #0x89
	.db #0x40
	.db #0x04
	.db #0x00
	.db #0x00
	.db #0x00
	.db #0x04
	.db #0x04
	.db #0x40
	.db #0x89
	.db #0xDC
	.db #0x9C
	.db #0x64
	.db #0x40
	.db #0x04
	.db #0x04
	.db #0x00
	.db #0x00
	.db #0x00
	.db #0x24
	.db #0x04
	.db #0x04
	.db #0x00
	.db #0x00
	.db #0x00
	.db #0x40
	.db #0x24
	.db #0x24
	.db #0x04
	.db #0x00
	.db #0x00
	.db #0x00
	.db #0x00
	.db #0x00
	.db #0x00
	.db #0x00
	.db #0x00
	.db #0x00
	.db #0x00
	.db #0x00
	.db #0x00
	.db #0x00
	.db #0x00
	.db #0x00
	.db #0x00
	.db #0x00
	.db #0x00
	.db #0x00
	.db #0x00
	.db #0x00
	.db #0x00
	.db #0x00
	.db #0x00
	.db #0x00
	.db #0x00
	.db #0x00
	.db #0x00
	.db #0x00
	.db #0x00
	.db #0x00
	.db #0x14
	.db #0x64
	.db #0x64
	.db #0x10
	.db #0x04
	.db #0x04
	.db #0x00
	.db #0x00
	.db #0x00
	.db #0x00
	.db #0x00
	.db #0x04
	.db #0x04
	.db #0x40
	.db #0x64
	.db #0x64
	.db #0x44
	.db #0x40
	.db #0x44
	.db #0x04
	.db #0x00
	.db #0x00
	.db #0x00
	.db #0x00
	.db #0x24
	.db #0x44
	.db #0x64
	.db #0x44
	.db #0x8D
	.db #0x89
	.db #0x64
	.db #0x40
	.db #0x44
	.db #0x00
	.db #0x00
	.db #0x00
	.db #0x00
	.db #0x24
	.db #0x44
	.db #0x89
	.db #0x21
	.db #0x21
	.db #0xB2
	.db #0x40
	.db #0x21
	.db #0x64
	.db #0x00
	.db #0x00
	.db #0x00
	.db #0x00
	.db #0x00
	.db #0x40
	.db #0x89
	.db #0x89
	.db #0x21
	.db #0x21
	.db #0x21
	.db #0x21
	.db #0xB1
	.db #0x89
	.db #0x00
	.db #0x00
	.db #0x00
	.db #0x00
	.db #0x00
	.db #0x89
	.db #0x8D
	.db #0x8D
	.db #0x42
	.db #0x21
	.db #0x8D
	.db #0x89
	.db #0x64
	.db #0x04
	.db #0x00
	.db #0x00
	.db #0x00
	.db #0x00
	.db #0x40
	.db #0x89
	.db #0xB1
	.db #0xB1
	.db #0x8D
	.db #0x89
	.db #0x89
	.db #0x40
	.db #0x04
	.db #0x00
	.db #0x00
	.db #0x00
	.db #0x04
	.db #0x04
	.db #0x40
	.db #0x89
	.db #0xDC
	.db #0x9C
	.db #0x64
	.db #0x40
	.db #0x04
	.db #0x04
	.db #0x00
	.db #0x00
	.db #0x00
	.db #0x04
	.db #0x04
	.db #0x04
	.db #0x00
	.db #0x00
	.db #0x00
	.db #0x40
	.db #0x24
	.db #0x24
	.db #0x00
	.db #0x00
	.db #0x00
	.db #0x00
	.db #0x24
	.db #0x04
	.db #0x00
	.db #0x00
	.db #0x00
	.db #0x00
	.db #0x00
	.db #0x00
	.db #0x00
	.db #0x00
	.db #0x00
	.db #0x00
	.db #0x00
	.db #0x00
	.db #0x00
	.db #0x00
	.db #0x04
	.db #0x10
	.db #0x04
	.db #0x04
	.db #0x00
	.db #0x00
	.db #0x00
	.db #0x00
	.db #0x00
	.db #0x00
	.db #0x00
	.db #0x00
	.db #0x64
	.db #0x40
	.db #0x40
	.db #0x44
	.db #0x04
	.db #0x00
	.db #0x00
	.db #0x00
	.db #0x00
	.db #0x00
	.db #0x00
	.db #0x14
	.db #0x64
	.db #0x64
	.db #0x44
	.db #0x40
	.db #0x64
	.db #0x44
	.db #0x00
	.db #0x00
	.db #0x00
	.db #0x00
	.db #0x04
	.db #0x04
	.db #0x44
	.db #0x40
	.db #0x44
	.db #0x8D
	.db #0x89
	.db #0x21
	.db #0x89
	.db #0x64
	.db #0x00
	.db #0x00
	.db #0x00
	.db #0x04
	.db #0x24
	.db #0x44
	.db #0x21
	.db #0x21
	.db #0xD6
	.db #0x42
	.db #0x21
	.db #0xB1
	.db #0x89
	.db #0x04
	.db #0x04
	.db #0x00
	.db #0x04
	.db #0x04
	.db #0x64
	.db #0x89
	.db #0x21
	.db #0x21
	.db #0x62
	.db #0x42
	.db #0x8D
	.db #0x89
	.db #0x40
	.db #0x04
	.db #0x00
	.db #0x00
	.db #0x00
	.db #0x44
	.db #0x89
	.db #0x89
	.db #0x21
	.db #0x42
	.db #0x8D
	.db #0x89
	.db #0x89
	.db #0x04
	.db #0x04
	.db #0x00
	.db #0x00
	.db #0x00
	.db #0x00
	.db #0x89
	.db #0x8D
	.db #0xB1
	.db #0xB1
	.db #0x8D
	.db #0xDC
	.db #0x40
	.db #0x24
	.db #0x00
	.db #0x00
	.db #0x00
	.db #0x00
	.db #0x00
	.db #0x00
	.db #0x04
	.db #0x89
	.db #0x89
	.db #0xDC
	.db #0x40
	.db #0x40
	.db #0x00
	.db #0x00
	.db #0x00
	.db #0x00
	.db #0x00
	.db #0x00
	.db #0x00
	.db #0x24
	.db #0x24
	.db #0x04
	.db #0x40
	.db #0x40
	.db #0x00
	.db #0x00
	.db #0x00
	.db #0x00
	.db #0x00
	.db #0x00
	.db #0x00
	.db #0x00
	.db #0x04
	.db #0x04
	.db #0x04
	.db #0x00
	.db #0x00
	.db #0x00
	.db #0x00
	.db #0x00
	.db #0x00
	.db #0x00
	.db #0x00
	.db #0x04
	.db #0x04
	.db #0x00
	.db #0x00
	.db #0x00
	.db #0x00
	.db #0x00
	.db #0x00
	.db #0x00
	.db #0x00
	.db #0x00
	.db #0x00
	.db #0x00
	.db #0x04
	.db #0x04
	.db #0x04
	.db #0x64
	.db #0x00
	.db #0x00
	.db #0x00
	.db #0x00
	.db #0x00
	.db #0x00
	.db #0x00
	.db #0x00
	.db #0x00
	.db #0x20
	.db #0x1C
	.db #0x8D
	.db #0xD6
	.db #0x64
	.db #0x89
	.db #0x89
	.db #0x00
	.db #0x00
	.db #0x00
	.db #0x00
	.db #0x00
	.db #0x40
	.db #0x64
	.db #0x44
	.db #0xD6
	.db #0xB1
	.db #0x21
	.db #0x21
	.db #0x8D
	.db #0x04
	.db #0x04
	.db #0x00
	.db #0x00
	.db #0x00
	.db #0x40
	.db #0x44
	.db #0x44
	.db #0x64
	.db #0x44
	.db #0x42
	.db #0x42
	.db #0x62
	.db #0x64
	.db #0x04
	.db #0x00
	.db #0x00
	.db #0x00
	.db #0x20
	.db #0x14
	.db #0x89
	.db #0x64
	.db #0x21
	.db #0x21
	.db #0x21
	.db #0x42
	.db #0xB1
	.db #0x44
	.db #0x00
	.db #0x00
	.db #0x24
	.db #0x04
	.db #0x64
	.db #0x89
	.db #0x8D
	.db #0x8D
	.db #0x21
	.db #0x89
	.db #0x89
	.db #0xDC
	.db #0x00
	.db #0x00
	.db #0x00
	.db #0x04
	.db #0x04
	.db #0x04
	.db #0x44
	.db #0xB1
	.db #0x8D
	.db #0x89
	.db #0x89
	.db #0x64
	.db #0xBC
	.db #0x00
	.db #0x00
	.db #0x00
	.db #0x00
	.db #0x04
	.db #0x00
	.db #0x00
	.db #0x64
	.db #0x44
	.db #0x64
	.db #0x44
	.db #0x04
	.db #0x00
	.db #0x00
	.db #0x00
	.db #0x00
	.db #0x00
	.db #0x00
	.db #0x00
	.db #0x00
	.db #0x00
	.db #0x00
	.db #0x04
	.db #0x04
	.db #0x24
	.db #0x00
	.db #0x00
	.db #0x00
	.db #0x00
	.db #0x00
	.db #0x00
	.db #0x00
	.db #0x00
	.db #0x00
	.db #0x00
	.db #0x04
	.db #0x04
	.db #0x04
	.db #0x00
	.db #0x00
	.db #0x00
	.db #0x00
_shadow:
	.db #0x00
	.db #0x00
	.db #0x00
	.db #0x00
	.db #0x00
	.db #0x00
	.db #0x00
	.db #0x00
	.db #0x00
	.db #0x00
	.db #0x00
	.db #0x00
	.db #0x00
	.db #0x00
	.db #0x00
	.db #0x00
	.db #0x00
	.db #0x00
	.db #0x00
	.db #0x00
	.db #0x00
	.db #0x00
	.db #0x00
	.db #0x00
	.db #0x00
	.db #0x00
	.db #0x00
	.db #0x00
	.db #0x00
	.db #0x00
	.db #0x24
	.db #0x24
	.db #0x24
	.db #0x24
	.db #0x24
	.db #0x00
	.db #0x00
	.db #0x00
	.db #0x00
	.db #0x00
	.db #0x00
	.db #0x24
	.db #0x24
	.db #0x04
	.db #0x04
	.db #0x04
	.db #0x04
	.db #0x04
	.db #0x24
	.db #0x24
	.db #0x00
	.db #0x00
	.db #0x00
	.db #0x24
	.db #0x04
	.db #0x04
	.db #0x04
	.db #0x04
	.db #0x04
	.db #0x04
	.db #0x04
	.db #0x04
	.db #0x04
	.db #0x24
	.db #0x00
	.db #0x00
	.db #0x24
	.db #0x04
	.db #0x04
	.db #0x04
	.db #0x04
	.db #0x04
	.db #0x04
	.db #0x04
	.db #0x04
	.db #0x04
	.db #0x24
	.db #0x00
	.db #0x00
	.db #0x24
	.db #0x04
	.db #0x04
	.db #0x04
	.db #0x04
	.db #0x04
	.db #0x04
	.db #0x04
	.db #0x04
	.db #0x04
	.db #0x24
	.db #0x00
	.db #0x00
	.db #0x00
	.db #0x24
	.db #0x04
	.db #0x04
	.db #0x04
	.db #0x04
	.db #0x04
	.db #0x04
	.db #0x04
	.db #0x24
	.db #0x00
	.db #0x00
	.db #0x00
	.db #0x00
	.db #0x00
	.db #0x24
	.db #0x24
	.db #0x04
	.db #0x04
	.db #0x04
	.db #0x24
	.db #0x24
	.db #0x00
	.db #0x00
	.db #0x00
	.db #0x00
	.db #0x00
	.db #0x00
	.db #0x00
	.db #0x00
	.db #0x24
	.db #0x24
	.db #0x24
	.db #0x00
	.db #0x00
	.db #0x00
	.db #0x00
	.db #0x00
	.db #0x00
	.db #0x00
	.db #0x00
	.db #0x00
	.db #0x00
	.db #0x00
	.db #0x00
	.db #0x00
	.db #0x00
	.db #0x00
	.db #0x00
	.db #0x00
	.db #0x00
_g_Sinus:
	.dw #0x0000
	.dw #0x0061
	.dw #0x00B5
	.dw #0x00EC
	.dw #0x0100
	.dw #0x00EC
	.dw #0x00B5
	.dw #0x0061
	.dw #0x0000
	.dw #0xFF9F
	.dw #0xFF4B
	.dw #0xFF14
	.dw #0xFF00
	.dw #0xFF14
	.dw #0xFF4B
	.dw #0xFF9F
_g_Cosinus:
	.dw #0x0100
	.dw #0x00EC
	.dw #0x00B5
	.dw #0x0061
	.dw #0x0000
	.dw #0xFF9F
	.dw #0xFF4B
	.dw #0xFF14
	.dw #0xFF00
	.dw #0xFF14
	.dw #0xFF4B
	.dw #0xFF9F
	.dw #0x0000
	.dw #0x0061
	.dw #0x00B5
	.dw #0x00EC
_backgound:
	.db #0x92
	.db #0x92
	.db #0x92
	.db #0x92
	.db #0x92
	.db #0x92
	.db #0x92
	.db #0x92
	.db #0x92
	.db #0x92
	.db #0x92
	.db #0x92
	.db #0x92
	.db #0x92
	.db #0x92
	.db #0x92
	.db #0x92
	.db #0x92
	.db #0x92
	.db #0x92
	.db #0x92
	.db #0x92
	.db #0x92
	.db #0x92
	.db #0x92
	.db #0x92
	.db #0x92
	.db #0x92
	.db #0x92
	.db #0x92
	.db #0x92
	.db #0x92
	.db #0x92
	.db #0x92
	.db #0x92
	.db #0x92
	.db #0x92
	.db #0x92
	.db #0x92
	.db #0x92
	.db #0x92
	.db #0x92
	.db #0x92
	.db #0x92
	.db #0x92
	.db #0x92
	.db #0x92
	.db #0x92
	.db #0x92
	.db #0x92
	.db #0x92
	.db #0x92
	.db #0x92
	.db #0x92
	.db #0x92
	.db #0x92
	.db #0x92
	.db #0x92
	.db #0x92
	.db #0x92
	.db #0x92
	.db #0x92
	.db #0x92
	.db #0x92
	.db #0x92
	.db #0x92
	.db #0x92
	.db #0x92
	.db #0x92
	.db #0x92
	.db #0x92
	.db #0x92
	.db #0x92
	.db #0x92
	.db #0x92
	.db #0x92
	.db #0x92
	.db #0x92
	.db #0x92
	.db #0x92
	.db #0x92
	.db #0x92
	.db #0x92
	.db #0x92
	.db #0x92
	.db #0x92
	.db #0x92
	.db #0x92
	.db #0x92
	.db #0x92
	.db #0x92
	.db #0x92
	.db #0x92
	.db #0x92
	.db #0x92
	.db #0x92
	.db #0x92
	.db #0x92
	.db #0x92
	.db #0x92
	.db #0x92
	.db #0x92
	.db #0x92
	.db #0x92
	.db #0x92
	.db #0x92
	.db #0x92
	.db #0x92
	.db #0x92
	.db #0x92
	.db #0x92
	.db #0x92
	.db #0x92
	.db #0x92
	.db #0x92
	.db #0x92
	.db #0x92
	.db #0x92
	.db #0x92
	.db #0x92
	.db #0x92
	.db #0x92
	.db #0x92
	.db #0x92
	.db #0x92
	.db #0x92
	.db #0x92
	.db #0x92
	.db #0x92
	.db #0x92
	.db #0x92
	.db #0x92
	.db #0x92
	.db #0x92
	.db #0x92
	.db #0x92
	.db #0x92
	.db #0x92
	.db #0x92
	.db #0x92
	.db #0x92
	.db #0x92
	.db #0x92
;carwar.c:212: void MainLoop()
;	genLabel
;	genFunction
;	---------------------------------
; Function MainLoop
; ---------------------------------
_MainLoop_start::
_MainLoop:
	push	ix
	ld	ix,#0
	add	ix,sp
	ld	hl,#-128
	add	hl,sp
	ld	sp,hl
;carwar.c:216: u8 page = 0;
;	genAssign
;	AOP_STK for _MainLoop_page_1_1
	ld	-2(ix),#0x00
;carwar.c:223: SetTo60Hz();
;	genCall
; _saveRegsForCall: sendSetSize: 0 deInUse: 0 bcInUse: 0 deSending: 0
	call	_SetTo60Hz
;carwar.c:224: SetScreen8();
;	genCall
; _saveRegsForCall: sendSetSize: 0 deInUse: 0 bcInUse: 0 deSending: 0
	call	_SetScreen8
;carwar.c:226: Fill8(0, 0, 0, 256, 212, 0x92);
;	genIpush
; _saveRegsForCall: sendSetSize: 0 deInUse: 0 bcInUse: 0 deSending: 0
	ld	hl,#0x92D4
	push	hl
;	genIpush
	ld	hl,#0x0000
	push	hl
;	genIpush
	ld	hl,#0x0000
	push	hl
;	genCall
	call	_Fill8
	pop	af
	pop	af
	pop	af
;carwar.c:227: Fill8(1, 0, 0, 256, 212, 0x92);
;	genIpush
; _saveRegsForCall: sendSetSize: 0 deInUse: 0 bcInUse: 0 deSending: 0
	ld	hl,#0x92D4
	push	hl
;	genIpush
	ld	hl,#0x0000
	push	hl
;	genIpush
	ld	hl,#0x0001
	push	hl
;	genCall
	call	_Fill8
	pop	af
	pop	af
	pop	af
;carwar.c:229: InitializePlayer(&ply[0], 0, 50, 100);
;	genAddrOf
	ld	hl,#0x003E
	add	hl,sp
	ld	e,l
	ld	d,h
;	genIpush
; _saveRegsForCall: sendSetSize: 0 deInUse: 0 bcInUse: 0 deSending: 0
	ld	hl,#0x6432
	push	hl
;	genIpush
	ld	a,#0x00
	push	af
	inc	sp
;	genIpush
	push	de
;	genCall
	call	_InitializePlayer
	pop	af
	pop	af
	inc	sp
;carwar.c:230: InitializePlayer(&ply[1], 1, 100, 100);
;	genAddrOf
;	AOP_STK for _MainLoop_sloc27_1_0
	ld	hl,#0x003E
	add	hl,sp
	ld	-122(ix),l
	ld	-121(ix),h
;	genPlus
;	AOP_STK for _MainLoop_sloc27_1_0
;	genPlusIncr
	ld	a,-122(ix)
	add	a,#0x10
	ld	b,a
	ld	a,-121(ix)
	adc	a,#0x00
	ld	c,a
;	genIpush
; _saveRegsForCall: sendSetSize: 0 deInUse: 0 bcInUse: 0 deSending: 0
	ld	hl,#0x6464
	push	hl
;	genIpush
	ld	a,#0x01
	push	af
	inc	sp
;	genIpush
	ld	l,b
	ld	h,c
	push	hl
;	genCall
	call	_InitializePlayer
	pop	af
	pop	af
	inc	sp
;carwar.c:231: InitializePlayer(&ply[2], 2, 150, 100);
;	genPlus
;	AOP_STK for _MainLoop_sloc27_1_0
;	genPlusIncr
	ld	a,-122(ix)
	add	a,#0x20
	ld	c,a
	ld	a,-121(ix)
	adc	a,#0x00
	ld	b,a
;	genIpush
; _saveRegsForCall: sendSetSize: 0 deInUse: 0 bcInUse: 0 deSending: 0
	ld	hl,#0x6496
	push	hl
;	genIpush
	ld	a,#0x02
	push	af
	inc	sp
;	genIpush
	push	bc
;	genCall
	call	_InitializePlayer
	pop	af
	pop	af
	inc	sp
;carwar.c:232: InitializePlayer(&ply[3], 3, 200, 100);
;	genPlus
;	AOP_STK for _MainLoop_sloc27_1_0
;	genPlusIncr
	ld	a,-122(ix)
	add	a,#0x30
	ld	c,a
	ld	a,-121(ix)
	adc	a,#0x00
	ld	b,a
;	genIpush
; _saveRegsForCall: sendSetSize: 0 deInUse: 0 bcInUse: 0 deSending: 0
	ld	hl,#0x64C8
	push	hl
;	genIpush
	ld	a,#0x03
	push	af
	inc	sp
;	genIpush
	push	bc
;	genCall
	call	_InitializePlayer
	pop	af
	pop	af
	inc	sp
;carwar.c:234: while(bEnd == 0)
;	genPlus
;	AOP_STK for _MainLoop_sloc27_1_0
;	AOP_STK for _MainLoop_sloc1_1_0
;	genPlusIncr
	ld	a,-122(ix)
	add	a,#0x07
	ld	-72(ix),a
	ld	a,-121(ix)
	adc	a,#0x00
	ld	-71(ix),a
;	genPlus
;	AOP_STK for _MainLoop_sloc27_1_0
;	AOP_STK for _MainLoop_sloc0_1_0
;	genPlusIncr
	ld	a,-122(ix)
	add	a,#0x05
	ld	-70(ix),a
	ld	a,-121(ix)
	adc	a,#0x00
	ld	-69(ix),a
;	genPlus
;	AOP_STK for _MainLoop_sloc27_1_0
;	genPlusIncr
	ld	a,-122(ix)
	add	a,#0x10
	ld	e,a
	ld	a,-121(ix)
	adc	a,#0x00
	ld	d,a
;	genPlus
;	AOP_STK for _MainLoop_sloc2_1_0
;	genPlusIncr
	ld	a,e
	add	a,#0x07
	ld	-74(ix),a
	ld	a,d
	adc	a,#0x00
	ld	-73(ix),a
;	genPlus
;	AOP_STK for _MainLoop_sloc3_1_0
;	genPlusIncr
	ld	a,e
	add	a,#0x05
	ld	-76(ix),a
	ld	a,d
	adc	a,#0x00
	ld	-75(ix),a
;	genPlus
;	AOP_STK for _MainLoop_sloc27_1_0
;	AOP_STK for _MainLoop_sloc7_1_0
;	genPlusIncr
	ld	a,-122(ix)
	add	a,#0x20
	ld	-84(ix),a
	ld	a,-121(ix)
	adc	a,#0x00
	ld	-83(ix),a
;	genPlus
;	AOP_STK for _MainLoop_sloc7_1_0
;	AOP_STK for _MainLoop_sloc5_1_0
;	genPlusIncr
	ld	a,-84(ix)
	add	a,#0x07
	ld	-80(ix),a
	ld	a,-83(ix)
	adc	a,#0x00
	ld	-79(ix),a
;	genPlus
;	AOP_STK for _MainLoop_sloc7_1_0
;	AOP_STK for _MainLoop_sloc6_1_0
;	genPlusIncr
	ld	a,-84(ix)
	add	a,#0x05
	ld	-82(ix),a
	ld	a,-83(ix)
	adc	a,#0x00
	ld	-81(ix),a
;	genPlus
;	AOP_STK for _MainLoop_sloc27_1_0
;	genPlusIncr
	ld	a,-122(ix)
	add	a,#0x30
	ld	c,a
	ld	a,-121(ix)
	adc	a,#0x00
	ld	b,a
;	genPlus
;	AOP_STK for _MainLoop_sloc8_1_0
;	genPlusIncr
	ld	a,c
	add	a,#0x07
	ld	-86(ix),a
	ld	a,b
	adc	a,#0x00
	ld	-85(ix),a
;	genPlus
;	AOP_STK for _MainLoop_sloc9_1_0
;	genPlusIncr
	ld	a,c
	add	a,#0x05
	ld	-88(ix),a
	ld	a,b
	adc	a,#0x00
	ld	-87(ix),a
;	genAssign
;	AOP_STK for _MainLoop_sloc27_1_0
;	AOP_STK for _MainLoop_sloc10_1_0
	ld	a,-122(ix)
	ld	-90(ix),a
	ld	a,-121(ix)
	ld	-89(ix),a
;	genAssign
;	AOP_STK for _MainLoop_sloc11_1_0
	ld	-92(ix),e
	ld	-91(ix),d
;	genAssign
;	AOP_STK for _MainLoop_sloc7_1_0
;	AOP_STK for _MainLoop_sloc12_1_0
	ld	a,-84(ix)
	ld	-94(ix),a
	ld	a,-83(ix)
	ld	-93(ix),a
;	genAssign
;	AOP_STK for _MainLoop_sloc13_1_0
	ld	-96(ix),c
	ld	-95(ix),b
;	genPlus
;	AOP_STK for _MainLoop_sloc27_1_0
;	AOP_STK for _MainLoop_sloc14_1_0
;	genPlusIncr
	ld	a,-122(ix)
	add	a,#0x09
	ld	-98(ix),a
	ld	a,-121(ix)
	adc	a,#0x00
	ld	-97(ix),a
;	genPlus
;	AOP_STK for _MainLoop_sloc27_1_0
;	AOP_STK for _MainLoop_sloc15_1_0
;	genPlusIncr
	ld	a,-122(ix)
	add	a,#0x03
	ld	-100(ix),a
	ld	a,-121(ix)
	adc	a,#0x00
	ld	-99(ix),a
;	genPlus
;	AOP_STK for _MainLoop_sloc27_1_0
;	AOP_STK for _MainLoop_sloc16_1_0
;	genPlusIncr
	ld	a,-122(ix)
	add	a,#0x01
	ld	-102(ix),a
	ld	a,-121(ix)
	adc	a,#0x00
	ld	-101(ix),a
;	genPlus
;	AOP_STK for _MainLoop_sloc17_1_0
;	genPlusIncr
	ld	a,e
	add	a,#0x09
	ld	-104(ix),a
	ld	a,d
	adc	a,#0x00
	ld	-103(ix),a
;	genPlus
;	AOP_STK for _MainLoop_sloc18_1_0
;	genPlusIncr
	ld	a,e
	add	a,#0x03
	ld	-106(ix),a
	ld	a,d
	adc	a,#0x00
	ld	-105(ix),a
;	genPlus
;	AOP_STK for _MainLoop_sloc4_1_0
;	genPlusIncr
	ld	a,e
	add	a,#0x01
	ld	-78(ix),a
	ld	a,d
	adc	a,#0x00
	ld	-77(ix),a
;	genPlus
;	AOP_STK for _MainLoop_sloc7_1_0
;	AOP_STK for _MainLoop_sloc19_1_0
;	genPlusIncr
	ld	a,-84(ix)
	add	a,#0x09
	ld	-108(ix),a
	ld	a,-83(ix)
	adc	a,#0x00
	ld	-107(ix),a
;	genPlus
;	AOP_STK for _MainLoop_sloc7_1_0
;	AOP_STK for _MainLoop_sloc20_1_0
;	genPlusIncr
	ld	a,-84(ix)
	add	a,#0x03
	ld	-110(ix),a
	ld	a,-83(ix)
	adc	a,#0x00
	ld	-109(ix),a
;	genPlus
;	AOP_STK for _MainLoop_sloc7_1_0
;	genPlusIncr
	inc	-84(ix)
	jr	NZ,00164$
	inc	-83(ix)
00164$:
;	genPlus
;	AOP_STK for _MainLoop_sloc21_1_0
;	genPlusIncr
	ld	a,c
	add	a,#0x09
	ld	-112(ix),a
	ld	a,b
	adc	a,#0x00
	ld	-111(ix),a
;	genPlus
;	AOP_STK for _MainLoop_sloc22_1_0
;	genPlusIncr
	ld	a,c
	add	a,#0x03
	ld	-114(ix),a
	ld	a,b
	adc	a,#0x00
	ld	-113(ix),a
;	genPlus
;	AOP_STK for _MainLoop_sloc23_1_0
;	genPlusIncr
	ld	a,c
	add	a,#0x01
	ld	-116(ix),a
	ld	a,b
	adc	a,#0x00
	ld	-115(ix),a
;	genLabel
00136$:
;carwar.c:236: SetPage8(page << 5);
;	genLeftShift
;	AOP_STK for _MainLoop_page_1_1
	ld	a,-2(ix)
	rrca
	rrca
	rrca
	and	a,#0xE0
;	genIpush
; _saveRegsForCall: sendSetSize: 0 deInUse: 0 bcInUse: 0 deSending: 0
	ld	c,a
	push	af
	inc	sp
;	genCall
	call	_SetPage8
	inc	sp
;carwar.c:237: page = 1 - page;
;	genMinus
;	AOP_STK for _MainLoop_page_1_1
	ld	a,#0x01
	sub	a,-2(ix)
	ld	-2(ix),a
;carwar.c:241: Fill8(page, ScrPosX(ply[0].prevX), ScrPosY(ply[0].prevY), 13, 11, 0x92);
;	genPointerGet
;	AOP_STK for _MainLoop_sloc1_1_0
	ld	l,-72(ix)
	ld	h,-71(ix)
	ld	c,(hl)
	inc	hl
	ld	b,(hl)
;	genRightShift
	ld	c,b
	ld	b,#0x00
;	genCast
;	genMinus
	ld	a,c
	add	a,#0xFB
	ld	e,a
;	genPointerGet
;	AOP_STK for _MainLoop_sloc0_1_0
	ld	l,-70(ix)
	ld	h,-69(ix)
	ld	b,(hl)
	inc	hl
	ld	c,(hl)
;	genRightShift
	ld	b,c
	ld	c,#0x00
;	genCast
;	genMinus
	ld	a,b
	add	a,#0xFA
	ld	b,a
;	genIpush
; _saveRegsForCall: sendSetSize: 0 deInUse: 0 bcInUse: 0 deSending: 0
	ld	hl,#0x920B
	push	hl
;	genIpush
	ld	a,#0x0D
	push	af
	inc	sp
;	genIpush
	ld	a,e
	push	af
	inc	sp
;	genIpush
	push	bc
	inc	sp
;	genIpush
;	AOP_STK for _MainLoop_page_1_1
	ld	a,-2(ix)
	push	af
	inc	sp
;	genCall
	call	_Fill8
	pop	af
	pop	af
	pop	af
;carwar.c:242: Fill8(page, ScrPosX(ply[1].prevX), ScrPosY(ply[1].prevY), 13, 11, 0x92);
;	genPointerGet
;	AOP_STK for _MainLoop_sloc2_1_0
	ld	l,-74(ix)
	ld	h,-73(ix)
	ld	c,(hl)
	inc	hl
	ld	b,(hl)
;	genRightShift
	ld	c,b
	ld	b,#0x00
;	genCast
;	genMinus
	ld	a,c
	add	a,#0xFB
	ld	e,a
;	genPointerGet
;	AOP_STK for _MainLoop_sloc3_1_0
	ld	l,-76(ix)
	ld	h,-75(ix)
	ld	b,(hl)
	inc	hl
	ld	c,(hl)
;	genRightShift
	ld	b,c
	ld	c,#0x00
;	genCast
;	genMinus
	ld	a,b
	add	a,#0xFA
	ld	b,a
;	genIpush
; _saveRegsForCall: sendSetSize: 0 deInUse: 0 bcInUse: 0 deSending: 0
	ld	hl,#0x920B
	push	hl
;	genIpush
	ld	a,#0x0D
	push	af
	inc	sp
;	genIpush
	ld	a,e
	push	af
	inc	sp
;	genIpush
	push	bc
	inc	sp
;	genIpush
;	AOP_STK for _MainLoop_page_1_1
	ld	a,-2(ix)
	push	af
	inc	sp
;	genCall
	call	_Fill8
	pop	af
	pop	af
	pop	af
;carwar.c:243: Fill8(page, ScrPosX(ply[2].prevX), ScrPosY(ply[2].prevY), 13, 11, 0x92);
;	genPointerGet
;	AOP_STK for _MainLoop_sloc5_1_0
	ld	l,-80(ix)
	ld	h,-79(ix)
	ld	c,(hl)
	inc	hl
	ld	b,(hl)
;	genRightShift
	ld	c,b
	ld	b,#0x00
;	genCast
;	genMinus
	ld	a,c
	add	a,#0xFB
	ld	e,a
;	genPointerGet
;	AOP_STK for _MainLoop_sloc6_1_0
	ld	l,-82(ix)
	ld	h,-81(ix)
	ld	b,(hl)
	inc	hl
	ld	c,(hl)
;	genRightShift
	ld	b,c
	ld	c,#0x00
;	genCast
;	genMinus
	ld	a,b
	add	a,#0xFA
	ld	b,a
;	genIpush
; _saveRegsForCall: sendSetSize: 0 deInUse: 0 bcInUse: 0 deSending: 0
	ld	hl,#0x920B
	push	hl
;	genIpush
	ld	a,#0x0D
	push	af
	inc	sp
;	genIpush
	ld	a,e
	push	af
	inc	sp
;	genIpush
	push	bc
	inc	sp
;	genIpush
;	AOP_STK for _MainLoop_page_1_1
	ld	a,-2(ix)
	push	af
	inc	sp
;	genCall
	call	_Fill8
	pop	af
	pop	af
	pop	af
;carwar.c:244: Fill8(page, ScrPosX(ply[3].prevX), ScrPosY(ply[3].prevY), 13, 11, 0x92);
;	genPointerGet
;	AOP_STK for _MainLoop_sloc8_1_0
	ld	l,-86(ix)
	ld	h,-85(ix)
	ld	c,(hl)
	inc	hl
	ld	b,(hl)
;	genRightShift
	ld	c,b
	ld	b,#0x00
;	genCast
;	genMinus
	ld	a,c
	add	a,#0xFB
	ld	e,a
;	genPointerGet
;	AOP_STK for _MainLoop_sloc9_1_0
	ld	l,-88(ix)
	ld	h,-87(ix)
	ld	b,(hl)
	inc	hl
	ld	c,(hl)
;	genRightShift
	ld	b,c
	ld	c,#0x00
;	genCast
;	genMinus
	ld	a,b
	add	a,#0xFA
	ld	b,a
;	genIpush
; _saveRegsForCall: sendSetSize: 0 deInUse: 0 bcInUse: 0 deSending: 0
	ld	hl,#0x920B
	push	hl
;	genIpush
	ld	a,#0x0D
	push	af
	inc	sp
;	genIpush
	ld	a,e
	push	af
	inc	sp
;	genIpush
	push	bc
	inc	sp
;	genIpush
;	AOP_STK for _MainLoop_page_1_1
	ld	a,-2(ix)
	push	af
	inc	sp
;	genCall
	call	_Fill8
	pop	af
	pop	af
	pop	af
;carwar.c:252: curPly = &ply[0];
;	genAssign
;	AOP_STK for _MainLoop_sloc10_1_0
;	AOP_STK for _MainLoop_curPly_1_1
	ld	a,-90(ix)
	ld	-68(ix),a
	ld	a,-89(ix)
	ld	-67(ix),a
;carwar.c:253: keyLine = GetKeyMatrixLine(8);
;	genIpush
; _saveRegsForCall: sendSetSize: 0 deInUse: 0 bcInUse: 0 deSending: 0
	ld	a,#0x08
	push	af
	inc	sp
;	genCall
	call	_GetKeyMatrixLine
	ld	c,l
	inc	sp
;	genAssign
	ld	e,c
;carwar.c:254: if((keyLine & KEY_LEFT) == 0)
;	genAnd
	ld	a,e
	and	a,#0x10
	jr	Z,00166$
	jr	00102$
00166$:
;carwar.c:256: curPly->rot++; 
;	genPlus
;	AOP_STK for _MainLoop_curPly_1_1
;	AOP_STK for _MainLoop_sloc25_1_0
;	genPlusIncr
	ld	a,-68(ix)
	add	a,#0x09
	ld	-118(ix),a
	ld	a,-67(ix)
	adc	a,#0x00
	ld	-117(ix),a
;	genPointerGet
;	AOP_STK for _MainLoop_sloc25_1_0
	ld	l,-118(ix)
	ld	h,-117(ix)
	ld	c,(hl)
	inc	hl
	ld	b,(hl)
;	genPlus
;	genPlusIncr
	inc	bc
;	genAssign (pointer)
;	AOP_STK for _MainLoop_sloc25_1_0
;	isBitvar = 0
	ld	l,-118(ix)
	ld	h,-117(ix)
	ld	(hl),c
	inc	hl
	ld	(hl),b
;carwar.c:257: curPly->rot &= 0x0F;
;	genAnd
	ld	a,c
	and	a,#0x0F
	ld	c,a
	ld	b,#0x00
;	genAssign (pointer)
;	AOP_STK for _MainLoop_sloc25_1_0
;	isBitvar = 0
	ld	l,-118(ix)
	ld	h,-117(ix)
	ld	(hl),c
	inc	hl
	ld	(hl),b
;	genLabel
00102$:
;carwar.c:259: if((keyLine & KEY_RIGHT) == 0)
;	genAnd
	ld	a,e
	and	a,#0x80
	jr	Z,00168$
	jr	00104$
00168$:
;carwar.c:261: curPly->rot--; 
;	genPlus
;	AOP_STK for _MainLoop_curPly_1_1
;	AOP_STK for _MainLoop_sloc25_1_0
;	genPlusIncr
	ld	a,-68(ix)
	add	a,#0x09
	ld	-118(ix),a
	ld	a,-67(ix)
	adc	a,#0x00
	ld	-117(ix),a
;	genPointerGet
;	AOP_STK for _MainLoop_sloc25_1_0
	ld	l,-118(ix)
	ld	h,-117(ix)
	ld	c,(hl)
	inc	hl
	ld	b,(hl)
;	genMinus
	dec	bc
;	genAssign (pointer)
;	AOP_STK for _MainLoop_sloc25_1_0
;	isBitvar = 0
	ld	l,-118(ix)
	ld	h,-117(ix)
	ld	(hl),c
	inc	hl
	ld	(hl),b
;carwar.c:262: curPly->rot &= 0x0F;
;	genAnd
	ld	a,c
	and	a,#0x0F
	ld	c,a
	ld	b,#0x00
;	genAssign (pointer)
;	AOP_STK for _MainLoop_sloc25_1_0
;	isBitvar = 0
	ld	l,-118(ix)
	ld	h,-117(ix)
	ld	(hl),c
	inc	hl
	ld	(hl),b
;	genLabel
00104$:
;carwar.c:264: if((keyLine & KEY_UP) == 0)
;	genAnd
	ld	a,e
	and	a,#0x20
	jr	Z,00170$
	jp	00106$
00170$:
;carwar.c:266: curPly->dX = g_Cosinus[curPly->rot];
;	genPlus
;	AOP_STK for _MainLoop_curPly_1_1
;	genPlusIncr
	ld	a,-68(ix)
	add	a,#0x0B
	ld	e,a
	ld	a,-67(ix)
	adc	a,#0x00
	ld	d,a
;	genPlus
;	AOP_STK for _MainLoop_curPly_1_1
;	genPlusIncr
	ld	a,-68(ix)
	add	a,#0x09
	ld	c,a
	ld	a,-67(ix)
	adc	a,#0x00
	ld	b,a
;	genPointerGet
	ld	l,c
	ld	h,b
	ld	c,(hl)
	inc	hl
	ld	b,(hl)
;	genLeftShift
;	AOP_STK for _MainLoop_sloc26_1_0
	ld	-120(ix),c
	ld	-119(ix),b
	sla	-120(ix)
	rl	-119(ix)
;	genPlus
;	AOP_STK for _MainLoop_sloc26_1_0
	ld	a,#<_g_Cosinus
	add	a,-120(ix)
	ld	c,a
	ld	a,#>_g_Cosinus
	adc	a,-119(ix)
	ld	b,a
;	genPointerGet
	ld	l,c
	ld	h,b
	ld	c,(hl)
	inc	hl
	ld	b,(hl)
;	genAssign (pointer)
;	isBitvar = 0
	ld	l,e
	ld	h,d
	ld	(hl),c
	inc	hl
	ld	(hl),b
;carwar.c:267: curPly->dY = g_Sinus[curPly->rot];
;	genPlus
;	AOP_STK for _MainLoop_curPly_1_1
;	genPlusIncr
	ld	a,-68(ix)
	add	a,#0x0D
	ld	e,a
	ld	a,-67(ix)
	adc	a,#0x00
	ld	d,a
;	genPlus
;	AOP_STK for _MainLoop_sloc26_1_0
	ld	a,#<_g_Sinus
	add	a,-120(ix)
	ld	c,a
	ld	a,#>_g_Sinus
	adc	a,-119(ix)
	ld	b,a
;	genPointerGet
	ld	l,c
	ld	h,b
	ld	c,(hl)
	inc	hl
	ld	b,(hl)
;	genAssign (pointer)
;	isBitvar = 0
	ld	l,e
	ld	h,d
	ld	(hl),c
	inc	hl
	ld	(hl),b
;carwar.c:268: curPly->speed += 2;
;	genPlus
;	AOP_STK for _MainLoop_curPly_1_1
;	genPlusIncr
	ld	a,-68(ix)
	add	a,#0x0F
	ld	b,a
	ld	a,-67(ix)
	adc	a,#0x00
	ld	e,a
;	genPointerGet
	ld	l,b
	ld	h,e
	ld	c,(hl)
;	genPlus
;	genPlusIncr
	ld	a,c
	add	a,#0x02
;	genAssign (pointer)
;	isBitvar = 0
	ld	l,b
	ld	h,e
	ld	(hl),a
;	genLabel
00106$:
;carwar.c:273: curPly = &ply[1];
;	genAssign
;	AOP_STK for _MainLoop_sloc11_1_0
;	AOP_STK for _MainLoop_curPly_1_1
	ld	a,-92(ix)
	ld	-68(ix),a
	ld	a,-91(ix)
	ld	-67(ix),a
;carwar.c:274: keyLine = GetKeyMatrixLine(5);
;	genIpush
; _saveRegsForCall: sendSetSize: 0 deInUse: 0 bcInUse: 0 deSending: 0
	ld	a,#0x05
	push	af
	inc	sp
;	genCall
	call	_GetKeyMatrixLine
	ld	c,l
	inc	sp
;	genAssign
	ld	e,c
;carwar.c:275: if((keyLine & KEY_Z) == 0)
;	genAnd
	ld	a,e
	and	a,#0x80
	jr	Z,00174$
	jr	00108$
00174$:
;carwar.c:277: curPly->rot++; 
;	genPlus
;	AOP_STK for _MainLoop_curPly_1_1
;	genPlusIncr
	ld	a,-68(ix)
	add	a,#0x09
	ld	e,a
	ld	a,-67(ix)
	adc	a,#0x00
	ld	d,a
;	genPointerGet
	ld	l,e
	ld	h,d
	ld	c,(hl)
	inc	hl
	ld	b,(hl)
;	genPlus
;	genPlusIncr
	inc	bc
;	genAssign (pointer)
;	isBitvar = 0
	ld	l,e
	ld	h,d
	ld	(hl),c
	inc	hl
	ld	(hl),b
;carwar.c:278: curPly->rot &= 0x0F;
;	genAnd
	ld	a,c
	and	a,#0x0F
	ld	c,a
	ld	b,#0x00
;	genAssign (pointer)
;	isBitvar = 0
	ld	l,e
	ld	h,d
	ld	(hl),c
	inc	hl
	ld	(hl),b
;	genLabel
00108$:
;carwar.c:280: keyLine = GetKeyMatrixLine(3);
;	genIpush
; _saveRegsForCall: sendSetSize: 0 deInUse: 0 bcInUse: 0 deSending: 0
	ld	a,#0x03
	push	af
	inc	sp
;	genCall
	call	_GetKeyMatrixLine
	ld	c,l
	inc	sp
;	genAssign
	ld	e,c
;carwar.c:281: if((keyLine & KEY_C) == 0)
;	genAnd
	ld	a,e
	and	a,#0x01
	jr	Z,00176$
	jr	00110$
00176$:
;carwar.c:283: curPly->rot--; 
;	genPlus
;	AOP_STK for _MainLoop_curPly_1_1
;	genPlusIncr
	ld	a,-68(ix)
	add	a,#0x09
	ld	e,a
	ld	a,-67(ix)
	adc	a,#0x00
	ld	d,a
;	genPointerGet
	ld	l,e
	ld	h,d
	ld	c,(hl)
	inc	hl
	ld	b,(hl)
;	genMinus
	dec	bc
;	genAssign (pointer)
;	isBitvar = 0
	ld	l,e
	ld	h,d
	ld	(hl),c
	inc	hl
	ld	(hl),b
;carwar.c:284: curPly->rot &= 0x0F;
;	genAnd
	ld	a,c
	and	a,#0x0F
	ld	c,a
	ld	b,#0x00
;	genAssign (pointer)
;	isBitvar = 0
	ld	l,e
	ld	h,d
	ld	(hl),c
	inc	hl
	ld	(hl),b
;	genLabel
00110$:
;carwar.c:286: keyLine = GetKeyMatrixLine(5);
;	genIpush
; _saveRegsForCall: sendSetSize: 0 deInUse: 0 bcInUse: 0 deSending: 0
	ld	a,#0x05
	push	af
	inc	sp
;	genCall
	call	_GetKeyMatrixLine
	ld	c,l
	inc	sp
;	genAssign
	ld	e,c
;carwar.c:287: if((keyLine & KEY_X) == 0)
;	genAnd
	ld	a,e
	and	a,#0x20
	jr	Z,00178$
	jp	00112$
00178$:
;carwar.c:289: curPly->dX = g_Cosinus[curPly->rot];
;	genPlus
;	AOP_STK for _MainLoop_curPly_1_1
;	genPlusIncr
	ld	a,-68(ix)
	add	a,#0x0B
	ld	e,a
	ld	a,-67(ix)
	adc	a,#0x00
	ld	d,a
;	genPlus
;	AOP_STK for _MainLoop_curPly_1_1
;	genPlusIncr
	ld	a,-68(ix)
	add	a,#0x09
	ld	c,a
	ld	a,-67(ix)
	adc	a,#0x00
	ld	b,a
;	genPointerGet
	ld	l,c
	ld	h,b
	ld	c,(hl)
	inc	hl
	ld	b,(hl)
;	genLeftShift
;	AOP_STK for _MainLoop_sloc25_1_0
	ld	-118(ix),c
	ld	-117(ix),b
	sla	-118(ix)
	rl	-117(ix)
;	genPlus
;	AOP_STK for _MainLoop_sloc25_1_0
	ld	a,#<_g_Cosinus
	add	a,-118(ix)
	ld	c,a
	ld	a,#>_g_Cosinus
	adc	a,-117(ix)
	ld	b,a
;	genPointerGet
	ld	l,c
	ld	h,b
	ld	c,(hl)
	inc	hl
	ld	b,(hl)
;	genAssign (pointer)
;	isBitvar = 0
	ld	l,e
	ld	h,d
	ld	(hl),c
	inc	hl
	ld	(hl),b
;carwar.c:290: curPly->dY = g_Sinus[curPly->rot];
;	genPlus
;	AOP_STK for _MainLoop_curPly_1_1
;	genPlusIncr
	ld	a,-68(ix)
	add	a,#0x0D
	ld	e,a
	ld	a,-67(ix)
	adc	a,#0x00
	ld	d,a
;	genPlus
;	AOP_STK for _MainLoop_sloc25_1_0
	ld	a,#<_g_Sinus
	add	a,-118(ix)
	ld	c,a
	ld	a,#>_g_Sinus
	adc	a,-117(ix)
	ld	b,a
;	genPointerGet
	ld	l,c
	ld	h,b
	ld	c,(hl)
	inc	hl
	ld	b,(hl)
;	genAssign (pointer)
;	isBitvar = 0
	ld	l,e
	ld	h,d
	ld	(hl),c
	inc	hl
	ld	(hl),b
;carwar.c:291: curPly->speed += 2;
;	genPlus
;	AOP_STK for _MainLoop_curPly_1_1
;	genPlusIncr
	ld	a,-68(ix)
	add	a,#0x0F
	ld	b,a
	ld	a,-67(ix)
	adc	a,#0x00
	ld	e,a
;	genPointerGet
	ld	l,b
	ld	h,e
	ld	c,(hl)
;	genPlus
;	genPlusIncr
	ld	a,c
	add	a,#0x02
;	genAssign (pointer)
;	isBitvar = 0
	ld	l,b
	ld	h,e
	ld	(hl),a
;	genLabel
00112$:
;carwar.c:296: curPly = &ply[2];
;	genAssign
;	AOP_STK for _MainLoop_sloc12_1_0
;	AOP_STK for _MainLoop_curPly_1_1
	ld	a,-94(ix)
	ld	-68(ix),a
	ld	a,-93(ix)
	ld	-67(ix),a
;carwar.c:297: switch (Joystick(1)) // Joy 1 direction
;	genIpush
; _saveRegsForCall: sendSetSize: 0 deInUse: 0 bcInUse: 0 deSending: 0
	ld	a,#0x01
	push	af
	inc	sp
;	genCall
	call	_Joystick
	ld	c,l
	inc	sp
;	genCmpLt
	ld	a,c
	sub	a,#0x02
	jp	M,00119$
;	genCmpGt
	ld	a,#0x08
	sub	a,c
	jp	M,00119$
;	genMinus
	dec	c
	dec	c
;	genJumpTab
	push	de
	ld	e,c
	ld	d,#0x00
	ld	hl,#00181$
	add	hl,de
	add	hl,de
	add	hl,de
	pop	de
	jp	(hl)
00181$:
	jp	00113$
	jp	00114$
	jp	00115$
	jp	00119$
	jp	00116$
	jp	00117$
	jp	00118$
;carwar.c:299: case 2: // up-right
;	genLabel
00113$:
;carwar.c:300: case 3: // right
;	genLabel
00114$:
;carwar.c:301: case 4: // down-right
;	genLabel
00115$:
;carwar.c:302: curPly->rot--; 
;	genPlus
;	AOP_STK for _MainLoop_curPly_1_1
;	genPlusIncr
	ld	a,-68(ix)
	add	a,#0x09
	ld	e,a
	ld	a,-67(ix)
	adc	a,#0x00
	ld	d,a
;	genPointerGet
	ld	l,e
	ld	h,d
	ld	c,(hl)
	inc	hl
	ld	b,(hl)
;	genMinus
	dec	bc
;	genAssign (pointer)
;	isBitvar = 0
	ld	l,e
	ld	h,d
	ld	(hl),c
	inc	hl
	ld	(hl),b
;carwar.c:303: curPly->rot &= 0x0F;
;	genAnd
	ld	a,c
	and	a,#0x0F
	ld	c,a
	ld	b,#0x00
;	genAssign (pointer)
;	isBitvar = 0
	ld	l,e
	ld	h,d
	ld	(hl),c
	inc	hl
	ld	(hl),b
;carwar.c:304: break;
;	genGoto
	jr	00119$
;carwar.c:305: case 6: // down-left
;	genLabel
00116$:
;carwar.c:306: case 7: // left
;	genLabel
00117$:
;carwar.c:307: case 8:// up-left
;	genLabel
00118$:
;carwar.c:308: curPly->rot++; 
;	genPlus
;	AOP_STK for _MainLoop_curPly_1_1
;	genPlusIncr
	ld	a,-68(ix)
	add	a,#0x09
	ld	e,a
	ld	a,-67(ix)
	adc	a,#0x00
	ld	d,a
;	genPointerGet
	ld	l,e
	ld	h,d
	ld	c,(hl)
	inc	hl
	ld	b,(hl)
;	genPlus
;	genPlusIncr
	inc	bc
;	genAssign (pointer)
;	isBitvar = 0
	ld	l,e
	ld	h,d
	ld	(hl),c
	inc	hl
	ld	(hl),b
;carwar.c:309: curPly->rot &= 0x0F;
;	genAnd
	ld	a,c
	and	a,#0x0F
	ld	c,a
	ld	b,#0x00
;	genAssign (pointer)
;	isBitvar = 0
	ld	l,e
	ld	h,d
	ld	(hl),c
	inc	hl
	ld	(hl),b
;carwar.c:311: }
;	genLabel
00119$:
;carwar.c:312: if(Joytrig(1) != 0) // Joy 1 Button A
;	genIpush
; _saveRegsForCall: sendSetSize: 0 deInUse: 0 bcInUse: 0 deSending: 0
	ld	a,#0x01
	push	af
	inc	sp
;	genCall
	call	_Joytrig
	ld	c,l
	inc	sp
;	genIfx
	xor	a,a
	or	a,c
	jp	Z,00121$
;carwar.c:314: curPly->dX = g_Cosinus[curPly->rot];
;	genPlus
;	AOP_STK for _MainLoop_curPly_1_1
;	genPlusIncr
	ld	a,-68(ix)
	add	a,#0x0B
	ld	e,a
	ld	a,-67(ix)
	adc	a,#0x00
	ld	d,a
;	genPlus
;	AOP_STK for _MainLoop_curPly_1_1
;	genPlusIncr
	ld	a,-68(ix)
	add	a,#0x09
	ld	c,a
	ld	a,-67(ix)
	adc	a,#0x00
	ld	b,a
;	genPointerGet
	ld	l,c
	ld	h,b
	ld	c,(hl)
	inc	hl
	ld	b,(hl)
;	genLeftShift
;	AOP_STK for _MainLoop_sloc25_1_0
	ld	-118(ix),c
	ld	-117(ix),b
	sla	-118(ix)
	rl	-117(ix)
;	genPlus
;	AOP_STK for _MainLoop_sloc25_1_0
	ld	a,#<_g_Cosinus
	add	a,-118(ix)
	ld	c,a
	ld	a,#>_g_Cosinus
	adc	a,-117(ix)
	ld	b,a
;	genPointerGet
	ld	l,c
	ld	h,b
	ld	c,(hl)
	inc	hl
	ld	b,(hl)
;	genAssign (pointer)
;	isBitvar = 0
	ld	l,e
	ld	h,d
	ld	(hl),c
	inc	hl
	ld	(hl),b
;carwar.c:315: curPly->dY = g_Sinus[curPly->rot];
;	genPlus
;	AOP_STK for _MainLoop_curPly_1_1
;	genPlusIncr
	ld	a,-68(ix)
	add	a,#0x0D
	ld	e,a
	ld	a,-67(ix)
	adc	a,#0x00
	ld	d,a
;	genPlus
;	AOP_STK for _MainLoop_sloc25_1_0
	ld	a,#<_g_Sinus
	add	a,-118(ix)
	ld	c,a
	ld	a,#>_g_Sinus
	adc	a,-117(ix)
	ld	b,a
;	genPointerGet
	ld	l,c
	ld	h,b
	ld	c,(hl)
	inc	hl
	ld	b,(hl)
;	genAssign (pointer)
;	isBitvar = 0
	ld	l,e
	ld	h,d
	ld	(hl),c
	inc	hl
	ld	(hl),b
;carwar.c:316: curPly->speed += 2;
;	genPlus
;	AOP_STK for _MainLoop_curPly_1_1
;	genPlusIncr
	ld	a,-68(ix)
	add	a,#0x0F
	ld	b,a
	ld	a,-67(ix)
	adc	a,#0x00
	ld	e,a
;	genPointerGet
	ld	l,b
	ld	h,e
	ld	c,(hl)
;	genPlus
;	genPlusIncr
	ld	a,c
	add	a,#0x02
;	genAssign (pointer)
;	isBitvar = 0
	ld	l,b
	ld	h,e
	ld	(hl),a
;	genLabel
00121$:
;carwar.c:321: curPly = &ply[3];
;	genAssign
;	AOP_STK for _MainLoop_sloc13_1_0
;	AOP_STK for _MainLoop_curPly_1_1
	ld	a,-96(ix)
	ld	-68(ix),a
	ld	a,-95(ix)
	ld	-67(ix),a
;carwar.c:322: switch (Joystick(2)) // Joy 2 direction
;	genIpush
; _saveRegsForCall: sendSetSize: 0 deInUse: 0 bcInUse: 0 deSending: 0
	ld	a,#0x02
	push	af
	inc	sp
;	genCall
	call	_Joystick
	ld	c,l
	inc	sp
;	genCmpLt
	ld	a,c
	sub	a,#0x02
	jp	M,00128$
;	genCmpGt
	ld	a,#0x08
	sub	a,c
	jp	M,00128$
;	genMinus
	dec	c
	dec	c
;	genJumpTab
	push	de
	ld	e,c
	ld	d,#0x00
	ld	hl,#00184$
	add	hl,de
	add	hl,de
	add	hl,de
	pop	de
	jp	(hl)
00184$:
	jp	00122$
	jp	00123$
	jp	00124$
	jp	00128$
	jp	00125$
	jp	00126$
	jp	00127$
;carwar.c:324: case 2: // up-right
;	genLabel
00122$:
;carwar.c:325: case 3: // right
;	genLabel
00123$:
;carwar.c:326: case 4: // down-right
;	genLabel
00124$:
;carwar.c:327: curPly->rot--; 
;	genPlus
;	AOP_STK for _MainLoop_curPly_1_1
;	genPlusIncr
	ld	a,-68(ix)
	add	a,#0x09
	ld	e,a
	ld	a,-67(ix)
	adc	a,#0x00
	ld	d,a
;	genPointerGet
	ld	l,e
	ld	h,d
	ld	c,(hl)
	inc	hl
	ld	b,(hl)
;	genMinus
	dec	bc
;	genAssign (pointer)
;	isBitvar = 0
	ld	l,e
	ld	h,d
	ld	(hl),c
	inc	hl
	ld	(hl),b
;carwar.c:328: curPly->rot &= 0x0F;
;	genAnd
	ld	a,c
	and	a,#0x0F
	ld	c,a
	ld	b,#0x00
;	genAssign (pointer)
;	isBitvar = 0
	ld	l,e
	ld	h,d
	ld	(hl),c
	inc	hl
	ld	(hl),b
;carwar.c:329: break;
;	genGoto
	jr	00128$
;carwar.c:330: case 6: // down-left
;	genLabel
00125$:
;carwar.c:331: case 7: // left
;	genLabel
00126$:
;carwar.c:332: case 8:// up-left
;	genLabel
00127$:
;carwar.c:333: curPly->rot++; 
;	genPlus
;	AOP_STK for _MainLoop_curPly_1_1
;	genPlusIncr
	ld	a,-68(ix)
	add	a,#0x09
	ld	e,a
	ld	a,-67(ix)
	adc	a,#0x00
	ld	d,a
;	genPointerGet
	ld	l,e
	ld	h,d
	ld	c,(hl)
	inc	hl
	ld	b,(hl)
;	genPlus
;	genPlusIncr
	inc	bc
;	genAssign (pointer)
;	isBitvar = 0
	ld	l,e
	ld	h,d
	ld	(hl),c
	inc	hl
	ld	(hl),b
;carwar.c:334: curPly->rot &= 0x0F;
;	genAnd
	ld	a,c
	and	a,#0x0F
	ld	c,a
	ld	b,#0x00
;	genAssign (pointer)
;	isBitvar = 0
	ld	l,e
	ld	h,d
	ld	(hl),c
	inc	hl
	ld	(hl),b
;carwar.c:336: }
;	genLabel
00128$:
;carwar.c:337: if(Joytrig(2) != 0) // Joy 2 Button A
;	genIpush
; _saveRegsForCall: sendSetSize: 0 deInUse: 0 bcInUse: 0 deSending: 0
	ld	a,#0x02
	push	af
	inc	sp
;	genCall
	call	_Joytrig
	ld	c,l
	inc	sp
;	genIfx
	xor	a,a
	or	a,c
	jp	Z,00161$
;carwar.c:339: curPly->dX = g_Cosinus[curPly->rot];
;	genPlus
;	AOP_STK for _MainLoop_curPly_1_1
;	genPlusIncr
	ld	a,-68(ix)
	add	a,#0x0B
	ld	e,a
	ld	a,-67(ix)
	adc	a,#0x00
	ld	d,a
;	genPlus
;	AOP_STK for _MainLoop_curPly_1_1
;	genPlusIncr
	ld	a,-68(ix)
	add	a,#0x09
	ld	c,a
	ld	a,-67(ix)
	adc	a,#0x00
	ld	b,a
;	genPointerGet
	ld	l,c
	ld	h,b
	ld	c,(hl)
	inc	hl
	ld	b,(hl)
;	genLeftShift
;	AOP_STK for _MainLoop_sloc25_1_0
	ld	-118(ix),c
	ld	-117(ix),b
	sla	-118(ix)
	rl	-117(ix)
;	genPlus
;	AOP_STK for _MainLoop_sloc25_1_0
	ld	a,#<_g_Cosinus
	add	a,-118(ix)
	ld	c,a
	ld	a,#>_g_Cosinus
	adc	a,-117(ix)
	ld	b,a
;	genPointerGet
	ld	l,c
	ld	h,b
	ld	c,(hl)
	inc	hl
	ld	b,(hl)
;	genAssign (pointer)
;	isBitvar = 0
	ld	l,e
	ld	h,d
	ld	(hl),c
	inc	hl
	ld	(hl),b
;carwar.c:340: curPly->dY = g_Sinus[curPly->rot];
;	genPlus
;	AOP_STK for _MainLoop_curPly_1_1
;	genPlusIncr
	ld	a,-68(ix)
	add	a,#0x0D
	ld	e,a
	ld	a,-67(ix)
	adc	a,#0x00
	ld	d,a
;	genPlus
;	AOP_STK for _MainLoop_sloc25_1_0
	ld	a,#<_g_Sinus
	add	a,-118(ix)
	ld	c,a
	ld	a,#>_g_Sinus
	adc	a,-117(ix)
	ld	b,a
;	genPointerGet
	ld	l,c
	ld	h,b
	ld	c,(hl)
	inc	hl
	ld	b,(hl)
;	genAssign (pointer)
;	isBitvar = 0
	ld	l,e
	ld	h,d
	ld	(hl),c
	inc	hl
	ld	(hl),b
;carwar.c:341: curPly->speed += 2;
;	genPlus
;	AOP_STK for _MainLoop_curPly_1_1
;	genPlusIncr
	ld	a,-68(ix)
	add	a,#0x0F
	ld	b,a
	ld	a,-67(ix)
	adc	a,#0x00
	ld	e,a
;	genPointerGet
	ld	l,b
	ld	h,e
	ld	c,(hl)
;	genPlus
;	genPlusIncr
	ld	a,c
	add	a,#0x02
;	genAssign (pointer)
;	isBitvar = 0
	ld	l,b
	ld	h,e
	ld	(hl),a
;carwar.c:346: for(i=0; i<4; i++)
;	genLabel
00161$:
;	genAssign
;	AOP_STK for _MainLoop_i_1_1
	ld	-1(ix),#0x00
;	genLabel
00139$:
;	genCmpLt
;	AOP_STK for _MainLoop_i_1_1
	ld	a,-1(ix)
	sub	a,#0x04
	jp	P,00142$
;carwar.c:348: curPly = &ply[i];
;	genLeftShift
;	AOP_STK for _MainLoop_i_1_1
	ld	a,-1(ix)
	rlca
	rlca
	rlca
	rlca
	and	a,#0xF0
;	genPlus
;	AOP_STK for _MainLoop_sloc27_1_0
	add	a,-122(ix)
	ld	b,a
	ld	a,-121(ix)
	adc	a,#0x00
	ld	c,a
;	genAssign
;	AOP_STK for _MainLoop_curPly_1_1
	ld	-68(ix),b
	ld	-67(ix),c
;carwar.c:350: curPly->speed--;
;	genPlus
;	AOP_STK for _MainLoop_curPly_1_1
;	genPlusIncr
	ld	a,-68(ix)
	add	a,#0x0F
	ld	c,a
	ld	a,-67(ix)
	adc	a,#0x00
	ld	b,a
;	genPointerGet
	ld	a,(bc)
	ld	e,a
;	genMinus
	dec	e
;	genAssign (pointer)
;	isBitvar = 0
	ld	a,e
	ld	(bc),a
;carwar.c:351: if(curPly->speed < 0)
;	genCmpLt
	ld	a,e
	bit	7,a
	jr	Z,00134$
;carwar.c:352: curPly->speed = 0;
;	genAssign (pointer)
;	isBitvar = 0
	ld	a,#0x00
	ld	(bc),a
;	genGoto
	jr	00135$
;	genLabel
00134$:
;carwar.c:353: else if(curPly->speed > 10)
;	genPointerGet
	ld	a,(bc)
	ld	e,a
;	genCmpGt
;carwar.c:354: curPly->speed = 10;
;	genAssign (pointer)
;	isBitvar = 0
	ld	a,#0x0A
	cp	a,e
	jp	P,00135$
	ld	(bc),a
;	genLabel
00135$:
;carwar.c:357: curPly->prevX = curPly->posX;
;	genPlus
;	AOP_STK for _MainLoop_curPly_1_1
;	genPlusIncr
	ld	a,-68(ix)
	add	a,#0x05
	ld	c,a
	ld	a,-67(ix)
	adc	a,#0x00
	ld	b,a
;	genPlus
;	AOP_STK for _MainLoop_curPly_1_1
;	genPlusIncr
	ld	e,-68(ix)
	ld	d,-67(ix)
	inc	de
;	genPointerGet
;	AOP_STK for _MainLoop_sloc25_1_0
	ld	l,e
	ld	h,d
	ld	a,(hl)
	ld	-118(ix),a
	inc	hl
	ld	a,(hl)
	ld	-117(ix),a
;	genAssign (pointer)
;	AOP_STK for _MainLoop_sloc25_1_0
;	isBitvar = 0
	ld	l,c
	ld	h,b
	ld	a,-118(ix)
	ld	(hl),a
	inc	hl
	ld	a,-117(ix)
	ld	(hl),a
;carwar.c:358: curPly->prevY = curPly->posY;
;	genPlus
;	AOP_STK for _MainLoop_curPly_1_1
;	genPlusIncr
	ld	a,-68(ix)
	add	a,#0x07
	ld	c,a
	ld	a,-67(ix)
	adc	a,#0x00
	ld	b,a
;	genPlus
;	AOP_STK for _MainLoop_curPly_1_1
;	AOP_STK for _MainLoop_sloc28_1_0
;	genPlusIncr
	ld	a,-68(ix)
	add	a,#0x03
	ld	-124(ix),a
	ld	a,-67(ix)
	adc	a,#0x00
	ld	-123(ix),a
;	genPointerGet
;	AOP_STK for _MainLoop_sloc28_1_0
;	AOP_STK for _MainLoop_sloc29_1_0
	ld	l,-124(ix)
	ld	h,-123(ix)
	ld	a,(hl)
	ld	-126(ix),a
	inc	hl
	ld	a,(hl)
	ld	-125(ix),a
;	genAssign (pointer)
;	AOP_STK for _MainLoop_sloc29_1_0
;	isBitvar = 0
	ld	l,c
	ld	h,b
	ld	a,-126(ix)
	ld	(hl),a
	inc	hl
	ld	a,-125(ix)
	ld	(hl),a
;carwar.c:359: curPly->posX += curPly->speed * curPly->dX;
;	genPlus
;	AOP_STK for _MainLoop_curPly_1_1
;	genPlusIncr
	ld	a,-68(ix)
	add	a,#0x0F
	ld	c,a
	ld	a,-67(ix)
	adc	a,#0x00
	ld	b,a
;	genPointerGet
;	AOP_STK for _MainLoop_sloc26_1_0
	ld	a,(bc)
	ld	-120(ix),a
;	genPlus
;	AOP_STK for _MainLoop_curPly_1_1
;	genPlusIncr
	ld	a,-68(ix)
	add	a,#0x0B
	ld	b,a
	ld	a,-67(ix)
	adc	a,#0x00
	ld	c,a
;	genPointerGet
	ld	l,b
	ld	h,c
	ld	b,(hl)
	inc	hl
	ld	c,(hl)
;	genCast
;	AOP_STK for _MainLoop_sloc26_1_0
;	AOP_STK for _MainLoop_sloc26_1_0
	ld	a,-120(ix)
	ld	-120(ix),a
	ld	a,-120(ix)
	rla	
	sbc	a,a
	ld	-119(ix),a
;	genIpush
; _saveRegsForCall: sendSetSize: 0 deInUse: 1 bcInUse: 0 deSending: 0
	push	de
	ld	l,b
	ld	h,c
	push	hl
;	genIpush
;	AOP_STK for _MainLoop_sloc26_1_0
	ld	l,-120(ix)
	ld	h,-119(ix)
	push	hl
;	genCall
	call	__mulint_rrx_s
	ld	b,h
	ld	c,l
	pop	af
	pop	af
	pop	de
;	genPlus
;	AOP_STK for _MainLoop_sloc25_1_0
	ld	a,-118(ix)
	add	a,c
	ld	c,a
	ld	a,-117(ix)
	adc	a,b
	ld	b,a
;	genAssign (pointer)
;	isBitvar = 0
	ld	l,e
	ld	h,d
	ld	(hl),c
	inc	hl
	ld	(hl),b
;carwar.c:360: curPly->posY -= curPly->speed * curPly->dY;
;	genPlus
;	AOP_STK for _MainLoop_curPly_1_1
;	genPlusIncr
	ld	a,-68(ix)
	add	a,#0x0D
	ld	c,a
	ld	a,-67(ix)
	adc	a,#0x00
	ld	b,a
;	genPointerGet
	ld	l,c
	ld	h,b
	ld	c,(hl)
	inc	hl
	ld	b,(hl)
;	genIpush
; _saveRegsForCall: sendSetSize: 0 deInUse: 0 bcInUse: 0 deSending: 0
	push	bc
;	genIpush
;	AOP_STK for _MainLoop_sloc26_1_0
	ld	l,-120(ix)
	ld	h,-119(ix)
	push	hl
;	genCall
	call	__mulint_rrx_s
	ld	b,h
	ld	c,l
	pop	af
	pop	af
;	genMinus
;	AOP_STK for _MainLoop_sloc29_1_0
	ld	a,-126(ix)
	sub	a,c
	ld	c,a
	ld	a,-125(ix)
	sbc	a,b
	ld	b,a
;	genAssign (pointer)
;	AOP_STK for _MainLoop_sloc28_1_0
;	isBitvar = 0
	ld	l,-124(ix)
	ld	h,-123(ix)
	ld	(hl),c
	inc	hl
	ld	(hl),b
;carwar.c:346: for(i=0; i<4; i++)
;	genPlus
;	AOP_STK for _MainLoop_i_1_1
;	genPlusIncr
	inc	-1(ix)
;	genGoto
	jp	00139$
;	genLabel
00142$:
;carwar.c:373: RAMtoVRAMTrans(page, ScrPosX(ply[0].posX), ScrPosY(ply[0].posY), 13, 11, (u16)&car1[ply[0].rot * 13 * 11]);
;	genPointerGet
;	AOP_STK for _MainLoop_sloc14_1_0
	ld	l,-98(ix)
	ld	h,-97(ix)
	ld	c,(hl)
	inc	hl
	ld	b,(hl)
;	genMult
	ld	e,c
	ld	d,b
	ld	l,e
	ld	h,d
	add	hl,hl
	add	hl,hl
	add	hl,hl
	add	hl,hl
	add	hl,de
	add	hl,hl
	add	hl,de
	add	hl,hl
	add	hl,de
	add	hl,hl
	add	hl,de
	ld	c,l
	ld	b,h
;	genPlus
	ld	hl,#_car1
	add	hl,bc
	ld	c,l
	ld	b,h
;	genCast
;	genPointerGet
;	AOP_STK for _MainLoop_sloc15_1_0
	ld	l,-100(ix)
	ld	h,-99(ix)
	ld	e,(hl)
	inc	hl
	ld	d,(hl)
;	genRightShift
	ld	e,d
	ld	d,#0x00
;	genCast
;	genMinus
;	AOP_STK for _MainLoop_sloc30_1_0
	ld	a,e
	add	a,#0xFB
	ld	-128(ix),a
;	genPointerGet
;	AOP_STK for _MainLoop_sloc16_1_0
	ld	l,-102(ix)
	ld	h,-101(ix)
	ld	d,(hl)
	inc	hl
	ld	e,(hl)
;	genRightShift
	ld	d,e
	ld	e,#0x00
;	genCast
;	genMinus
	ld	a,d
	add	a,#0xFA
	ld	d,a
;	genIpush
; _saveRegsForCall: sendSetSize: 0 deInUse: 0 bcInUse: 0 deSending: 0
	push	bc
;	genIpush
	ld	hl,#0x0B0D
	push	hl
;	genIpush
;	AOP_STK for _MainLoop_sloc30_1_0
	ld	a,-128(ix)
	push	af
	inc	sp
;	genIpush
	push	de
	inc	sp
;	genIpush
;	AOP_STK for _MainLoop_page_1_1
	ld	a,-2(ix)
	push	af
	inc	sp
;	genCall
	call	_RAMtoVRAMTrans
	pop	af
	pop	af
	pop	af
	inc	sp
;carwar.c:374: RAMtoVRAMTrans(page, ScrPosX(ply[1].posX), ScrPosY(ply[1].posY), 13, 11, (u16)&car2[ply[1].rot * 13 * 11]);
;	genPointerGet
;	AOP_STK for _MainLoop_sloc17_1_0
	ld	l,-104(ix)
	ld	h,-103(ix)
	ld	c,(hl)
	inc	hl
	ld	b,(hl)
;	genMult
	ld	e,c
	ld	d,b
	ld	l,e
	ld	h,d
	add	hl,hl
	add	hl,hl
	add	hl,hl
	add	hl,hl
	add	hl,de
	add	hl,hl
	add	hl,de
	add	hl,hl
	add	hl,de
	add	hl,hl
	add	hl,de
	ld	c,l
	ld	b,h
;	genPlus
	ld	hl,#_car2
	add	hl,bc
	ld	c,l
	ld	b,h
;	genCast
;	genPointerGet
;	AOP_STK for _MainLoop_sloc18_1_0
	ld	l,-106(ix)
	ld	h,-105(ix)
	ld	e,(hl)
	inc	hl
	ld	d,(hl)
;	genRightShift
	ld	e,d
	ld	d,#0x00
;	genCast
;	genMinus
;	AOP_STK for _MainLoop_sloc30_1_0
	ld	a,e
	add	a,#0xFB
	ld	-128(ix),a
;	genPointerGet
;	AOP_STK for _MainLoop_sloc4_1_0
	ld	l,-78(ix)
	ld	h,-77(ix)
	ld	d,(hl)
	inc	hl
	ld	e,(hl)
;	genRightShift
	ld	d,e
	ld	e,#0x00
;	genCast
;	genMinus
	ld	a,d
	add	a,#0xFA
	ld	d,a
;	genIpush
; _saveRegsForCall: sendSetSize: 0 deInUse: 0 bcInUse: 0 deSending: 0
	push	bc
;	genIpush
	ld	hl,#0x0B0D
	push	hl
;	genIpush
;	AOP_STK for _MainLoop_sloc30_1_0
	ld	a,-128(ix)
	push	af
	inc	sp
;	genIpush
	push	de
	inc	sp
;	genIpush
;	AOP_STK for _MainLoop_page_1_1
	ld	a,-2(ix)
	push	af
	inc	sp
;	genCall
	call	_RAMtoVRAMTrans
	pop	af
	pop	af
	pop	af
	inc	sp
;carwar.c:375: RAMtoVRAMTrans(page, ScrPosX(ply[2].posX), ScrPosY(ply[2].posY), 13, 11, (u16)&car3[ply[2].rot * 13 * 11]);
;	genPointerGet
;	AOP_STK for _MainLoop_sloc19_1_0
	ld	l,-108(ix)
	ld	h,-107(ix)
	ld	c,(hl)
	inc	hl
	ld	b,(hl)
;	genMult
	ld	e,c
	ld	d,b
	ld	l,e
	ld	h,d
	add	hl,hl
	add	hl,hl
	add	hl,hl
	add	hl,hl
	add	hl,de
	add	hl,hl
	add	hl,de
	add	hl,hl
	add	hl,de
	add	hl,hl
	add	hl,de
	ld	c,l
	ld	b,h
;	genPlus
	ld	hl,#_car3
	add	hl,bc
	ld	c,l
	ld	b,h
;	genCast
;	genPointerGet
;	AOP_STK for _MainLoop_sloc20_1_0
	ld	l,-110(ix)
	ld	h,-109(ix)
	ld	e,(hl)
	inc	hl
	ld	d,(hl)
;	genRightShift
	ld	e,d
	ld	d,#0x00
;	genCast
;	genMinus
;	AOP_STK for _MainLoop_sloc30_1_0
	ld	a,e
	add	a,#0xFB
	ld	-128(ix),a
;	genPointerGet
;	AOP_STK for _MainLoop_sloc7_1_0
	ld	l,-84(ix)
	ld	h,-83(ix)
	ld	d,(hl)
	inc	hl
	ld	e,(hl)
;	genRightShift
	ld	d,e
	ld	e,#0x00
;	genCast
;	genMinus
	ld	a,d
	add	a,#0xFA
	ld	d,a
;	genIpush
; _saveRegsForCall: sendSetSize: 0 deInUse: 0 bcInUse: 0 deSending: 0
	push	bc
;	genIpush
	ld	hl,#0x0B0D
	push	hl
;	genIpush
;	AOP_STK for _MainLoop_sloc30_1_0
	ld	a,-128(ix)
	push	af
	inc	sp
;	genIpush
	push	de
	inc	sp
;	genIpush
;	AOP_STK for _MainLoop_page_1_1
	ld	a,-2(ix)
	push	af
	inc	sp
;	genCall
	call	_RAMtoVRAMTrans
	pop	af
	pop	af
	pop	af
	inc	sp
;carwar.c:376: RAMtoVRAMTrans(page, ScrPosX(ply[3].posX), ScrPosY(ply[3].posY), 13, 11, (u16)&car4[ply[3].rot * 13 * 11]);
;	genPointerGet
;	AOP_STK for _MainLoop_sloc21_1_0
	ld	l,-112(ix)
	ld	h,-111(ix)
	ld	c,(hl)
	inc	hl
	ld	b,(hl)
;	genMult
	ld	e,c
	ld	d,b
	ld	l,e
	ld	h,d
	add	hl,hl
	add	hl,hl
	add	hl,hl
	add	hl,hl
	add	hl,de
	add	hl,hl
	add	hl,de
	add	hl,hl
	add	hl,de
	add	hl,hl
	add	hl,de
	ld	c,l
	ld	b,h
;	genPlus
	ld	hl,#_car4
	add	hl,bc
	ld	c,l
	ld	b,h
;	genCast
;	genPointerGet
;	AOP_STK for _MainLoop_sloc22_1_0
	ld	l,-114(ix)
	ld	h,-113(ix)
	ld	e,(hl)
	inc	hl
	ld	d,(hl)
;	genRightShift
	ld	e,d
	ld	d,#0x00
;	genCast
;	genMinus
;	AOP_STK for _MainLoop_sloc30_1_0
	ld	a,e
	add	a,#0xFB
	ld	-128(ix),a
;	genPointerGet
;	AOP_STK for _MainLoop_sloc23_1_0
	ld	l,-116(ix)
	ld	h,-115(ix)
	ld	d,(hl)
	inc	hl
	ld	e,(hl)
;	genRightShift
	ld	d,e
	ld	e,#0x00
;	genCast
;	genMinus
	ld	a,d
	add	a,#0xFA
	ld	d,a
;	genIpush
; _saveRegsForCall: sendSetSize: 0 deInUse: 0 bcInUse: 0 deSending: 0
	push	bc
;	genIpush
	ld	hl,#0x0B0D
	push	hl
;	genIpush
;	AOP_STK for _MainLoop_sloc30_1_0
	ld	a,-128(ix)
	push	af
	inc	sp
;	genIpush
	push	de
	inc	sp
;	genIpush
;	AOP_STK for _MainLoop_page_1_1
	ld	a,-2(ix)
	push	af
	inc	sp
;	genCall
	call	_RAMtoVRAMTrans
	pop	af
	pop	af
	pop	af
	inc	sp
;carwar.c:378: waitRetrace();
;	genCall
; _saveRegsForCall: sendSetSize: 0 deInUse: 0 bcInUse: 0 deSending: 0
	call	_waitRetrace
;	genGoto
	jp	00136$
;	genLabel
;	genEndFunction
	ld	sp,ix
	pop	ix
	ret
_MainLoop_end::
;carwar.c:387: void InitializePlayer(Player* ply, u8 car, u8 posX, u8 posY)
;	genLabel
;	genFunction
;	---------------------------------
; Function InitializePlayer
; ---------------------------------
_InitializePlayer_start::
_InitializePlayer:
	push	ix
	ld	ix,#0
	add	ix,sp
	ld	hl,#-6
	add	hl,sp
	ld	sp,hl
;carwar.c:389: ply->car = car; // car index
;	genAssign
;	AOP_STK for 
	ld	c,4(ix)
	ld	b,5(ix)
;	genAssign (pointer)
;	AOP_STK for 
;	isBitvar = 0
	ld	a,6(ix)
	ld	(bc),a
;carwar.c:390: ply->posX = posX << 8; // position X
;	genPlus
;	AOP_STK for _InitializePlayer_sloc0_1_0
;	genPlusIncr
	ld	a,c
	add	a,#0x01
	ld	-2(ix),a
	ld	a,b
	adc	a,#0x00
	ld	-1(ix),a
;	genCast
;	AOP_STK for 
	ld	e,7(ix)
	ld	d,#0x00
;	genLeftShift
;	AOP_STK for _InitializePlayer_sloc1_1_0
	ld	-3(ix),e
	ld	-4(ix),#0x00
;	genAssign (pointer)
;	AOP_STK for _InitializePlayer_sloc0_1_0
;	AOP_STK for _InitializePlayer_sloc1_1_0
;	isBitvar = 0
	ld	l,-2(ix)
	ld	h,-1(ix)
	ld	a,-4(ix)
	ld	(hl),a
	inc	hl
	ld	a,-3(ix)
	ld	(hl),a
;carwar.c:391: ply->posY = posY << 8; // position Y
;	genPlus
;	AOP_STK for _InitializePlayer_sloc0_1_0
;	genPlusIncr
	ld	a,c
	add	a,#0x03
	ld	-2(ix),a
	ld	a,b
	adc	a,#0x00
	ld	-1(ix),a
;	genCast
;	AOP_STK for 
	ld	e,8(ix)
	ld	d,#0x00
;	genLeftShift
;	AOP_STK for _InitializePlayer_sloc2_1_0
	ld	-5(ix),e
	ld	-6(ix),#0x00
;	genAssign (pointer)
;	AOP_STK for _InitializePlayer_sloc0_1_0
;	AOP_STK for _InitializePlayer_sloc2_1_0
;	isBitvar = 0
	ld	l,-2(ix)
	ld	h,-1(ix)
	ld	a,-6(ix)
	ld	(hl),a
	inc	hl
	ld	a,-5(ix)
	ld	(hl),a
;carwar.c:392: ply->prevX = posX << 8; // previous position X
;	genPlus
;	genPlusIncr
	ld	a,c
	add	a,#0x05
	ld	e,a
	ld	a,b
	adc	a,#0x00
	ld	d,a
;	genAssign (pointer)
;	AOP_STK for _InitializePlayer_sloc1_1_0
;	isBitvar = 0
	ld	l,e
	ld	h,d
	ld	a,-4(ix)
	ld	(hl),a
	inc	hl
	ld	a,-3(ix)
	ld	(hl),a
;carwar.c:393: ply->prevY = posY << 8; // previous position Y
;	genPlus
;	genPlusIncr
	ld	a,c
	add	a,#0x07
	ld	e,a
	ld	a,b
	adc	a,#0x00
	ld	d,a
;	genAssign (pointer)
;	AOP_STK for _InitializePlayer_sloc2_1_0
;	isBitvar = 0
	ld	l,e
	ld	h,d
	ld	a,-6(ix)
	ld	(hl),a
	inc	hl
	ld	a,-5(ix)
	ld	(hl),a
;carwar.c:394: ply->rot = 0; // rotation
;	genPlus
;	genPlusIncr
	ld	a,c
	add	a,#0x09
	ld	e,a
	ld	a,b
	adc	a,#0x00
	ld	d,a
;	genAssign (pointer)
;	isBitvar = 0
	ld	l,e
	ld	h,d
	ld	(hl),#0x00
	inc	hl
	ld	(hl),#0x00
;carwar.c:395: ply->dX = 0; // velocity X
;	genPlus
;	genPlusIncr
	ld	a,c
	add	a,#0x0B
	ld	e,a
	ld	a,b
	adc	a,#0x00
	ld	d,a
;	genAssign (pointer)
;	isBitvar = 0
	ld	l,e
	ld	h,d
	ld	(hl),#0x00
	inc	hl
	ld	(hl),#0x00
;carwar.c:396: ply->dY = 0; // velocity Y
;	genPlus
;	genPlusIncr
	ld	a,c
	add	a,#0x0D
	ld	e,a
	ld	a,b
	adc	a,#0x00
	ld	d,a
;	genAssign (pointer)
;	isBitvar = 0
	ld	l,e
	ld	h,d
	ld	(hl),#0x00
	inc	hl
	ld	(hl),#0x00
;carwar.c:397: ply->speed = 0;
;	genPlus
;	genPlusIncr
	ld	a,c
	add	a,#0x0F
	ld	c,a
	ld	a,b
	adc	a,#0x00
	ld	b,a
;	genAssign (pointer)
;	isBitvar = 0
	ld	a,#0x00
	ld	(bc),a
;	genLabel
;	genEndFunction
	ld	sp,ix
	pop	ix
	ret
_InitializePlayer_end::
;carwar.c:540: void SetScreen8()
;	genLabel
;	genFunction
;	---------------------------------
; Function SetScreen8
; ---------------------------------
_SetScreen8_start::
_SetScreen8:
;carwar.c:576: _endasm;
;	genInline
	
	
	
	
		 ld a,(#0xF3DF)
		 set #3,a
		 set #2,a
		 set #1,a
		 ld (#0xF3DF),a
	
		 di
	
		 out (#0x99),a
		 ld a,#(0x80+0)
		 out (#0x99),a
	
	
		 ld a,(#0xF3E0)
		 res #4,a
		 res #3,a
		 ld (#0xF3E0),a
	
		 out (#0x99),a
		 ld a,#(0x80+1)
		 out (#0x99),a
	
	
		 ld a,#0x1F
		 out (#0x99),a
		 ld a,#(0x80+2)
		 out (#0x99),a
	
		 ei
	
		
;	genLabel
;	genEndFunction
	ret
_SetScreen8_end::
;carwar.c:582: void SetPage8(i8 page)
;	genLabel
;	genFunction
;	---------------------------------
; Function SetPage8
; ---------------------------------
_SetPage8_start::
_SetPage8:
	push	ix
	ld	ix,#0
	add	ix,sp
;carwar.c:599: _endasm;
;	genInline
	
	
		 ld a,4(ix)
		 ;
		 ;
		 ;
		 or #0x1F
		 di
		 out (#0x99),a
		 ld a,#(0x80+2)
		 out (#0x99),a
		 ei
	
		
;	genLabel
;	genEndFunction
	pop	ix
	ret
_SetPage8_end::
;carwar.c:605: void DrawPoint8(char posX, char posY, char color)
;	genLabel
;	genFunction
;	---------------------------------
; Function DrawPoint8
; ---------------------------------
_DrawPoint8_start::
_DrawPoint8:
	push	ix
	ld	ix,#0
	add	ix,sp
;carwar.c:609: WaitForVDP();
;	genCall
; _saveRegsForCall: sendSetSize: 0 deInUse: 0 bcInUse: 0 deSending: 0
	call	_WaitForVDP
;carwar.c:657: _endasm;
;	genInline
	
	
	
	
		 ld a,4(ix)
		 di
		 out (#0x99),a
		 ld a,#(0x80+36)
		 out (#0x99),a
	
		 xor a
		 out (#0x99),a
		 ld a,#(0x80+37)
		 out (#0x99),a
	
	
		 ld a,5(ix)
		 out (#0x99),a
		 ld a,#(0x80+38)
		 out (#0x99),a
	
		 xor a
		 out (#0x99),a
		 ld a,#(0x80+39)
		 out (#0x99),a
	
	
		 ld a,6(ix)
		 out (#0x99),a
		 ld a,#(0x80+44)
		 out (#0x99),a
	
	
		 xor a
		 out (#0x99),a
		 ld a,#(0x80+45)
		 out (#0x99),a
	
	
		 ld a,#0x50
		 out (#0x99),a
		 ld a,#(0x80+46)
		 out (#0x99),a
	
		 ei
	
		
;	genLabel
;	genEndFunction
	pop	ix
	ret
_DrawPoint8_end::
;carwar.c:759: void DrawLine8(char posX1, char posY1, char posX2, char posY2, char color)
;	genLabel
;	genFunction
;	---------------------------------
; Function DrawLine8
; ---------------------------------
_DrawLine8_start::
_DrawLine8:
	push	ix
	ld	ix,#0
	add	ix,sp
;carwar.c:763: WaitForVDP();
;	genCall
; _saveRegsForCall: sendSetSize: 0 deInUse: 0 bcInUse: 0 deSending: 0
;	genLabel
;	genEndFunction
	pop	ix
	jp	_WaitForVDP
_DrawLine8_end::
;carwar.c:897: void waitRetrace()
;	genLabel
;	genFunction
;	---------------------------------
; Function waitRetrace
; ---------------------------------
_waitRetrace_start::
_waitRetrace:
;carwar.c:909: _endasm;
;	genInline
	
	
		 di
	 WAIT_RETRACE:
		 in a,(0x99)
		 and #0x80
		 cp #0
		 jr z, WAIT_RETRACE
		 ei
	
		
;	genLabel
;	genEndFunction
	ret
_waitRetrace_end::
;carwar.c:915: void WaitForVDP()
;	genLabel
;	genFunction
;	---------------------------------
; Function WaitForVDP
; ---------------------------------
_WaitForVDP_start::
_WaitForVDP:
;carwar.c:936: _endasm;
;	genInline
	
	
	
		 ld a,#2
		 di
		 out (#0x99),a
		 ld a,#(0x80+15)
		 out (#0x99),a
	 WAIT_VDP:
		 nop
		 in a,(#0x99)
		 rra
		 jr c,WAIT_VDP
		 xor a
		 out (#0x99),a
		 ld a,#(0x80+15)
		 out (#0x99),a
		 ei
	
		
;	genLabel
;	genEndFunction
	ret
_WaitForVDP_end::
;carwar.c:940: char Joystick(char n)
;	genLabel
;	genFunction
;	---------------------------------
; Function Joystick
; ---------------------------------
_Joystick_start::
_Joystick:
	push	ix
	ld	ix,#0
	add	ix,sp
;carwar.c:947: _endasm;
;	genInline
	
		 ld a,4(ix)
		 call 0x00d5
		 ld l,a
		
;	genLabel
;	genEndFunction
	pop	ix
	ret
_Joystick_end::
;carwar.c:951: char Joytrig(char n)
;	genLabel
;	genFunction
;	---------------------------------
; Function Joytrig
; ---------------------------------
_Joytrig_start::
_Joytrig:
	push	ix
	ld	ix,#0
	add	ix,sp
;carwar.c:959: _endasm;
;	genInline
	
		 ld a,4(ix)
		 call 0x00d8
		 ld h,#0x00
		 ld l,a
		
;	genLabel
;	genEndFunction
	pop	ix
	ret
_Joytrig_end::
;carwar.c:963: u8 GetKeyMatrixLine(u8 n)
;	genLabel
;	genFunction
;	---------------------------------
; Function GetKeyMatrixLine
; ---------------------------------
_GetKeyMatrixLine_start::
_GetKeyMatrixLine:
	push	ix
	ld	ix,#0
	add	ix,sp
;carwar.c:970: _endasm;
;	genInline
	
		 ld a,4(ix)
		 call 0x0141
		 ld l,a
		
;	genLabel
;	genEndFunction
	pop	ix
	ret
_GetKeyMatrixLine_end::
;carwar.c:973: void SetTo50Hz()
;	genLabel
;	genFunction
;	---------------------------------
; Function SetTo50Hz
; ---------------------------------
_SetTo50Hz_start::
_SetTo50Hz:
;carwar.c:975: WaitForVDP();
;	genCall
; _saveRegsForCall: sendSetSize: 0 deInUse: 0 bcInUse: 0 deSending: 0
	call	_WaitForVDP
;carwar.c:987: _endasm;
;	genInline
	
	
		 ld a,#2
		 di
		 out (#0x99),a ;
	
		 ld a,#(0x80+9)
		 out (#0x99),a ;
	
		 ei
		
;	genLabel
;	genEndFunction
	ret
_SetTo50Hz_end::
;carwar.c:990: void SetTo60Hz()
;	genLabel
;	genFunction
;	---------------------------------
; Function SetTo60Hz
; ---------------------------------
_SetTo60Hz_start::
_SetTo60Hz:
;carwar.c:992: WaitForVDP();
;	genCall
; _saveRegsForCall: sendSetSize: 0 deInUse: 0 bcInUse: 0 deSending: 0
	call	_WaitForVDP
;carwar.c:1004: _endasm;
;	genInline
	
	
		 ld a,#0
		 di
		 out (#0x99),a ;
	
		 ld a,#(0x80+9)
		 out (#0x99),a ;
	
		 ei
		
;	genLabel
;	genEndFunction
	ret
_SetTo60Hz_end::
;carwar.c:1010: void WriteToVRAM8(i16 addr, u8 value)
;	genLabel
;	genFunction
;	---------------------------------
; Function WriteToVRAM8
; ---------------------------------
_WriteToVRAM8_start::
_WriteToVRAM8:
	push	ix
	ld	ix,#0
	add	ix,sp
;carwar.c:1014: WaitForVDP();
;	genCall
; _saveRegsForCall: sendSetSize: 0 deInUse: 0 bcInUse: 0 deSending: 0
	call	_WaitForVDP
;carwar.c:1041: _endasm;
;	genInline
	
		 ;
		 ld a,5(ix) ;
		 and #0xC0 ;
		       rla
		       rla
		 di
		 out (#0x99),a
		 ld a,#(0x80+14)
		 out (#0x99),a
	
		 ld a,4(ix) ;
		 out (#0x99),a
	
		 ld a,5(ix) ;
		 and #0x3F ;
		 or #0x40 ;
		 out (#0x99),a
	
		 ;
		 ld a,6(ix)
		 out (#0x98),a
	
		 ei
		
;	genLabel
;	genEndFunction
	pop	ix
	ret
_WriteToVRAM8_end::
;carwar.c:1153: void VPDCommandLoop(u16 address)
;	genLabel
;	genFunction
;	---------------------------------
; Function VPDCommandLoop
; ---------------------------------
_VPDCommandLoop_start::
_VPDCommandLoop:
	push	ix
	ld	ix,#0
	add	ix,sp
;carwar.c:1208: _endasm;
;	genInline
	
	
		 ld l,4(ix)
		 ld h,5(ix)
	
		 di
	
	 SEND_NEXT_COLOR:
	
		 inc hl
	
		 ;
		 ;
		 ld a,(hl)
		 out (#0x99),a
		 ld a,#(0x80+44)
		 out (#0x99),a
	
	 WAIT_REG2:
	
		 ;
		 ;
		 ld a,#2
		 out (#0x99),a
		 ld a,#(0x80+15)
		 out (#0x99),a
	
		 ;
		 nop
		 in a,(#0x99)
		 ld b,a ;
		 rra ;
		 jr nc,COLOR_COPY_END
	
		 ;
		 ;
		 ld a,b ;
		 rla ;
		 jr nc,WAIT_REG2
		 jp SEND_NEXT_COLOR
	
	 COLOR_COPY_END:
	
		 ;
		 xor a
		 out (#0x99),a
		 ld a,#(0x80+15)
		 out (#0x99),a
	
		 ei
	
		
;	genLabel
;	genEndFunction
	pop	ix
	ret
_VPDCommandLoop_end::
;carwar.c:1211: void RAMtoVRAM(u8 page, u8 dx, u8 dy, u8 nx, u8 ny, u16 ram)
;	genLabel
;	genFunction
;	---------------------------------
; Function RAMtoVRAM
; ---------------------------------
_RAMtoVRAM_start::
_RAMtoVRAM:
	push	ix
	ld	ix,#0
	add	ix,sp
	ld	hl,#-15
	add	hl,sp
	ld	sp,hl
;carwar.c:1217: buffer.DX = dx;
;	genAddrOf
	ld	hl,#0x0004
	add	hl,sp
	ld	c,l
	ld	b,h
;	genCast
;	AOP_STK for 
	ld	e,5(ix)
	ld	d,#0x00
;	genAssign (pointer)
;	isBitvar = 0
	ld	l,c
	ld	h,b
	ld	(hl),e
	inc	hl
	ld	(hl),d
;carwar.c:1218: buffer.DY = dy + ((u16)page << 8);
;	genAddrOf
	ld	hl,#0x0004
	add	hl,sp
	ld	c,l
	ld	b,h
;	genPlus
;	AOP_STK for _RAMtoVRAM_sloc0_1_0
;	genPlusIncr
	ld	a,c
	add	a,#0x02
	ld	-13(ix),a
	ld	a,b
	adc	a,#0x00
	ld	-12(ix),a
;	genCast
;	AOP_STK for 
;	AOP_STK for _RAMtoVRAM_sloc1_1_0
	ld	a,6(ix)
	ld	-15(ix),a
	ld	-14(ix),#0x00
;	genCast
;	AOP_STK for 
	ld	e,4(ix)
;	genLeftShift
	ld	d,e
	ld	e,#0x00
;	genPlus
;	AOP_STK for _RAMtoVRAM_sloc1_1_0
	ld	a,-15(ix)
	add	a,e
	ld	e,a
	ld	a,-14(ix)
	adc	a,d
	ld	d,a
;	genAssign (pointer)
;	AOP_STK for _RAMtoVRAM_sloc0_1_0
;	isBitvar = 0
	ld	l,-13(ix)
	ld	h,-12(ix)
	ld	(hl),e
	inc	hl
	ld	(hl),d
;carwar.c:1219: buffer.NX = nx;
;	genPlus
;	AOP_STK for _RAMtoVRAM_sloc1_1_0
;	genPlusIncr
	ld	a,c
	add	a,#0x04
	ld	-15(ix),a
	ld	a,b
	adc	a,#0x00
	ld	-14(ix),a
;	genCast
;	AOP_STK for 
	ld	e,7(ix)
	ld	d,#0x00
;	genAssign (pointer)
;	AOP_STK for _RAMtoVRAM_sloc1_1_0
;	isBitvar = 0
	ld	l,-15(ix)
	ld	h,-14(ix)
	ld	(hl),e
	inc	hl
	ld	(hl),d
;carwar.c:1220: buffer.NY = ny;
;	genPlus
;	AOP_STK for _RAMtoVRAM_sloc1_1_0
;	genPlusIncr
	ld	a,c
	add	a,#0x06
	ld	-15(ix),a
	ld	a,b
	adc	a,#0x00
	ld	-14(ix),a
;	genCast
;	AOP_STK for 
	ld	e,8(ix)
	ld	d,#0x00
;	genAssign (pointer)
;	AOP_STK for _RAMtoVRAM_sloc1_1_0
;	isBitvar = 0
	ld	l,-15(ix)
	ld	h,-14(ix)
	ld	(hl),e
	inc	hl
	ld	(hl),d
;carwar.c:1221: buffer.CLR = ((u8*)ram)[0];
;	genPlus
;	AOP_STK for _RAMtoVRAM_sloc1_1_0
;	genPlusIncr
	ld	a,c
	add	a,#0x08
	ld	-15(ix),a
	ld	a,b
	adc	a,#0x00
	ld	-14(ix),a
;	genCast
;	AOP_STK for 
	ld	e,9(ix)
	ld	d,10(ix)
;	genPointerGet
	ld	a,(de)
;	genAssign (pointer)
;	AOP_STK for _RAMtoVRAM_sloc1_1_0
;	isBitvar = 0
	ld	l,-15(ix)
	ld	h,-14(ix)
	ld	(hl),a
;carwar.c:1222: buffer.ARG = 0;
;	genPlus
;	genPlusIncr
	ld	a,c
	add	a,#0x09
	ld	e,a
	ld	a,b
	adc	a,#0x00
	ld	d,a
;	genAssign (pointer)
;	isBitvar = 0
	ld	a,#0x00
	ld	(de),a
;carwar.c:1223: buffer.CMD = 0xF0;
;	genPlus
;	genPlusIncr
	ld	a,c
	add	a,#0x0A
	ld	e,a
	ld	a,b
	adc	a,#0x00
	ld	d,a
;	genAssign (pointer)
;	isBitvar = 0
	ld	a,#0xF0
	ld	(de),a
;carwar.c:1224: VPDCommand36((u16)&buffer);
;	genAssign
;	(registers are the same)
;	genCast
;	genIpush
; _saveRegsForCall: sendSetSize: 0 deInUse: 0 bcInUse: 0 deSending: 0
	push	bc
;	genCall
	call	_VPDCommand36
	pop	af
;carwar.c:1225: VPDCommandLoop(ram);
;	genIpush
; _saveRegsForCall: sendSetSize: 0 deInUse: 0 bcInUse: 0 deSending: 0
;	AOP_STK for 
	ld	l,9(ix)
	ld	h,10(ix)
	push	hl
;	genCall
	call	_VPDCommandLoop
	pop	af
;	genLabel
;	genEndFunction
	ld	sp,ix
	pop	ix
	ret
_RAMtoVRAM_end::
;carwar.c:1229: void RAMtoVRAMTrans(u8 page, u8 dx, u8 dy, u8 nx, u8 ny, u16 ram)
;	genLabel
;	genFunction
;	---------------------------------
; Function RAMtoVRAMTrans
; ---------------------------------
_RAMtoVRAMTrans_start::
_RAMtoVRAMTrans:
	push	ix
	ld	ix,#0
	add	ix,sp
	ld	hl,#-15
	add	hl,sp
	ld	sp,hl
;carwar.c:1235: buffer.DX = dx;
;	genAddrOf
	ld	hl,#0x0004
	add	hl,sp
	ld	c,l
	ld	b,h
;	genCast
;	AOP_STK for 
	ld	e,5(ix)
	ld	d,#0x00
;	genAssign (pointer)
;	isBitvar = 0
	ld	l,c
	ld	h,b
	ld	(hl),e
	inc	hl
	ld	(hl),d
;carwar.c:1236: buffer.DY = dy + ((u16)page << 8);
;	genAddrOf
	ld	hl,#0x0004
	add	hl,sp
	ld	c,l
	ld	b,h
;	genPlus
;	AOP_STK for _RAMtoVRAMTrans_sloc0_1_0
;	genPlusIncr
	ld	a,c
	add	a,#0x02
	ld	-13(ix),a
	ld	a,b
	adc	a,#0x00
	ld	-12(ix),a
;	genCast
;	AOP_STK for 
;	AOP_STK for _RAMtoVRAMTrans_sloc1_1_0
	ld	a,6(ix)
	ld	-15(ix),a
	ld	-14(ix),#0x00
;	genCast
;	AOP_STK for 
	ld	e,4(ix)
;	genLeftShift
	ld	d,e
	ld	e,#0x00
;	genPlus
;	AOP_STK for _RAMtoVRAMTrans_sloc1_1_0
	ld	a,-15(ix)
	add	a,e
	ld	e,a
	ld	a,-14(ix)
	adc	a,d
	ld	d,a
;	genAssign (pointer)
;	AOP_STK for _RAMtoVRAMTrans_sloc0_1_0
;	isBitvar = 0
	ld	l,-13(ix)
	ld	h,-12(ix)
	ld	(hl),e
	inc	hl
	ld	(hl),d
;carwar.c:1237: buffer.NX = nx;
;	genPlus
;	AOP_STK for _RAMtoVRAMTrans_sloc1_1_0
;	genPlusIncr
	ld	a,c
	add	a,#0x04
	ld	-15(ix),a
	ld	a,b
	adc	a,#0x00
	ld	-14(ix),a
;	genCast
;	AOP_STK for 
	ld	e,7(ix)
	ld	d,#0x00
;	genAssign (pointer)
;	AOP_STK for _RAMtoVRAMTrans_sloc1_1_0
;	isBitvar = 0
	ld	l,-15(ix)
	ld	h,-14(ix)
	ld	(hl),e
	inc	hl
	ld	(hl),d
;carwar.c:1238: buffer.NY = ny;
;	genPlus
;	AOP_STK for _RAMtoVRAMTrans_sloc1_1_0
;	genPlusIncr
	ld	a,c
	add	a,#0x06
	ld	-15(ix),a
	ld	a,b
	adc	a,#0x00
	ld	-14(ix),a
;	genCast
;	AOP_STK for 
	ld	e,8(ix)
	ld	d,#0x00
;	genAssign (pointer)
;	AOP_STK for _RAMtoVRAMTrans_sloc1_1_0
;	isBitvar = 0
	ld	l,-15(ix)
	ld	h,-14(ix)
	ld	(hl),e
	inc	hl
	ld	(hl),d
;carwar.c:1239: buffer.CLR = ((u8*)ram)[0];
;	genPlus
;	AOP_STK for _RAMtoVRAMTrans_sloc1_1_0
;	genPlusIncr
	ld	a,c
	add	a,#0x08
	ld	-15(ix),a
	ld	a,b
	adc	a,#0x00
	ld	-14(ix),a
;	genCast
;	AOP_STK for 
	ld	e,9(ix)
	ld	d,10(ix)
;	genPointerGet
	ld	a,(de)
;	genAssign (pointer)
;	AOP_STK for _RAMtoVRAMTrans_sloc1_1_0
;	isBitvar = 0
	ld	l,-15(ix)
	ld	h,-14(ix)
	ld	(hl),a
;carwar.c:1240: buffer.ARG = 0;
;	genPlus
;	genPlusIncr
	ld	a,c
	add	a,#0x09
	ld	e,a
	ld	a,b
	adc	a,#0x00
	ld	d,a
;	genAssign (pointer)
;	isBitvar = 0
	ld	a,#0x00
	ld	(de),a
;carwar.c:1241: buffer.CMD = 0xB8;
;	genPlus
;	genPlusIncr
	ld	a,c
	add	a,#0x0A
	ld	e,a
	ld	a,b
	adc	a,#0x00
	ld	d,a
;	genAssign (pointer)
;	isBitvar = 0
	ld	a,#0xB8
	ld	(de),a
;carwar.c:1242: VPDCommand36((u16)&buffer);
;	genAssign
;	(registers are the same)
;	genCast
;	genIpush
; _saveRegsForCall: sendSetSize: 0 deInUse: 0 bcInUse: 0 deSending: 0
	push	bc
;	genCall
	call	_VPDCommand36
	pop	af
;carwar.c:1243: VPDCommandLoop(ram);
;	genIpush
; _saveRegsForCall: sendSetSize: 0 deInUse: 0 bcInUse: 0 deSending: 0
;	AOP_STK for 
	ld	l,9(ix)
	ld	h,10(ix)
	push	hl
;	genCall
	call	_VPDCommandLoop
	pop	af
;	genLabel
;	genEndFunction
	ld	sp,ix
	pop	ix
	ret
_RAMtoVRAMTrans_end::
;carwar.c:1246: void Fill8(u8 page, u8 dx, u8 dy, u8 nx, u8 ny, u8 color)
;	genLabel
;	genFunction
;	---------------------------------
; Function Fill8
; ---------------------------------
_Fill8_start::
_Fill8:
	push	ix
	ld	ix,#0
	add	ix,sp
	ld	hl,#-15
	add	hl,sp
	ld	sp,hl
;carwar.c:1252: buffer.DX = dx;
;	genAddrOf
	ld	hl,#0x0004
	add	hl,sp
	ld	c,l
	ld	b,h
;	genCast
;	AOP_STK for 
	ld	e,5(ix)
	ld	d,#0x00
;	genAssign (pointer)
;	isBitvar = 0
	ld	l,c
	ld	h,b
	ld	(hl),e
	inc	hl
	ld	(hl),d
;carwar.c:1253: buffer.DY = dy + ((u16)page << 8);
;	genAddrOf
	ld	hl,#0x0004
	add	hl,sp
	ld	c,l
	ld	b,h
;	genPlus
;	AOP_STK for _Fill8_sloc0_1_0
;	genPlusIncr
	ld	a,c
	add	a,#0x02
	ld	-13(ix),a
	ld	a,b
	adc	a,#0x00
	ld	-12(ix),a
;	genCast
;	AOP_STK for 
;	AOP_STK for _Fill8_sloc1_1_0
	ld	a,6(ix)
	ld	-15(ix),a
	ld	-14(ix),#0x00
;	genCast
;	AOP_STK for 
	ld	e,4(ix)
;	genLeftShift
	ld	d,e
	ld	e,#0x00
;	genPlus
;	AOP_STK for _Fill8_sloc1_1_0
	ld	a,-15(ix)
	add	a,e
	ld	e,a
	ld	a,-14(ix)
	adc	a,d
	ld	d,a
;	genAssign (pointer)
;	AOP_STK for _Fill8_sloc0_1_0
;	isBitvar = 0
	ld	l,-13(ix)
	ld	h,-12(ix)
	ld	(hl),e
	inc	hl
	ld	(hl),d
;carwar.c:1254: buffer.NX = nx;
;	genPlus
;	AOP_STK for _Fill8_sloc1_1_0
;	genPlusIncr
	ld	a,c
	add	a,#0x04
	ld	-15(ix),a
	ld	a,b
	adc	a,#0x00
	ld	-14(ix),a
;	genCast
;	AOP_STK for 
	ld	e,7(ix)
	ld	d,#0x00
;	genAssign (pointer)
;	AOP_STK for _Fill8_sloc1_1_0
;	isBitvar = 0
	ld	l,-15(ix)
	ld	h,-14(ix)
	ld	(hl),e
	inc	hl
	ld	(hl),d
;carwar.c:1255: buffer.NY = ny;
;	genPlus
;	AOP_STK for _Fill8_sloc1_1_0
;	genPlusIncr
	ld	a,c
	add	a,#0x06
	ld	-15(ix),a
	ld	a,b
	adc	a,#0x00
	ld	-14(ix),a
;	genCast
;	AOP_STK for 
	ld	e,8(ix)
	ld	d,#0x00
;	genAssign (pointer)
;	AOP_STK for _Fill8_sloc1_1_0
;	isBitvar = 0
	ld	l,-15(ix)
	ld	h,-14(ix)
	ld	(hl),e
	inc	hl
	ld	(hl),d
;carwar.c:1256: buffer.CLR = color;
;	genPlus
;	genPlusIncr
	ld	a,c
	add	a,#0x08
	ld	e,a
	ld	a,b
	adc	a,#0x00
	ld	d,a
;	genAssign (pointer)
;	AOP_STK for 
;	isBitvar = 0
	ld	a,9(ix)
	ld	(de),a
;carwar.c:1257: buffer.ARG = 0;
;	genPlus
;	genPlusIncr
	ld	a,c
	add	a,#0x09
	ld	e,a
	ld	a,b
	adc	a,#0x00
	ld	d,a
;	genAssign (pointer)
;	isBitvar = 0
	ld	a,#0x00
	ld	(de),a
;carwar.c:1258: buffer.CMD = 0xC0;
;	genPlus
;	genPlusIncr
	ld	a,c
	add	a,#0x0A
	ld	e,a
	ld	a,b
	adc	a,#0x00
	ld	d,a
;	genAssign (pointer)
;	isBitvar = 0
	ld	a,#0xC0
	ld	(de),a
;carwar.c:1259: VPDCommand36((u16)&buffer);
;	genAssign
;	(registers are the same)
;	genCast
;	genIpush
; _saveRegsForCall: sendSetSize: 0 deInUse: 0 bcInUse: 0 deSending: 0
	push	bc
;	genCall
	call	_VPDCommand36
	pop	af
;	genLabel
;	genEndFunction
	ld	sp,ix
	pop	ix
	ret
_Fill8_end::
;carwar.c:1274: void VPDCommand32(u16 address)
;	genLabel
;	genFunction
;	---------------------------------
; Function VPDCommand32
; ---------------------------------
_VPDCommand32_start::
_VPDCommand32:
	push	ix
	ld	ix,#0
	add	ix,sp
;carwar.c:1278: WaitForVDP();
;	genCall
; _saveRegsForCall: sendSetSize: 0 deInUse: 0 bcInUse: 0 deSending: 0
	call	_WaitForVDP
;carwar.c:1308: _endasm;
;	genInline
	
	
		 ld l,4(ix)
		 ld h,5(ix)
	
		 ld a,#32
		 di
		 out (#0x99),a
		 ld a,#(0x80+17)
		 out (#0x99),a
		 ld c,#0x99 +#2
		 outi
		 outi
		 outi
		 outi
		 outi
		 outi
		 outi
		 outi
		 outi
		 outi
		 outi
		 outi
		 outi
		 outi
		 ei
		 outi
	
		
;	genLabel
;	genEndFunction
	pop	ix
	ret
_VPDCommand32_end::
;carwar.c:1314: void VPDCommand36(u16 address)
;	genLabel
;	genFunction
;	---------------------------------
; Function VPDCommand36
; ---------------------------------
_VPDCommand36_start::
_VPDCommand36:
	push	ix
	ld	ix,#0
	add	ix,sp
;carwar.c:1318: WaitForVDP();
;	genCall
; _saveRegsForCall: sendSetSize: 0 deInUse: 0 bcInUse: 0 deSending: 0
	call	_WaitForVDP
;carwar.c:1344: _endasm;
;	genInline
	
	
		 ld l,4(ix)
		 ld h,5(ix)
		 ;
		 ld a,#36 ;
		 di
		 out (#0x99),a
		 ld a,#(0x80+17)
		 out (#0x99),a ;
		 ld c,#0x99 +#2 ;
		 outi
		 outi
		 outi
		 outi
		 outi
		 outi
		 outi
		 outi
		 outi
		 outi
		 ei ;
		 outi
	
		
;	genLabel
;	genEndFunction
	pop	ix
	ret
_VPDCommand36_end::
	.area _CODE
	.area _CABS
