ASxxxx Linker V02.00 + NoICE + sdld,  page 1.
Hexadecimal

Area                               Addr   Size   Decimal Bytes (Attributes)
--------------------------------   ----   ----   ------- ----- ------------
.	.ABS.                            0000   0000 =      0. bytes (ABS,CON)

      Value  Global                              Global Defined In Module
      -----  ---------------------------------   ------------------------
            0000  .__.ABS.                         
            0000  l__CABS                          
            0000  l__DATA                          
            0000  l__GSFINAL                       
            0000  l__GSINIT                        
            0000  l__HOME                          
            0000  l__OVERLAY                       
            4010  s__CODE                          
            7661  l__CODE                          
            C000  _game                            
            C000  s__CABS                          
            C000  s__DATA                          
            C000  s__GSFINAL                       
            C000  s__GSINIT                        
            C000  s__HOME                          
            C000  s__OVERLAY                       
ASxxxx Linker V02.00 + NoICE + sdld,  page 2.
Hexadecimal

Area                               Addr   Size   Decimal Bytes (Attributes)
--------------------------------   ----   ----   ------- ----- ------------
_CODE                              4010   7661 =  30305. bytes (REL,CON)

      Value  Global                              Global Defined In Module
      -----  ---------------------------------   ------------------------
            4010  _main                            
            4010  _main_start                      
            402A  _g_Car1                          
            402A  _main_end                        
            491A  _g_Car2                          
            520A  _g_Car3                          
            5AFA  _g_Car4                          
            63EA  _g_Shadow                        
            6452  _g_CharTable                     
            6652  _g_TrackTiles                    
            6E52  _g_Title                         
            710A  _g_Pilots                        
            7B4B  _g_Cars                          
            7B64  _g_BG                            
            7BB9  _g_TrackTiles01                  
            7C37  _g_Tracks                        
            7C6A  _g_MenuMain                      
            7C82  _g_MenuMode                      
            7CA0  _g_MenuTrack                     
            7CB2  _g_MenuPlayer                    
            7CCA  _g_MenuTrackList                 
            7CE2  _g_Menus                         
            7D05  _g_HeightTab                     
            7D1A  _g_DefaultColor                  
            7D22  _g_AnimIndex                     
            7D26  _g_SmokeFrq                      
            7E17  _MainLoop                        
            7E17  _MainLoop_start                  
            7E30  _MainLoop_end                    
            7E30  _StateInitialize                 
            7E30  _StateInitialize_start           
            809B  _InitializeMenu                  
            809B  _InitializeMenu_start            
            809B  _StateInitialize_end             
            822D  _InitializeMenu_end              
            822D  _StateTitle                      
            822D  _StateTitle_start                
            8399  _StateMainMenu                   
            8399  _StateMainMenu_start             
            8399  _StateTitle_end                  
            864F  _StateMainMenu_end               
            8651  _StateStartGame                  
            8651  _StateStartGame_start            
            8A32  _StateStartGame_end              
            8A4E  _StateUpdateGame                 
            8A4E  _StateUpdateGame_start           
            9B21  _InitializePlayer                
            9B21  _InitializePlayer_start          
            9B21  _StateUpdateGame_end             
            9C0A  _AngleDifferent64                
ASxxxx Linker V02.00 + NoICE + sdld,  page 3.
Hexadecimal

Area                               Addr   Size   Decimal Bytes (Attributes)
--------------------------------   ----   ----   ------- ----- ------------
_CODE                              4010   7661 =  30305. bytes (REL,CON)

      Value  Global                              Global Defined In Module
      -----  ---------------------------------   ------------------------
            9C0A  _AngleDifferent64_start          
            9C0A  _InitializePlayer_end            
            9C3A  _AngleDifferent64_end            
            9C3A  _VectorToAngle256                
            9C3A  _VectorToAngle256_start          
            9CEB  _GetVectorLenght256              
            9CEB  _GetVectorLenght256_start        
            9CEB  _VectorToAngle256_end            
            9D6C  _CarToCarCollision               
            9D6C  _CarToCarCollision_start         
            9D6C  _GetVectorLenght256_end          
            A052  _CarToCarCollision_end           
            A052  _CarToWallCollision              
            A052  _CarToWallCollision_start        
            A349  _CarToWallCollision_end          
            A349  _StateBuildTrack                 
            A349  _StateBuildTrack_start           
            A757  _StateBuildTrack_end             
            A763  _StateShadeTrack                 
            A763  _StateShadeTrack_start           
            A951  _StateShadeTrack_end             
            A95D  _DarkenColor                     
            A95D  _DarkenColor_start               
            AB54  _DarkenColor_end                 
            AB54  _GrayGradiant                    
            AB54  _GrayGradiant_start              
            AB83  _DrawCharacter                   
            AB83  _DrawCharacter_start             
            AB83  _GrayGradiant_end                
            AC65  _DrawCharacter_end               
            AC65  _DrawText                        
            AC65  _DrawText_start                  
            ACEC  _DrawText_end                    
            ACEC  _StartGame                       
            ACEC  _StartGame_start                 
            AD05  _SelectPlayer                    
            AD05  _SelectPlayer_start              
            AD05  _StartGame_end                   
            AD16  _SelectPlayer_end                
            AD16  _SelectRule                      
            AD16  _SelectRule_start                
            AD27  _Joystick                        
            AD27  _Joystick_start                  
            AD27  _SelectRule_end                  
            AD39  _Joystick_end                    
            AD39  _Joytrig                         
            AD39  _Joytrig_start                   
            AD4D  _GetKeyMatrixLine                
            AD4D  _GetKeyMatrixLine_start          
            AD4D  _Joytrig_end                     
            AD5F  _GetKeyMatrixLine_end            
ASxxxx Linker V02.00 + NoICE + sdld,  page 4.
Hexadecimal

Area                               Addr   Size   Decimal Bytes (Attributes)
--------------------------------   ----   ----   ------- ----- ------------
_CODE                              4010   7661 =  30305. bytes (REL,CON)

      Value  Global                              Global Defined In Module
      -----  ---------------------------------   ------------------------
            AD5F  _SetScreen8                      
            AD5F  _SetScreen8_start                
            ADB1  _SetScreen8_end                  
            ADB1  _SetSpriteMode                   
            ADB1  _SetSpriteMode_start             
            ADFE  _SetFreq                         
            ADFE  _SetFreq_start                   
            ADFE  _SetSpriteMode_end               
            AE1F  _SetFreq_end                     
            AE1F  _SetPage8                        
            AE1F  _SetPage8_start                  
            AE3D  _DrawPoint8                      
            AE3D  _DrawPoint8_start                
            AE3D  _SetPage8_end                    
            AEA8  _DrawLine8                       
            AEA8  _DrawLine8_start                 
            AEA8  _DrawPoint8_end                  
            AEB6  _DrawLine8_end                   
            AEB6  _waitRetrace                     
            AEB6  _waitRetrace_start               
            AEC1  _WaitForVDP                      
            AEC1  _WaitForVDP_start                
            AEC1  _waitRetrace_end                 
            AED9  _WaitForVDP_end                  
            AED9  _WriteVRAM                       
            AED9  _WriteVRAM_start                 
            AF11  _ReadVRAM                        
            AF11  _ReadVRAM_start                  
            AF11  _WriteVRAM_end                   
            AF45  _ReadVRAM_end                    
            AF45  _VPDCommandLoop                  
            AF45  _VPDCommandLoop_start            
            AF7D  _RAMtoVRAM                       
            AF7D  _RAMtoVRAM_start                 
            AF7D  _VPDCommandLoop_end              
            AFF3  _RAMtoVRAMTrans                  
            AFF3  _RAMtoVRAMTrans_start            
            AFF3  _RAMtoVRAM_end                   
            B069  _FillVRAM                        
            B069  _FillVRAM_start                  
            B069  _RAMtoVRAMTrans_end              
            B0D0  _FillVRAM_end                    
            B0D0  _VRAMtoVRAM                      
            B0D0  _VRAMtoVRAM_start                
            B150  _VRAMtoVRAMTrans                 
            B150  _VRAMtoVRAMTrans_start           
            B150  _VRAMtoVRAM_end                  
            B1D0  _VPDCommand32                    
            B1D0  _VPDCommand32_start              
            B1D0  _VRAMtoVRAMTrans_end             
            B20E  _VPDCommand32_end                
ASxxxx Linker V02.00 + NoICE + sdld,  page 5.
Hexadecimal

Area                               Addr   Size   Decimal Bytes (Attributes)
--------------------------------   ----   ----   ------- ----- ------------
_CODE                              4010   7661 =  30305. bytes (REL,CON)

      Value  Global                              Global Defined In Module
      -----  ---------------------------------   ------------------------
            B20E  _VPDCommand36                    
            B20E  _VPDCommand36_start              
            B244  _PrintSprite                     
            B244  _PrintSprite_start               
            B244  _VPDCommand36_end                
            B2C2  _ClearSprite                     
            B2C2  _ClearSprite_start               
            B2C2  _PrintSprite_end                 
            B2D4  _ClearSprite_end                 
            B2D4  _SetSpriteMultiColor             
            B2D4  _SetSpriteMultiColor_start       
            B3A7  _SetSpriteMultiColor_end         
            B3A7  _SetSpriteUniColor               
            B3A7  _SetSpriteUniColor_start         
            B478  _SetSpriteUniColor_end           
            B478  _last_error                      
            B479  _open                            
            B4A0  _creat                           
            B4CA  _close                           
            B4E1  _dup                             
            B502  _read                            
            B52D  _write                           
            B558  _lseek                           
            B586  _exit                            
            B599  __modschar_rrx_s                 
            B5A0  __modschar_rrx_hds               
            B5A6  __modsint_rrx_s                  
            B5AC  __modsint_rrx_hds                
            B5B2  __divsint_rrx_s                  
            B5BB  __divschar_rrx_s                 
            B5C2  __div8                           
            B5C2  __divschar_rrx_hds               
            B5C6  __div_signexte                   
            B5CA  __div16                          
            B5CA  __divsint_rrx_hds                
            B5F0  __get_remainder                  
            B5FA  __divuint_rrx_s                  
            B602  __divuchar_rrx_s                 
            B609  __divu8                          
            B609  __divuchar_rrx_hds               
            B60C  __divu16                         
            B60C  __divuint_rrx_hds                
            B63E  __moduchar_rrx_s                 
            B645  __moduchar_rrx_hds               
            B64A  __moduint_rrx_s                  
            B650  __moduint_rrx_hds                
            B655  __mulint_rrx_s                   
            B65B  __mulint_rrx_hds                 
            B65B  __muluchar_rrx_hds               
            B65D  __mul16                          

ASxxxx Linker V02.00 + NoICE + sdld,  page 6.
Hexadecimal

Area                               Addr   Size   Decimal Bytes (Attributes)
--------------------------------   ----   ----   ------- ----- ------------
_DATA                              C000   0000 =      0. bytes (REL,CON)

      Value  Global                              Global Defined In Module
      -----  ---------------------------------   ------------------------
ASxxxx Linker V02.00 + NoICE + sdld,  page 7.
Hexadecimal

Area                               Addr   Size   Decimal Bytes (Attributes)
--------------------------------   ----   ----   ------- ----- ------------
_OVERLAY                           C000   0000 =      0. bytes (REL,CON)

      Value  Global                              Global Defined In Module
      -----  ---------------------------------   ------------------------
ASxxxx Linker V02.00 + NoICE + sdld,  page 8.
Hexadecimal

Area                               Addr   Size   Decimal Bytes (Attributes)
--------------------------------   ----   ----   ------- ----- ------------
_HOME                              C000   0000 =      0. bytes (REL,CON)

      Value  Global                              Global Defined In Module
      -----  ---------------------------------   ------------------------
ASxxxx Linker V02.00 + NoICE + sdld,  page 9.
Hexadecimal

Area                               Addr   Size   Decimal Bytes (Attributes)
--------------------------------   ----   ----   ------- ----- ------------
_GSINIT                            C000   0000 =      0. bytes (REL,CON)

      Value  Global                              Global Defined In Module
      -----  ---------------------------------   ------------------------
ASxxxx Linker V02.00 + NoICE + sdld,  page 10.
Hexadecimal

Area                               Addr   Size   Decimal Bytes (Attributes)
--------------------------------   ----   ----   ------- ----- ------------
_GSFINAL                           C000   0000 =      0. bytes (REL,CON)

      Value  Global                              Global Defined In Module
      -----  ---------------------------------   ------------------------
ASxxxx Linker V02.00 + NoICE + sdld,  page 11.
Hexadecimal

Area                               Addr   Size   Decimal Bytes (Attributes)
--------------------------------   ----   ----   ------- ----- ------------
_CABS                              C000   0000 =      0. bytes (REL,CON)

      Value  Global                              Global Defined In Module
      -----  ---------------------------------   ------------------------
ASxxxx Linker V02.00 + NoICE + sdld,  page 12.

Files Linked                              [ module(s) ]

carwar.rel                                [ carwar ]
bios.rel                                  [ bios ]
video.rel                                 [ video ]
files.rel                                 [  ]


Libraries Linked                          [ object file ]

C:\Dev\program\msx\tools\SDCC\bin\..\lib  [ modsigned.rel ]
C:\Dev\program\msx\tools\SDCC\bin\..\lib  [ divsigned.rel ]
C:\Dev\program\msx\tools\SDCC\bin\..\lib  [ divunsigned.rel ]
C:\Dev\program\msx\tools\SDCC\bin\..\lib  [ modunsigned.rel ]
C:\Dev\program\msx\tools\SDCC\bin\..\lib  [ mul.rel ]

ASxxxx Linker V02.00 + NoICE + sdld,  page 13.

User Base Address Definitions

_CODE = 0x4010
_DATA = 0xc000

